 ManagedDemo

 Timestamp is 50268164 (Sat Aug 11 16:59:32 2012)

 Preferred load address is 00400000

 Start         Length     Name                   Class
 0001:00000000 0003ca14H .text                   CODE
 0001:0003ca20 000013bcH .text$x                 CODE
 0001:0003dde0 00000e3dH .text$yc                CODE
 0001:0003ec20 0000051aH .text$yd                CODE
 0002:00000000 000002d4H .idata$5                DATA
 0002:000002d4 00000004H .CRT$XCA                DATA
 0002:000002d8 00000004H .CRT$XCAA               DATA
 0002:000002dc 0000008cH .CRT$XCU                DATA
 0002:00000368 00000004H .CRT$XCZ                DATA
 0002:0000036c 00000004H .CRT$XIA                DATA
 0002:00000370 00000004H .CRT$XIAA               DATA
 0002:00000374 00000004H .CRT$XIC                DATA
 0002:00000378 00000004H .CRT$XIY                DATA
 0002:0000037c 00000004H .CRT$XIZ                DATA
 0002:00000380 00001d28H .rdata                  DATA
 0002:000020a8 0000007cH .rdata$debug            DATA
 0002:00002124 00001170H .rdata$r                DATA
 0002:000032a0 00000134H .rdata$sxdata           DATA
 0002:000033d4 00000004H .rtc$IAA                DATA
 0002:000033d8 00000004H .rtc$IZZ                DATA
 0002:000033dc 00000004H .rtc$TAA                DATA
 0002:000033e0 00000004H .rtc$TZZ                DATA
 0002:000033e8 000014c4H .xdata$x                DATA
 0002:000048ac 0000008cH .idata$2                DATA
 0002:00004938 00000014H .idata$3                DATA
 0002:0000494c 000002d4H .idata$4                DATA
 0002:00004c20 0000149eH .idata$6                DATA
 0002:000060be 00000000H .edata                  DATA
 0003:00000000 000008d8H .data                   DATA
 0003:000008d8 000007d0H .bss                    DATA
 0004:00000000 000002e0H .rsrc$01                DATA
 0004:000002e0 00003ac0H .rsrc$02                DATA

  Address         Publics by Value              Rva+Base       Lib:Object

 0000:00000000       __except_list              00000000     <absolute>
 0000:0000004d       ___safe_se_handler_count   0000004d     <absolute>
 0000:00009876       __fltused                  00009876     <absolute>
 0000:00009876       __ldused                   00009876     <absolute>
 0000:00000000       ___ImageBase               00400000     <linker-defined>
 0001:00000000       _cosf                      00401000 f i Box2D:b2PolygonShape.obj
 0001:00000030       _sinf                      00401030 f i Box2D:b2PolygonShape.obj
 0001:00000060       _sqrtf                     00401060 f i Box2D:b2PolygonShape.obj
 0001:00000080       ?sqrt@@YAMM@Z              00401080 f i Box2D:b2PolygonShape.obj
 0001:000000a0       ??0b2Vec2@@QAE@XZ          004010a0 f i Box2D:b2PolygonShape.obj
 0001:000000b0       ??0b2Vec2@@QAE@MM@Z        004010b0 f i Box2D:b2PolygonShape.obj
 0001:000000d0       ?SetZero@b2Vec2@@QAEXXZ    004010d0 f i Box2D:b2PolygonShape.obj
 0001:000000e0       ?Set@b2Vec2@@QAEXMM@Z      004010e0 f i Box2D:b2PolygonShape.obj
 0001:00000100       ??Yb2Vec2@@QAEXABU0@@Z     00401100 f i Box2D:b2PolygonShape.obj
 0001:00000130       ??Xb2Vec2@@QAEXM@Z         00401130 f i Box2D:b2PolygonShape.obj
 0001:00000150       ?Length@b2Vec2@@QBEMXZ     00401150 f i Box2D:b2PolygonShape.obj
 0001:00000180       ?Normalize@b2Vec2@@QAEMXZ  00401180 f i Box2D:b2PolygonShape.obj
 0001:00000210       ??0b2Rot@@QAE@XZ           00401210 f i Box2D:b2PolygonShape.obj
 0001:00000220       ?Set@b2Rot@@QAEXM@Z        00401220 f i Box2D:b2PolygonShape.obj
 0001:00000260       ??0b2Transform@@QAE@XZ     00401260 f i Box2D:b2PolygonShape.obj
 0001:00000270       ?b2Dot@@YAMABUb2Vec2@@0@Z  00401270 f i Box2D:b2PolygonShape.obj
 0001:00000290       ?b2Cross@@YAMABUb2Vec2@@0@Z 00401290 f i Box2D:b2PolygonShape.obj
 0001:000002b0       ?b2Cross@@YA?AUb2Vec2@@ABU1@M@Z 004012b0 f i Box2D:b2PolygonShape.obj
 0001:000002e0       ??H@YA?AUb2Vec2@@ABU0@0@Z  004012e0 f i Box2D:b2PolygonShape.obj
 0001:00000310       ??G@YA?AUb2Vec2@@ABU0@0@Z  00401310 f i Box2D:b2PolygonShape.obj
 0001:00000340       ??D@YA?AUb2Vec2@@MABU0@@Z  00401340 f i Box2D:b2PolygonShape.obj
 0001:00000360       ?b2Mul@@YA?AUb2Vec2@@ABUb2Rot@@ABU1@@Z 00401360 f i Box2D:b2PolygonShape.obj
 0001:000003a0       ?b2MulT@@YA?AUb2Vec2@@ABUb2Rot@@ABU1@@Z 004013a0 f i Box2D:b2PolygonShape.obj
 0001:000003e0       ?b2Mul@@YA?AUb2Vec2@@ABUb2Transform@@ABU1@@Z 004013e0 f i Box2D:b2PolygonShape.obj
 0001:00000430       ?b2Min@@YA?AUb2Vec2@@ABU1@0@Z 00401430 f i Box2D:b2PolygonShape.obj
 0001:00000470       ?b2Max@@YA?AUb2Vec2@@ABU1@0@Z 00401470 f i Box2D:b2PolygonShape.obj
 0001:000004b0       ??1b2Shape@@UAE@XZ         004014b0 f i Box2D:b2PolygonShape.obj
 0001:000004c0       ??_Eb2Shape@@UAEPAXI@Z     004014c0 f i  CIL library: CIL module
 0001:000004c0       ??_Gb2Shape@@UAEPAXI@Z     004014c0 f i Box2D:b2PolygonShape.obj
 0001:000004f0       ??0b2PolygonShape@@QAE@XZ  004014f0 f i Box2D:b2PolygonShape.obj
 0001:00000520       ??_Eb2PolygonShape@@UAEPAXI@Z 00401520 f i  CIL library: CIL module
 0001:00000520       ??_Gb2PolygonShape@@UAEPAXI@Z 00401520 f i Box2D:b2PolygonShape.obj
 0001:00000550       ??0b2Shape@@QAE@XZ         00401550 f i Box2D:b2PolygonShape.obj
 0001:00000560       ??_H@YGXPAXIHP6EPAX0@Z@Z   00401560 f i Box2D:b2PolygonShape.obj
 0001:00000590       ??1b2PolygonShape@@UAE@XZ  00401590 f i Box2D:b2PolygonShape.obj
 0001:000005a0       ??2@YAPAXIPAX@Z            004015a0 f i Box2D:b2PolygonShape.obj
 0001:000005b0       ??3@YAXPAX0@Z              004015b0 f i Box2D:b2PolygonShape.obj
 0001:000005c0       ?Clone@b2PolygonShape@@UBEPAVb2Shape@@PAVb2BlockAllocator@@@Z 004015c0 f   Box2D:b2PolygonShape.obj
 0001:00000630       ??4b2PolygonShape@@QAEAAV0@ABV0@@Z 00401630 f i Box2D:b2PolygonShape.obj
 0001:00000740       ??4b2Shape@@QAEAAV0@ABV0@@Z 00401740 f i Box2D:b2PolygonShape.obj
 0001:00000760       ?SetAsBox@b2PolygonShape@@QAEXMM@Z 00401760 f   Box2D:b2PolygonShape.obj
 0001:00000800       ?SetAsBox@b2PolygonShape@@QAEXMMABUb2Vec2@@M@Z 00401800 f   Box2D:b2PolygonShape.obj
 0001:000009b0       ?GetChildCount@b2PolygonShape@@UBEHXZ 004019b0 f   Box2D:b2PolygonShape.obj
 0001:00000ae0       ?Set@b2PolygonShape@@QAEXPBUb2Vec2@@H@Z 00401ae0 f   Box2D:b2PolygonShape.obj
 0001:00000c20       ?TestPoint@b2PolygonShape@@UBE_NABUb2Transform@@ABUb2Vec2@@@Z 00401c20 f   Box2D:b2PolygonShape.obj
 0001:00000cd0       ?RayCast@b2PolygonShape@@UBE_NPAUb2RayCastOutput@@ABUb2RayCastInput@@ABUb2Transform@@H@Z 00401cd0 f   Box2D:b2PolygonShape.obj
 0001:00000ec0       ?ComputeAABB@b2PolygonShape@@UBEXPAUb2AABB@@ABUb2Transform@@H@Z 00401ec0 f   Box2D:b2PolygonShape.obj
 0001:00001050       ?ComputeMass@b2PolygonShape@@UBEXPAUb2MassData@@M@Z 00402050 f   Box2D:b2PolygonShape.obj
 0001:00001330       ??$b2Min@M@@YAMMM@Z        00402330 f i Box2D:b2PolygonShape.obj
 0001:00001340       ??$b2Max@M@@YAMMM@Z        00402340 f i Box2D:b2PolygonShape.obj
 0001:00001350       ?b2Cross@@YA?AUb2Vec2@@MABU1@@Z 00402350 f i Box2D:b2Body.obj
 0001:00001380       ?SetAwake@b2Body@@QAEX_N@Z 00402380 f i Box2D:b2Body.obj
 0001:000013f0       ?IsActive@b2Body@@QBE_NXZ  004023f0 f i Box2D:b2Body.obj
 0001:00001400       ??0b2Filter@@QAE@XZ        00402400 f i Box2D:b2Body.obj
 0001:00001410       ??0b2FixtureDef@@QAE@XZ    00402410 f i Box2D:b2Body.obj
 0001:00001440       ?GetMassData@b2Fixture@@QBEXPAUb2MassData@@@Z 00402440 f i Box2D:b2Body.obj
 0001:00001460       ?IsLocked@b2World@@QBE_NXZ 00402460 f i Box2D:b2Body.obj
 0001:00001470       ?GetFixtureA@b2Contact@@QAEPAVb2Fixture@@XZ 00402470 f i Box2D:b2Body.obj
 0001:00001480       ?GetFixtureB@b2Contact@@QAEPAVb2Fixture@@XZ 00402480 f i Box2D:b2Body.obj
 0001:00001490       ??0b2Body@@AAE@PBUb2BodyDef@@PAVb2World@@@Z 00402490 f   Box2D:b2Body.obj
 0001:00001620       ??0b2Sweep@@QAE@XZ         00402620 f i Box2D:b2Body.obj
 0001:00001630       ??1b2Body@@AAE@XZ          00402630 f   Box2D:b2Body.obj
 0001:00001640       ?SetType@b2Body@@QAEXW4b2BodyType@@@Z 00402640 f   Box2D:b2Body.obj
 0001:000016f0       ?CreateFixture@b2Body@@QAEPAVb2Fixture@@PBUb2FixtureDef@@@Z 004026f0 f   Box2D:b2Body.obj
 0001:000017a0       ?CreateFixture@b2Body@@QAEPAVb2Fixture@@PBVb2Shape@@M@Z 004027a0 f   Box2D:b2Body.obj
 0001:000017e0       ?DestroyFixture@b2Body@@QAEXPAVb2Fixture@@@Z 004027e0 f   Box2D:b2Body.obj
 0001:000018a0       ?ResetMassData@b2Body@@QAEXXZ 004028a0 f   Box2D:b2Body.obj
 0001:00001b40       ??0b2MassData@@QAE@XZ      00402b40 f i Box2D:b2Body.obj
 0001:00001b50       ?SetMassData@b2Body@@QAEXPBUb2MassData@@@Z 00402b50 f   Box2D:b2Body.obj
 0001:00001cb0       ?ShouldCollide@b2Body@@ABE_NPBV1@@Z 00402cb0 f   Box2D:b2Body.obj
 0001:00001cf0       ?SetTransform@b2Body@@QAEXABUb2Vec2@@M@Z 00402cf0 f   Box2D:b2Body.obj
 0001:00001e00       ?SynchronizeFixtures@b2Body@@AAEXXZ 00402e00 f   Box2D:b2Body.obj
 0001:00001ed0       ?SetActive@b2Body@@QAEX_N@Z 00402ed0 f   Box2D:b2Body.obj
 0001:00001f70       ?Dump@b2Body@@QAEXXZ       00402f70 f   Box2D:b2Body.obj
 0001:00002130       ?b2Abs@@YA?AUb2Vec2@@ABU1@@Z 00403130 f i Box2D:b2World.obj
 0001:00002160       ?Advance@b2Sweep@@QAEXM@Z  00403160 f i Box2D:b2World.obj
 0001:000021f0       ?GetCenter@b2AABB@@QBE?AUb2Vec2@@XZ 004031f0 f i Box2D:b2World.obj
 0001:00002230       ?GetExtents@b2AABB@@QBE?AUb2Vec2@@XZ 00403230 f i Box2D:b2World.obj
 0001:00002270       ?b2TestOverlap@@YA_NABUb2AABB@@0@Z 00403270 f i Box2D:b2World.obj
 0001:000022c0       ?IsLeaf@b2TreeNode@@QBE_NXZ 004032c0 f i Box2D:b2World.obj
 0001:000022d0       ?GetUserData@b2DynamicTree@@QBEPAXH@Z 004032d0 f i Box2D:b2World.obj
 0001:000022f0       ?GetFatAABB@b2DynamicTree@@QBEABUb2AABB@@H@Z 004032f0 f i Box2D:b2World.obj
 0001:00002310       ?GetUserData@b2BroadPhase@@QBEPAXH@Z 00403310 f i Box2D:b2World.obj
 0001:00002330       ?GetFatAABB@b2BroadPhase@@QBEABUb2AABB@@H@Z 00403330 f i Box2D:b2World.obj
 0001:00002350       ?GetProxyCount@b2BroadPhase@@QBEHXZ 00403350 f i Box2D:b2World.obj
 0001:00002360       ?GetTreeHeight@b2BroadPhase@@QBEHXZ 00403360 f i Box2D:b2World.obj
 0001:00002380       ?GetTreeBalance@b2BroadPhase@@QBEHXZ 00403380 f i Box2D:b2World.obj
 0001:00002390       ?GetTreeQuality@b2BroadPhase@@QBEMXZ 00403390 f i Box2D:b2World.obj
 0001:00002410       ?GetType@b2Shape@@QBE?AW4Type@1@XZ 00403410 f i Box2D:b2World.obj
 0001:00002420       ?GetType@b2Body@@QBE?AW4b2BodyType@@XZ 00403420 f i Box2D:b2World.obj
 0001:00002430       ?GetTransform@b2Body@@QBEABUb2Transform@@XZ 00403430 f i Box2D:b2World.obj
 0001:00002440       ?GetWorldCenter@b2Body@@QBEABUb2Vec2@@XZ 00403440 f i Box2D:b2World.obj
 0001:00002450       ?IsBullet@b2Body@@QBE_NXZ  00403450 f i Box2D:b2World.obj
 0001:00002460       ?IsAwake@b2Body@@QBE_NXZ   00403460 f i Box2D:b2World.obj
 0001:00002470       ?GetFixtureList@b2Body@@QAEPAVb2Fixture@@XZ 00403470 f i Box2D:b2World.obj
 0001:00002480       ?GetContactList@b2Body@@QAEPAUb2ContactEdge@@XZ 00403480 f i Box2D:b2World.obj
 0001:00002490       ?GetNext@b2Body@@QAEPAV1@XZ 00403490 f i Box2D:b2World.obj
 0001:000024a0       ?SynchronizeTransform@b2Body@@AAEXXZ 004034a0 f i Box2D:b2World.obj
 0001:00002550       ?Advance@b2Body@@AAEXM@Z   00403550 f i Box2D:b2World.obj
 0001:00002690       ?GetType@b2Fixture@@QBE?AW4Type@b2Shape@@XZ 00403690 f i Box2D:b2World.obj
 0001:000026a0       ?GetShape@b2Fixture@@QAEPAVb2Shape@@XZ 004036a0 f i Box2D:b2World.obj
 0001:000026b0       ?IsSensor@b2Fixture@@QBE_NXZ 004036b0 f i Box2D:b2World.obj
 0001:000026c0       ?GetBody@b2Fixture@@QAEPAVb2Body@@XZ 004036c0 f i Box2D:b2World.obj
 0001:000026d0       ?GetNext@b2Fixture@@QAEPAV1@XZ 004036d0 f i Box2D:b2World.obj
 0001:000026e0       ?RayCast@b2Fixture@@QBE_NPAUb2RayCastOutput@@ABUb2RayCastInput@@H@Z 004036e0 f i Box2D:b2World.obj
 0001:00002710       ?Clear@b2Island@@QAEXXZ    00403710 f i Box2D:b2World.obj
 0001:00002730       ?Add@b2Island@@QAEXPAVb2Body@@@Z 00403730 f i Box2D:b2World.obj
 0001:00002750       ?Add@b2Island@@QAEXPAVb2Contact@@@Z 00403750 f i Box2D:b2World.obj
 0001:00002770       ?Add@b2Island@@QAEXPAVb2Joint@@@Z 00403770 f i Box2D:b2World.obj
 0001:00002790       ?GetType@b2Joint@@QBE?AW4b2JointType@@XZ 00403790 f i Box2D:b2World.obj
 0001:000027a0       ?GetBodyA@b2Joint@@QAEPAVb2Body@@XZ 004037a0 f i Box2D:b2World.obj
 0001:000027b0       ?GetBodyB@b2Joint@@QAEPAVb2Body@@XZ 004037b0 f i Box2D:b2World.obj
 0001:000027c0       ?GetNext@b2Joint@@QAEPAV1@XZ 004037c0 f i Box2D:b2World.obj
 0001:000027d0       ?SetEnabled@b2Contact@@QAEX_N@Z 004037d0 f i Box2D:b2World.obj
 0001:000027f0       ?IsEnabled@b2Contact@@QBE_NXZ 004037f0 f i Box2D:b2World.obj
 0001:00002800       ?IsTouching@b2Contact@@QBE_NXZ 00403800 f i Box2D:b2World.obj
 0001:00002810       ?GetNext@b2Contact@@QAEPAV1@XZ 00403810 f i Box2D:b2World.obj
 0001:00002820       ?GetChildIndexA@b2Contact@@QBEHXZ 00403820 f i Box2D:b2World.obj
 0001:00002830       ?GetChildIndexB@b2Contact@@QBEHXZ 00403830 f i Box2D:b2World.obj
 0001:00002840       ?FlagForFiltering@b2Contact@@IAEXXZ 00403840 f i Box2D:b2World.obj
 0001:00002850       ??0b2DistanceProxy@@QAE@XZ 00403850 f i Box2D:b2World.obj
 0001:00002870       ??0b2Color@@QAE@MMM@Z      00403870 f i Box2D:b2World.obj
 0001:00002890       ??0b2World@@QAE@ABUb2Vec2@@@Z 00403890 f   Box2D:b2World.obj
 0001:00002980       ??1b2ContactManager@@QAE@XZ 00403980 f i Box2D:b2World.obj
 0001:000029a0       ??1b2World@@QAE@XZ         004039a0 f   Box2D:b2World.obj
 0001:00002a60       ?SetDestructionListener@b2World@@QAEXPAVb2DestructionListener@@@Z 00403a60 f   Box2D:b2World.obj
 0001:00002a70       ?SetContactFilter@b2World@@QAEXPAVb2ContactFilter@@@Z 00403a70 f   Box2D:b2World.obj
 0001:00002a80       ?SetContactListener@b2World@@QAEXPAVb2ContactListener@@@Z 00403a80 f   Box2D:b2World.obj
 0001:00002a90       ?SetDebugDraw@b2World@@QAEXPAVb2Draw@@@Z 00403a90 f   Box2D:b2World.obj
 0001:00002aa0       ?CreateBody@b2World@@QAEPAVb2Body@@PBUb2BodyDef@@@Z 00403aa0 f   Box2D:b2World.obj
 0001:00002b10       ?DestroyBody@b2World@@QAEXPAVb2Body@@@Z 00403b10 f   Box2D:b2World.obj
 0001:00002c60       ??_Gb2Body@@AAEPAXI@Z      00403c60 f i Box2D:b2World.obj
 0001:00002c70       ?CreateJoint@b2World@@QAEPAVb2Joint@@PBUb2JointDef@@@Z 00403c70 f   Box2D:b2World.obj
 0001:00002d50       ?DestroyJoint@b2World@@QAEXPAVb2Joint@@@Z 00403d50 f   Box2D:b2World.obj
 0001:00002e80       ?SetAllowSleeping@b2World@@QAEX_N@Z 00403e80 f   Box2D:b2World.obj
 0001:00002ed0       ?Solve@b2World@@AAEXABUb2TimeStep@@@Z 00403ed0 f   Box2D:b2World.obj
 0001:00003460       ?SolveTOI@b2World@@AAEXABUb2TimeStep@@@Z 00404460 f   Box2D:b2World.obj
 0001:00004530       ??0b2TOIInput@@QAE@XZ      00405530 f i Box2D:b2World.obj
 0001:00004560       ?Step@b2World@@QAEXMHH@Z   00405560 f   Box2D:b2World.obj
 0001:00004910       ?ClearForces@b2World@@QAEXXZ 00405910 f   Box2D:b2World.obj
 0001:00004940       ?QueryCallback@b2WorldQueryWrapper@@QAE_NH@Z 00405940 f i Box2D:b2World.obj
 0001:00004970       ?QueryAABB@b2World@@QBEXPAVb2QueryCallback@@ABUb2AABB@@@Z 00405970 f   Box2D:b2World.obj
 0001:000049a0       ?RayCastCallback@b2WorldRayCastWrapper@@QAEMABUb2RayCastInput@@H@Z 004059a0 f i Box2D:b2World.obj
 0001:00004a80       ??0b2RayCastOutput@@QAE@XZ 00405a80 f i Box2D:b2World.obj
 0001:00004a90       ?RayCast@b2World@@QBEXPAVb2RayCastCallback@@ABUb2Vec2@@1@Z 00405a90 f   Box2D:b2World.obj
 0001:00004ae0       ??0b2RayCastInput@@QAE@XZ  00405ae0 f i Box2D:b2World.obj
 0001:00004af0       ?DrawShape@b2World@@AAEXPAVb2Fixture@@ABUb2Transform@@ABUb2Color@@@Z 00405af0 f   Box2D:b2World.obj
 0001:00004e20       ?DrawJoint@b2World@@AAEXPAVb2Joint@@@Z 00405e20 f   Box2D:b2World.obj
 0001:00004f40       ?DrawDebugData@b2World@@QAEXXZ 00405f40 f   Box2D:b2World.obj
 0001:00005200       ?GetProxyCount@b2World@@QBEHXZ 00406200 f   Box2D:b2World.obj
 0001:00005210       ?GetTreeHeight@b2World@@QBEHXZ 00406210 f   Box2D:b2World.obj
 0001:00005230       ?GetTreeBalance@b2World@@QBEHXZ 00406230 f   Box2D:b2World.obj
 0001:00005240       ?GetTreeQuality@b2World@@QBEMXZ 00406240 f   Box2D:b2World.obj
 0001:000052d0       ?Dump@b2World@@QAEXXZ      004062d0 f   Box2D:b2World.obj
 0001:00005420       ??$b2Abs@M@@YAMM@Z         00406420 f i Box2D:b2World.obj
 0001:00005430       ??$Query@Ub2WorldQueryWrapper@@@b2BroadPhase@@QBEXPAUb2WorldQueryWrapper@@ABUb2AABB@@@Z 00406430 f i Box2D:b2World.obj
 0001:00005440       ??$RayCast@Ub2WorldRayCastWrapper@@@b2BroadPhase@@QBEXPAUb2WorldRayCastWrapper@@ABUb2RayCastInput@@@Z 00406440 f i Box2D:b2World.obj
 0001:00005450       ??$Query@Ub2WorldQueryWrapper@@@b2DynamicTree@@QBEXPAUb2WorldQueryWrapper@@ABUb2AABB@@@Z 00406450 f i Box2D:b2World.obj
 0001:000055c0       ??$RayCast@Ub2WorldRayCastWrapper@@@b2DynamicTree@@QBEXPAUb2WorldRayCastWrapper@@ABUb2RayCastInput@@@Z 004065c0 f i Box2D:b2World.obj
 0001:00005a30       ??0b2AABB@@QAE@XZ          00406a30 f i Box2D:b2World.obj
 0001:00005a40       ??0?$b2GrowableStack@H$0BAA@@@QAE@XZ 00406a40 f i Box2D:b2World.obj
 0001:00005a60       ??1?$b2GrowableStack@H$0BAA@@@QAE@XZ 00406a60 f i Box2D:b2World.obj
 0001:00005a80       ?Push@?$b2GrowableStack@H$0BAA@@@QAEXABH@Z 00406a80 f i Box2D:b2World.obj
 0001:00005af0       ?Pop@?$b2GrowableStack@H$0BAA@@@QAEHXZ 00406af0 f i Box2D:b2World.obj
 0001:00005b10       ?GetCount@?$b2GrowableStack@H$0BAA@@@QAEHXZ 00406b10 f i Box2D:b2World.obj
 0001:00005b20       ??Gb2Vec2@@QBE?AU0@XZ      00406b20 f i Box2D:b2MouseJoint.obj
 0001:00005b50       ?LengthSquared@b2Vec2@@QBEMXZ 00406b50 f i Box2D:b2MouseJoint.obj
 0001:00005b70       ??0b2Mat22@@QAE@XZ         00406b70 f i Box2D:b2MouseJoint.obj
 0001:00005b80       ?GetInverse@b2Mat22@@QBE?AU1@XZ 00406b80 f i Box2D:b2MouseJoint.obj
 0001:00005c10       ??0b2Rot@@QAE@M@Z          00406c10 f i Box2D:b2MouseJoint.obj
 0001:00005c60       ?b2Mul@@YA?AUb2Vec2@@ABUb2Mat22@@ABU1@@Z 00406c60 f i Box2D:b2MouseJoint.obj
 0001:00005ca0       ?b2MulT@@YA?AUb2Vec2@@ABUb2Transform@@ABU1@@Z 00406ca0 f i Box2D:b2MouseJoint.obj
 0001:00005cf0       ?Dump@b2Joint@@UAEXXZ      00406cf0 f i Box2D:b2MouseJoint.obj
 0001:00005d00       ??1b2Joint@@MAE@XZ         00406d00 f i Box2D:b2MouseJoint.obj
 0001:00005d10       ??_Eb2Joint@@MAEPAXI@Z     00406d10 f i  CIL library: CIL module
 0001:00005d10       ??_Gb2Joint@@MAEPAXI@Z     00406d10 f i Box2D:b2MouseJoint.obj
 0001:00005d40       ?Dump@b2MouseJoint@@UAEXXZ 00406d40 f i Box2D:b2MouseJoint.obj
 0001:00005d50       ?GetMass@b2Body@@QBEMXZ    00406d50 f i Box2D:b2MouseJoint.obj
 0001:00005d60       ?GetWorldPoint@b2Body@@QBE?AUb2Vec2@@ABU2@@Z 00406d60 f i Box2D:b2MouseJoint.obj
 0001:00005dc0       ??0b2MouseJoint@@IAE@PBUb2MouseJointDef@@@Z 00406dc0 f   Box2D:b2MouseJoint.obj
 0001:00005e70       ??_Gb2MouseJoint@@UAEPAXI@Z 00406e70 f i Box2D:b2MouseJoint.obj
 0001:00005e70       ??_Eb2MouseJoint@@UAEPAXI@Z 00406e70 f i  CIL library: CIL module
 0001:00005ea0       ??1b2MouseJoint@@UAE@XZ    00406ea0 f i Box2D:b2MouseJoint.obj
 0001:00005eb0       ?SetTarget@b2MouseJoint@@QAEXABUb2Vec2@@@Z 00406eb0 f   Box2D:b2MouseJoint.obj
 0001:00005ef0       ?GetTarget@b2MouseJoint@@QBEABUb2Vec2@@XZ 00406ef0 f   Box2D:b2MouseJoint.obj
 0001:00005f00       ?SetMaxForce@b2MouseJoint@@QAEXM@Z 00406f00 f   Box2D:b2MouseJoint.obj
 0001:00005f10       ?GetMaxForce@b2MouseJoint@@QBEMXZ 00406f10 f   Box2D:b2MouseJoint.obj
 0001:00005f20       ?SetFrequency@b2MouseJoint@@QAEXM@Z 00406f20 f   Box2D:b2MouseJoint.obj
 0001:00005f30       ?GetFrequency@b2MouseJoint@@QBEMXZ 00406f30 f   Box2D:b2MouseJoint.obj
 0001:00005f40       ?SetDampingRatio@b2MouseJoint@@QAEXM@Z 00406f40 f   Box2D:b2MouseJoint.obj
 0001:00005f50       ?GetDampingRatio@b2MouseJoint@@QBEMXZ 00406f50 f   Box2D:b2MouseJoint.obj
 0001:00005f60       ?InitVelocityConstraints@b2MouseJoint@@MAEXABUb2SolverData@@@Z 00406f60 f   Box2D:b2MouseJoint.obj
 0001:00006300       ?SolveVelocityConstraints@b2MouseJoint@@MAEXABUb2SolverData@@@Z 00407300 f   Box2D:b2MouseJoint.obj
 0001:00006500       ?SolvePositionConstraints@b2MouseJoint@@MAE_NABUb2SolverData@@@Z 00407500 f   Box2D:b2MouseJoint.obj
 0001:00006510       ?GetAnchorA@b2MouseJoint@@UBE?AUb2Vec2@@XZ 00407510 f   Box2D:b2MouseJoint.obj
 0001:00006530       ?GetAnchorB@b2MouseJoint@@UBE?AUb2Vec2@@XZ 00407530 f   Box2D:b2MouseJoint.obj
 0001:00006580       ?GetReactionForce@b2MouseJoint@@UBE?AUb2Vec2@@M@Z 00407580 f   Box2D:b2MouseJoint.obj
 0001:000065b0       ?GetReactionTorque@b2MouseJoint@@UBEMM@Z 004075b0 f   Box2D:b2MouseJoint.obj
 0001:000065d0       ??Rb2Vec2@@QBEMH@Z         004075d0 f i Box2D:b2Collision.obj
 0001:000065e0       ??Rb2Vec2@@QAEAAMH@Z       004075e0 f i Box2D:b2Collision.obj
 0001:000065f0       ?b2DistanceSquared@@YAMABUb2Vec2@@0@Z 004075f0 f i Box2D:b2Collision.obj
 0001:00006610       ?Initialize@b2WorldManifold@@QAEXPBUb2Manifold@@ABUb2Transform@@M1M@Z 00407610 f   Box2D:b2Collision.obj
 0001:00006af0       ?b2GetPointStates@@YAXQAW4b2PointState@@0PBUb2Manifold@@1@Z 00407af0 f   Box2D:b2Collision.obj
 0001:00006be0       ?RayCast@b2AABB@@QBE_NPAUb2RayCastOutput@@ABUb2RayCastInput@@@Z 00407be0 f   Box2D:b2Collision.obj
 0001:00006d20       ?b2ClipSegmentToLine@@YAHQAUb2ClipVertex@@QBU1@ABUb2Vec2@@MH@Z 00407d20 f   Box2D:b2Collision.obj
 0001:00006e30       ?b2TestOverlap@@YA_NPBVb2Shape@@H0HABUb2Transform@@1@Z 00407e30 f   Box2D:b2Collision.obj
 0001:00006f00       ??0b2DistanceInput@@QAE@XZ 00407f00 f i Box2D:b2Collision.obj
 0001:00006f30       ??0b2DistanceOutput@@QAE@XZ 00407f30 f i Box2D:b2Collision.obj
 0001:00006f40       ??$b2Swap@M@@YAXAAM0@Z     00407f40 f i Box2D:b2Collision.obj
 0001:00006f50       ??0b2BlockAllocator@@QAE@XZ 00407f50 f   Box2D:b2BlockAllocator.obj
 0001:00007070       ??1b2BlockAllocator@@QAE@XZ 00408070 f   Box2D:b2BlockAllocator.obj
 0001:000070a0       ?Allocate@b2BlockAllocator@@QAEPAXH@Z 004080a0 f   Box2D:b2BlockAllocator.obj
 0001:000071d0       ?Free@b2BlockAllocator@@QAEXPAXH@Z 004081d0 f   Box2D:b2BlockAllocator.obj
 0001:00007210       ?Clear@b2BlockAllocator@@QAEXXZ 00408210 f   Box2D:b2BlockAllocator.obj
 0001:00007260       ?b2PairLessThan@@YA_NABUb2Pair@@0@Z 00408260 f i Box2D:b2ContactManager.obj
 0001:00007290       ?TestOverlap@b2BroadPhase@@QBE_NHH@Z 00408290 f i Box2D:b2ContactManager.obj
 0001:00007300       ??1b2ContactFilter@@UAE@XZ 00408300 f i Box2D:b2ContactManager.obj
 0001:00007310       ??_Eb2ContactFilter@@UAEPAXI@Z 00408310 f i  CIL library: CIL module
 0001:00007310       ??_Gb2ContactFilter@@UAEPAXI@Z 00408310 f i Box2D:b2ContactManager.obj
 0001:00007340       ??1b2ContactListener@@UAE@XZ 00408340 f i Box2D:b2ContactManager.obj
 0001:00007350       ?BeginContact@b2ContactListener@@UAEXPAVb2Contact@@@Z 00408350 f i Box2D:b2ContactManager.obj
 0001:00007360       ?EndContact@b2ContactListener@@UAEXPAVb2Contact@@@Z 00408360 f i Box2D:b2ContactManager.obj
 0001:00007370       ?PreSolve@b2ContactListener@@UAEXPAVb2Contact@@PBUb2Manifold@@@Z 00408370 f i Box2D:b2ContactManager.obj
 0001:00007380       ?PostSolve@b2ContactListener@@UAEXPAVb2Contact@@PBUb2ContactImpulse@@@Z 00408380 f i Box2D:b2ContactManager.obj
 0001:00007390       ??_Gb2ContactListener@@UAEPAXI@Z 00408390 f i Box2D:b2ContactManager.obj
 0001:00007390       ??_Eb2ContactListener@@UAEPAXI@Z 00408390 f i  CIL library: CIL module
 0001:000073c0       ??0b2ContactFilter@@QAE@XZ 004083c0 f i Box2D:b2ContactManager.obj
 0001:000073d0       ??0b2ContactListener@@QAE@XZ 004083d0 f i Box2D:b2ContactManager.obj
 0001:000073e0       ??0b2ContactManager@@QAE@XZ 004083e0 f   Box2D:b2ContactManager.obj
 0001:00007450       ?Destroy@b2ContactManager@@QAEXPAVb2Contact@@@Z 00408450 f   Box2D:b2ContactManager.obj
 0001:00007510       ?Collide@b2ContactManager@@QAEXXZ 00408510 f   Box2D:b2ContactManager.obj
 0001:00007690       ?FindNewContacts@b2ContactManager@@QAEXXZ 00408690 f   Box2D:b2ContactManager.obj
 0001:000076a0       ?AddPair@b2ContactManager@@QAEXPAX0@Z 004086a0 f   Box2D:b2ContactManager.obj
 0001:00007830       ??$UpdatePairs@Vb2ContactManager@@@b2BroadPhase@@QAEXPAVb2ContactManager@@@Z 00408830 f i Box2D:b2ContactManager.obj
 0001:00007920       ??$Query@Vb2BroadPhase@@@b2DynamicTree@@QBEXPAVb2BroadPhase@@ABUb2AABB@@@Z 00408920 f i Box2D:b2ContactManager.obj
 0001:00007a50       ??$sort@PAUb2Pair@@P6A_NABU1@0@Z@std@@YAXPAUb2Pair@@0P6A_NABU1@1@Z@Z 00408a50 f i Box2D:b2ContactManager.obj
 0001:00007a80       ??$_Unchecked@PAUb2Pair@@@std@@YAPAUb2Pair@@PAU1@@Z 00408a80 f i Box2D:b2ContactManager.obj
 0001:00007a90       ??$_Sort@PAUb2Pair@@HP6A_NABU1@0@Z@std@@YAXPAUb2Pair@@0HP6A_NABU1@1@Z@Z 00408a90 f i Box2D:b2ContactManager.obj
 0001:00007bd0       ??$_Unguarded_partition@PAUb2Pair@@P6A_NABU1@0@Z@std@@YA?AU?$pair@PAUb2Pair@@PAU1@@0@PAUb2Pair@@0P6A_NABU2@1@Z@Z 00408bd0 f i Box2D:b2ContactManager.obj
 0001:00007e40       ??$make_heap@PAUb2Pair@@P6A_NABU1@0@Z@std@@YAXPAUb2Pair@@0P6A_NABU1@1@Z@Z 00408e40 f i Box2D:b2ContactManager.obj
 0001:00007e80       ??$sort_heap@PAUb2Pair@@P6A_NABU1@0@Z@std@@YAXPAUb2Pair@@0P6A_NABU1@1@Z@Z 00408e80 f i Box2D:b2ContactManager.obj
 0001:00007e90       ??$_Insertion_sort@PAUb2Pair@@P6A_NABU1@0@Z@std@@YAXPAUb2Pair@@0P6A_NABU1@1@Z@Z 00408e90 f i Box2D:b2ContactManager.obj
 0001:00007eb0       ??$_Median@PAUb2Pair@@P6A_NABU1@0@Z@std@@YAXPAUb2Pair@@00P6A_NABU1@1@Z@Z 00408eb0 f i Box2D:b2ContactManager.obj
 0001:00007f70       ??$iter_swap@PAUb2Pair@@PAU1@@std@@YAXPAUb2Pair@@0@Z 00408f70 f i Box2D:b2ContactManager.obj
 0001:00007f90       ??$?0AAPAUb2Pair@@AAPAU0@@?$pair@PAUb2Pair@@PAU1@@std@@QAE@AAPAUb2Pair@@0PAPAX@Z 00408f90 f i Box2D:b2ContactManager.obj
 0001:00007fb0       ??$_Dist_type@PAUb2Pair@@@std@@YAPAHPAUb2Pair@@@Z 00408fb0 f i Box2D:b2ContactManager.obj
 0001:00007fc0       ??$_Val_type@PAUb2Pair@@@std@@YAPAUb2Pair@@PAU1@@Z 00408fc0 f i Box2D:b2ContactManager.obj
 0001:00007fd0       ??$_Make_heap@PAUb2Pair@@HU1@P6A_NABU1@0@Z@std@@YAXPAUb2Pair@@0P6A_NABU1@1@ZPAH0@Z 00408fd0 f i Box2D:b2ContactManager.obj
 0001:000080f0       ??$_Sort_heap@PAUb2Pair@@P6A_NABU1@0@Z@std@@YAXPAUb2Pair@@0P6A_NABU1@1@Z@Z 004090f0 f i Box2D:b2ContactManager.obj
 0001:000081b0       ??$_Insertion_sort1@PAUb2Pair@@P6A_NABU1@0@ZU1@@std@@YAXPAUb2Pair@@0P6A_NABU1@1@Z0@Z 004091b0 f i Box2D:b2ContactManager.obj
 0001:000082c0       ??$_Med3@PAUb2Pair@@P6A_NABU1@0@Z@std@@YAXPAUb2Pair@@00P6A_NABU1@1@Z@Z 004092c0 f i Box2D:b2ContactManager.obj
 0001:00008350       ??$swap@Ub2Pair@@@std@@YAXAAUb2Pair@@0@Z 00409350 f i Box2D:b2ContactManager.obj
 0001:00008370       ??$forward@AAPAUb2Pair@@@std@@YAAAPAUb2Pair@@AAPAU1@@Z 00409370 f i Box2D:b2ContactManager.obj
 0001:00008380       ??$_Move@AAUb2Pair@@@std@@YA$$QAUb2Pair@@AAU1@@Z 00409380 f i Box2D:b2ContactManager.obj
 0001:00008390       ??$_Adjust_heap@PAUb2Pair@@HU1@P6A_NABU1@0@Z@std@@YAXPAUb2Pair@@HH$$QAU1@P6A_NABU1@2@Z@Z 00409390 f i Box2D:b2ContactManager.obj
 0001:00008480       ??$_Pop_heap@PAUb2Pair@@P6A_NABU1@0@Z@std@@YAXPAUb2Pair@@0P6A_NABU1@1@Z@Z 00409480 f i Box2D:b2ContactManager.obj
 0001:000084f0       ??$_Move_backward@PAUb2Pair@@PAU1@@std@@YAPAUb2Pair@@PAU1@00@Z 004094f0 f i Box2D:b2ContactManager.obj
 0001:00008520       ??$_Push_heap@PAUb2Pair@@HU1@P6A_NABU1@0@Z@std@@YAXPAUb2Pair@@HH$$QAU1@P6A_NABU1@2@Z@Z 00409520 f i Box2D:b2ContactManager.obj
 0001:000085a0       ??$_Pop_heap_0@PAUb2Pair@@U1@P6A_NABU1@0@Z@std@@YAXPAUb2Pair@@0P6A_NABU1@1@Z0@Z 004095a0 f i Box2D:b2ContactManager.obj
 0001:00008610       ??$_Ptr_cat@Ub2Pair@@U1@@std@@YA?AU_Nonscalar_ptr_iterator_tag@0@PAUb2Pair@@0@Z 00409610 f i Box2D:b2ContactManager.obj
 0001:00008620       ??$_Move_backward@PAUb2Pair@@PAU1@@std@@YAPAUb2Pair@@PAU1@00U_Nonscalar_ptr_iterator_tag@0@@Z 00409620 f i Box2D:b2ContactManager.obj
 0001:00008650       ??$_Pop_heap@PAUb2Pair@@HU1@P6A_NABU1@0@Z@std@@YAXPAUb2Pair@@00$$QAU1@P6A_NABU1@2@ZPAH@Z 00409650 f i Box2D:b2ContactManager.obj
 0001:00008690       ??$move@AAUb2Pair@@@std@@YA$$QAUb2Pair@@AAU1@@Z 00409690 f i Box2D:b2ContactManager.obj
 0001:000086a0       ??0b2Vec3@@QAE@XZ          004096a0 f i Box2D:b2Math.obj
 0001:000086b0       ??0b2Vec3@@QAE@MMM@Z       004096b0 f i Box2D:b2Math.obj
 0001:000086d0       ?b2Dot@@YAMABUb2Vec3@@0@Z  004096d0 f i Box2D:b2Math.obj
 0001:00008700       ?b2Cross@@YA?AUb2Vec3@@ABU1@0@Z 00409700 f i Box2D:b2Math.obj
 0001:00008760       ?Solve33@b2Mat33@@QBE?AUb2Vec3@@ABU2@@Z 00409760 f   Box2D:b2Math.obj
 0001:00008910       ?Solve22@b2Mat33@@QBE?AUb2Vec2@@ABU2@@Z 00409910 f   Box2D:b2Math.obj
 0001:000089a0       ?GetInverse22@b2Mat33@@QBEXPAU1@@Z 004099a0 f   Box2D:b2Math.obj
 0001:00008a50       ?GetSymInverse33@b2Mat33@@QBEXPAU1@@Z 00409a50 f   Box2D:b2Math.obj
 0001:00008bb0       ?Combine@b2AABB@@QAEXABU1@0@Z 00409bb0 f i Box2D:b2Fixture.obj
 0001:00008c40       ?GetWorld@b2Body@@QAEPAVb2World@@XZ 00409c40 f i Box2D:b2Fixture.obj
 0001:00008c50       ??0b2Fixture@@IAE@XZ       00409c50 f   Box2D:b2Fixture.obj
 0001:00008c80       ?Create@b2Fixture@@IAEXPAVb2BlockAllocator@@PAVb2Body@@PBUb2FixtureDef@@@Z 00409c80 f   Box2D:b2Fixture.obj
 0001:00008d30       ?Destroy@b2Fixture@@IAEXPAVb2BlockAllocator@@@Z 00409d30 f   Box2D:b2Fixture.obj
 0001:00008e00       ?CreateProxies@b2Fixture@@IAEXPAVb2BroadPhase@@ABUb2Transform@@@Z 00409e00 f   Box2D:b2Fixture.obj
 0001:00008f60       ?DestroyProxies@b2Fixture@@IAEXPAVb2BroadPhase@@@Z 00409f60 f   Box2D:b2Fixture.obj
 0001:00009020       ?Synchronize@b2Fixture@@IAEXPAVb2BroadPhase@@ABUb2Transform@@1@Z 0040a020 f   Box2D:b2Fixture.obj
 0001:000091c0       ?SetFilterData@b2Fixture@@QAEXABUb2Filter@@@Z 0040a1c0 f   Box2D:b2Fixture.obj
 0001:000091e0       ?Refilter@b2Fixture@@QAEXXZ 0040a1e0 f   Box2D:b2Fixture.obj
 0001:000092d0       ?SetSensor@b2Fixture@@QAEX_N@Z 0040a2d0 f   Box2D:b2Fixture.obj
 0001:00009300       ?Dump@b2Fixture@@QAEXH@Z   0040a300 f   Box2D:b2Fixture.obj
 0001:00009680       ?b2Alloc@@YAPAXH@Z         0040a680 f   Box2D:b2Settings.obj
 0001:00009690       ?b2Free@@YAXPAX@Z          0040a690 f   Box2D:b2Settings.obj
 0001:000096a0       ?b2Log@@YAXPBDZZ           0040a6a0 f   Box2D:b2Settings.obj
 0001:000096c0       ?Create@b2Joint@@KAPAV1@PBUb2JointDef@@PAVb2BlockAllocator@@@Z 0040a6c0 f   Box2D:b2Joint.obj
 0001:00009850       ?Destroy@b2Joint@@KAXPAV1@PAVb2BlockAllocator@@@Z 0040a850 f   Box2D:b2Joint.obj
 0001:00009960       ??0b2Joint@@IAE@PBUb2JointDef@@@Z 0040a960 f   Box2D:b2Joint.obj
 0001:000099e0       ?IsActive@b2Joint@@QBE_NXZ 0040a9e0 f   Box2D:b2Joint.obj
 0001:00009a00       ?b2MixFriction@@YAMMM@Z    0040aa00 f i Box2D:b2Contact.obj
 0001:00009a20       ?b2MixRestitution@@YAMMM@Z 0040aa20 f i Box2D:b2Contact.obj
 0001:00009a30       ??1b2Contact@@MAE@XZ       0040aa30 f i Box2D:b2Contact.obj
 0001:00009a40       ??_Eb2Contact@@MAEPAXI@Z   0040aa40 f i  CIL library: CIL module
 0001:00009a40       ??_Gb2Contact@@MAEPAXI@Z   0040aa40 f i Box2D:b2Contact.obj
 0001:00009a70       ??0b2Manifold@@QAE@XZ      0040aa70 f i Box2D:b2Contact.obj
 0001:00009a80       ??0b2ManifoldPoint@@QAE@XZ 0040aa80 f i Box2D:b2Contact.obj
 0001:00009a90       ?InitializeRegisters@b2Contact@@KAXXZ 0040aa90 f   Box2D:b2Contact.obj
 0001:00009be0       ?AddType@b2Contact@@KAXP6APAV1@PAVb2Fixture@@H0HPAVb2BlockAllocator@@@ZP6AXPAV1@1@ZW4Type@b2Shape@@5@Z 0040abe0 f   Box2D:b2Contact.obj
 0001:00009c30       ?Create@b2Contact@@KAPAV1@PAVb2Fixture@@H0HPAVb2BlockAllocator@@@Z 0040ac30 f   Box2D:b2Contact.obj
 0001:00009ca0       ?Destroy@b2Contact@@KAXPAV1@PAVb2BlockAllocator@@@Z 0040aca0 f   Box2D:b2Contact.obj
 0001:00009d10       ??0b2Contact@@IAE@PAVb2Fixture@@H0H@Z 0040ad10 f   Box2D:b2Contact.obj
 0001:00009de0       ?Update@b2Contact@@IAEXPAVb2ContactListener@@@Z 0040ade0 f   Box2D:b2Contact.obj
 0001:00009fa0       _floorf                    0040afa0 f i Box2D:b2TimeOfImpact.obj
 0001:00009fd0       ??Zb2Vec2@@QAEXABU0@@Z     0040afd0 f i Box2D:b2TimeOfImpact.obj
 0001:0000a000       ?GetTransform@b2Sweep@@QBEXPAUb2Transform@@M@Z 0040b000 f i Box2D:b2TimeOfImpact.obj
 0001:0000a100       ?Normalize@b2Sweep@@QAEXXZ 0040b100 f i Box2D:b2TimeOfImpact.obj
 0001:0000a170       ?GetVertex@b2DistanceProxy@@QBEABUb2Vec2@@H@Z 0040b170 f i Box2D:b2TimeOfImpact.obj
 0001:0000a180       ?GetSupport@b2DistanceProxy@@QBEHABUb2Vec2@@@Z 0040b180 f i Box2D:b2TimeOfImpact.obj
 0001:0000a1f0       ?Initialize@b2SeparationFunction@@QAEMPBUb2SimplexCache@@PBUb2DistanceProxy@@ABUb2Sweep@@12M@Z 0040b1f0 f i Box2D:b2TimeOfImpact.obj
 0001:0000aa50       ?FindMinSeparation@b2SeparationFunction@@QBEMPAH0M@Z 0040ba50 f i Box2D:b2TimeOfImpact.obj
 0001:0000b190       ?Evaluate@b2SeparationFunction@@QBEMHHM@Z 0040c190 f i Box2D:b2TimeOfImpact.obj
 0001:0000b630       ?b2TimeOfImpact@@YAXPAUb2TOIOutput@@PBUb2TOIInput@@@Z 0040c630 f   Box2D:b2TimeOfImpact.obj
 0001:0000c120       ??0b2SeparationFunction@@QAE@XZ 0040d120 f i Box2D:b2TimeOfImpact.obj
 0001:0000c130       ??$b2Max@H@@YAHHH@Z        0040d130 f i Box2D:b2TimeOfImpact.obj
 0001:0000c140       ?GetLocalPoint@b2Body@@QBE?AUb2Vec2@@ABU2@@Z 0040d140 f i Box2D:b2PulleyJoint.obj
 0001:0000c1a0       ?Initialize@b2PulleyJointDef@@QAEXPAVb2Body@@0ABUb2Vec2@@111M@Z 0040d1a0 f   Box2D:b2PulleyJoint.obj
 0001:0000c310       ??0b2PulleyJoint@@IAE@PBUb2PulleyJointDef@@@Z 0040d310 f   Box2D:b2PulleyJoint.obj
 0001:0000c390       ??_Eb2PulleyJoint@@UAEPAXI@Z 0040d390 f i  CIL library: CIL module
 0001:0000c390       ??_Gb2PulleyJoint@@UAEPAXI@Z 0040d390 f i Box2D:b2PulleyJoint.obj
 0001:0000c3c0       ??1b2PulleyJoint@@UAE@XZ   0040d3c0 f i Box2D:b2PulleyJoint.obj
 0001:0000c3d0       ?InitVelocityConstraints@b2PulleyJoint@@MAEXABUb2SolverData@@@Z 0040d3d0 f   Box2D:b2PulleyJoint.obj
 0001:0000c9b0       ?SolveVelocityConstraints@b2PulleyJoint@@MAEXABUb2SolverData@@@Z 0040d9b0 f   Box2D:b2PulleyJoint.obj
 0001:0000cc30       ?SolvePositionConstraints@b2PulleyJoint@@MAE_NABUb2SolverData@@@Z 0040dc30 f   Box2D:b2PulleyJoint.obj
 0001:0000d070       ?GetAnchorA@b2PulleyJoint@@UBE?AUb2Vec2@@XZ 0040e070 f   Box2D:b2PulleyJoint.obj
 0001:0000d0c0       ?GetAnchorB@b2PulleyJoint@@UBE?AUb2Vec2@@XZ 0040e0c0 f   Box2D:b2PulleyJoint.obj
 0001:0000d110       ?GetReactionForce@b2PulleyJoint@@UBE?AUb2Vec2@@M@Z 0040e110 f   Box2D:b2PulleyJoint.obj
 0001:0000d150       ?GetReactionTorque@b2PulleyJoint@@UBEMM@Z 0040e150 f   Box2D:b2PulleyJoint.obj
 0001:0000d160       ?GetGroundAnchorA@b2PulleyJoint@@QBE?AUb2Vec2@@XZ 0040e160 f   Box2D:b2PulleyJoint.obj
 0001:0000d180       ?GetGroundAnchorB@b2PulleyJoint@@QBE?AUb2Vec2@@XZ 0040e180 f   Box2D:b2PulleyJoint.obj
 0001:0000d1a0       ?GetLengthA@b2PulleyJoint@@QBEMXZ 0040e1a0 f   Box2D:b2PulleyJoint.obj
 0001:0000d220       ?GetLengthB@b2PulleyJoint@@QBEMXZ 0040e220 f   Box2D:b2PulleyJoint.obj
 0001:0000d2a0       ?GetRatio@b2PulleyJoint@@QBEMXZ 0040e2a0 f   Box2D:b2PulleyJoint.obj
 0001:0000d2b0       ?Dump@b2PulleyJoint@@UAEXXZ 0040e2b0 f   Box2D:b2PulleyJoint.obj
 0001:0000d400       ?b2Distance@@YAMABUb2Vec2@@0@Z 0040e400 f i Box2D:b2Distance.obj
 0001:0000d440       ?Set@b2DistanceProxy@@QAEXPBVb2Shape@@H@Z 0040e440 f   Box2D:b2Distance.obj
 0001:0000d520       ?ReadCache@b2Simplex@@QAEXPBUb2SimplexCache@@PBUb2DistanceProxy@@ABUb2Transform@@12@Z 0040e520 f i Box2D:b2Distance.obj
 0001:0000d8a0       ?WriteCache@b2Simplex@@QBEXPAUb2SimplexCache@@@Z 0040e8a0 f i Box2D:b2Distance.obj
 0001:0000d970       ?GetSearchDirection@b2Simplex@@QBE?AUb2Vec2@@XZ 0040e970 f i Box2D:b2Distance.obj
 0001:0000da30       ?GetClosestPoint@b2Simplex@@QBE?AUb2Vec2@@XZ 0040ea30 f i Box2D:b2Distance.obj
 0001:0000dac0       ?GetWitnessPoints@b2Simplex@@QBEXPAUb2Vec2@@0@Z 0040eac0 f i Box2D:b2Distance.obj
 0001:0000dc10       ?GetMetric@b2Simplex@@QBEMXZ 0040ec10 f i Box2D:b2Distance.obj
 0001:0000dcb0       ?Solve2@b2Simplex@@QAEXXZ  0040ecb0 f   Box2D:b2Distance.obj
 0001:0000dda0       ?Solve3@b2Simplex@@QAEXXZ  0040eda0 f   Box2D:b2Distance.obj
 0001:0000e130       ?b2Distance@@YAXPAUb2DistanceOutput@@PAUb2SimplexCache@@PBUb2DistanceInput@@@Z 0040f130 f   Box2D:b2Distance.obj
 0001:0000e8e0       ??0b2Simplex@@QAE@XZ       0040f8e0 f i Box2D:b2Distance.obj
 0001:0000e8f0       ??0b2SimplexVertex@@QAE@XZ 0040f8f0 f i Box2D:b2Distance.obj
 0001:0000e900       ??0b2BroadPhase@@QAE@XZ    0040f900 f   Box2D:b2BroadPhase.obj
 0001:0000e950       ??1b2BroadPhase@@QAE@XZ    0040f950 f   Box2D:b2BroadPhase.obj
 0001:0000e970       ?CreateProxy@b2BroadPhase@@QAEHABUb2AABB@@PAX@Z 0040f970 f   Box2D:b2BroadPhase.obj
 0001:0000ea60       ?DestroyProxy@b2BroadPhase@@QAEXH@Z 0040fa60 f   Box2D:b2BroadPhase.obj
 0001:0000ead0       ?MoveProxy@b2BroadPhase@@QAEXHABUb2AABB@@ABUb2Vec2@@@Z 0040fad0 f   Box2D:b2BroadPhase.obj
 0001:0000eb40       ?TouchProxy@b2BroadPhase@@QAEXH@Z 0040fb40 f   Box2D:b2BroadPhase.obj
 0001:0000eba0       ?BufferMove@b2BroadPhase@@AAEXH@Z 0040fba0 f   Box2D:b2BroadPhase.obj
 0001:0000ec00       ?UnBufferMove@b2BroadPhase@@AAEXH@Z 0040fc00 f   Box2D:b2BroadPhase.obj
 0001:0000ec40       ?QueryCallback@b2BroadPhase@@AAE_NH@Z 0040fc40 f   Box2D:b2BroadPhase.obj
 0001:0000ecc0       ??$b2Min@H@@YAHHH@Z        0040fcc0 f i Box2D:b2BroadPhase.obj
 0001:0000ecd0       ??0b2Island@@QAE@HHHPAVb2StackAllocator@@PAVb2ContactListener@@@Z 0040fcd0 f   Box2D:b2Island.obj
 0001:0000ed70       ??1b2Island@@QAE@XZ        0040fd70 f   Box2D:b2Island.obj
 0001:0000eee0       ?Solve@b2Island@@QAEXPAUb2Profile@@ABUb2TimeStep@@ABUb2Vec2@@_N@Z 0040fee0 f   Box2D:b2Island.obj
 0001:0000f800       ?SolveTOI@b2Island@@QAEXABUb2TimeStep@@HH@Z 00410800 f   Box2D:b2Island.obj
 0001:0000fc50       ?Report@b2Island@@QAEXPBUb2ContactVelocityConstraint@@@Z 00410c50 f   Box2D:b2Island.obj
 0001:0000fd50       ??$b2Clamp@M@@YAMMMM@Z     00410d50 f i Box2D:b2Island.obj
 0001:0000fd70       ??1b2Draw@@UAE@XZ          00410d70 f i Box2D:b2Draw.obj
 0001:0000fd80       ??_Gb2Draw@@UAEPAXI@Z      00410d80 f i Box2D:b2Draw.obj
 0001:0000fd80       ??_Eb2Draw@@UAEPAXI@Z      00410d80 f i  CIL library: CIL module
 0001:0000fdb0       ??0b2Draw@@QAE@XZ          00410db0 f   Box2D:b2Draw.obj
 0001:0000fdc0       ?SetFlags@b2Draw@@QAEXI@Z  00410dc0 f   Box2D:b2Draw.obj
 0001:0000fdd0       ?GetFlags@b2Draw@@QBEIXZ   00410dd0 f   Box2D:b2Draw.obj
 0001:0000fde0       ?AppendFlags@b2Draw@@QAEXI@Z 00410de0 f   Box2D:b2Draw.obj
 0001:0000fdf0       ?ClearFlags@b2Draw@@QAEXI@Z 00410df0 f   Box2D:b2Draw.obj
 0001:0000fe00       ?GetPerimeter@b2AABB@@QBEMXZ 00410e00 f i Box2D:b2DynamicTree.obj
 0001:0000fe20       ?Contains@b2AABB@@QBE_NABU1@@Z 00410e20 f i Box2D:b2DynamicTree.obj
 0001:0000fe60       ??0b2DynamicTree@@QAE@XZ   00410e60 f   Box2D:b2DynamicTree.obj
 0001:0000ff00       ??1b2DynamicTree@@QAE@XZ   00410f00 f   Box2D:b2DynamicTree.obj
 0001:0000ff10       ?AllocateNode@b2DynamicTree@@AAEHXZ 00410f10 f   Box2D:b2DynamicTree.obj
 0001:0000ffe0       ?FreeNode@b2DynamicTree@@AAEXH@Z 00410fe0 f   Box2D:b2DynamicTree.obj
 0001:00010010       ?CreateProxy@b2DynamicTree@@QAEHABUb2AABB@@PAX@Z 00411010 f   Box2D:b2DynamicTree.obj
 0001:000100b0       ?DestroyProxy@b2DynamicTree@@QAEXH@Z 004110b0 f   Box2D:b2DynamicTree.obj
 0001:000100f0       ?MoveProxy@b2DynamicTree@@QAE_NHABUb2AABB@@ABUb2Vec2@@@Z 004110f0 f   Box2D:b2DynamicTree.obj
 0001:00010240       ?InsertLeaf@b2DynamicTree@@AAEXH@Z 00411240 f   Box2D:b2DynamicTree.obj
 0001:00010700       ?RemoveLeaf@b2DynamicTree@@AAEXH@Z 00411700 f   Box2D:b2DynamicTree.obj
 0001:00010880       ?Balance@b2DynamicTree@@AAEHH@Z 00411880 f   Box2D:b2DynamicTree.obj
 0001:00010cc0       ?GetHeight@b2DynamicTree@@QBEHXZ 00411cc0 f   Box2D:b2DynamicTree.obj
 0001:00010ce0       ?GetAreaRatio@b2DynamicTree@@QBEMXZ 00411ce0 f   Box2D:b2DynamicTree.obj
 0001:00010d60       ?ComputeHeight@b2DynamicTree@@ABEHH@Z 00411d60 f   Box2D:b2DynamicTree.obj
 0001:00010db0       ?ComputeHeight@b2DynamicTree@@ABEHXZ 00411db0 f   Box2D:b2DynamicTree.obj
 0001:00010df0       ?ValidateStructure@b2DynamicTree@@ABEXH@Z 00411df0 f   Box2D:b2DynamicTree.obj
 0001:00010e30       ?ValidateMetrics@b2DynamicTree@@ABEXH@Z 00411e30 f   Box2D:b2DynamicTree.obj
 0001:00010e70       ?Validate@b2DynamicTree@@QBEXXZ 00411e70 f   Box2D:b2DynamicTree.obj
 0001:00010e90       ?GetMaxBalance@b2DynamicTree@@QBEHXZ 00411e90 f   Box2D:b2DynamicTree.obj
 0001:00010ee0       ?RebuildBottomUp@b2DynamicTree@@QAEXXZ 00411ee0 f   Box2D:b2DynamicTree.obj
 0001:000111b0       ??$b2Abs@H@@YAHH@Z         004121b0 f i Box2D:b2DynamicTree.obj
 0001:000111c0       ??0b2StackAllocator@@QAE@XZ 004121c0 f   Box2D:b2StackAllocator.obj
 0001:000111f0       ??1b2StackAllocator@@QAE@XZ 004121f0 f   Box2D:b2StackAllocator.obj
 0001:00011200       ?Allocate@b2StackAllocator@@QAEPAXH@Z 00412200 f   Box2D:b2StackAllocator.obj
 0001:00011280       ?Free@b2StackAllocator@@QAEXPAX@Z 00412280 f   Box2D:b2StackAllocator.obj
 0001:000112d0       ?GetMaxAllocation@b2StackAllocator@@QBEHXZ 004122d0 f   Box2D:b2StackAllocator.obj
 0001:000112e0       ??0b2Timer@@QAE@XZ         004122e0 f   Box2D:b2Timer.obj
 0001:00011350       ?Reset@b2Timer@@QAEXXZ     00412350 f   Box2D:b2Timer.obj
 0001:00011370       ?GetMilliseconds@b2Timer@@QBEMXZ 00412370 f   Box2D:b2Timer.obj
 0001:000113b0       ?GetFilterData@b2Fixture@@QBEABUb2Filter@@XZ 004123b0 f i Box2D:b2WorldCallbacks.obj
 0001:000113c0       ?ShouldCollide@b2ContactFilter@@UAE_NPAVb2Fixture@@0@Z 004123c0 f   Box2D:b2WorldCallbacks.obj
 0001:00011410       ?SetZero@b2Vec3@@QAEXXZ    00412410 f i Box2D:b2WeldJoint.obj
 0001:00011430       ?Set@b2Vec3@@QAEXMMM@Z     00412430 f i Box2D:b2WeldJoint.obj
 0001:00011440       ??Gb2Vec3@@QBE?AU0@XZ      00412440 f i Box2D:b2WeldJoint.obj
 0001:00011480       ??Yb2Vec3@@QAEXABU0@@Z     00412480 f i Box2D:b2WeldJoint.obj
 0001:000114c0       ??Xb2Vec3@@QAEXM@Z         004124c0 f i Box2D:b2WeldJoint.obj
 0001:000114f0       ??0b2Mat33@@QAE@XZ         004124f0 f i Box2D:b2WeldJoint.obj
 0001:00011500       ??D@YA?AUb2Vec3@@MABU0@@Z  00412500 f i Box2D:b2WeldJoint.obj
 0001:00011530       ??H@YA?AUb2Vec3@@ABU0@0@Z  00412530 f i Box2D:b2WeldJoint.obj
 0001:00011570       ?b2Mul@@YA?AUb2Vec3@@ABUb2Mat33@@ABU1@@Z 00412570 f i Box2D:b2WeldJoint.obj
 0001:00011610       ?b2Mul22@@YA?AUb2Vec2@@ABUb2Mat33@@ABU1@@Z 00412610 f i Box2D:b2WeldJoint.obj
 0001:00011650       ?GetAngle@b2Body@@QBEMXZ   00412650 f i Box2D:b2WeldJoint.obj
 0001:00011660       ?Initialize@b2WeldJointDef@@QAEXPAVb2Body@@0ABUb2Vec2@@@Z 00412660 f   Box2D:b2WeldJoint.obj
 0001:00011730       ??0b2WeldJoint@@IAE@PBUb2WeldJointDef@@@Z 00412730 f   Box2D:b2WeldJoint.obj
 0001:00011790       ??_Eb2WeldJoint@@UAEPAXI@Z 00412790 f i  CIL library: CIL module
 0001:00011790       ??_Gb2WeldJoint@@UAEPAXI@Z 00412790 f i Box2D:b2WeldJoint.obj
 0001:000117c0       ??1b2WeldJoint@@UAE@XZ     004127c0 f i Box2D:b2WeldJoint.obj
 0001:000117d0       ?InitVelocityConstraints@b2WeldJoint@@MAEXABUb2SolverData@@@Z 004127d0 f   Box2D:b2WeldJoint.obj
 0001:00011f00       ?SolveVelocityConstraints@b2WeldJoint@@MAEXABUb2SolverData@@@Z 00412f00 f   Box2D:b2WeldJoint.obj
 0001:000123c0       ?SolvePositionConstraints@b2WeldJoint@@MAE_NABUb2SolverData@@@Z 004133c0 f   Box2D:b2WeldJoint.obj
 0001:00012ad0       ?GetAnchorA@b2WeldJoint@@UBE?AUb2Vec2@@XZ 00413ad0 f   Box2D:b2WeldJoint.obj
 0001:00012b20       ?GetAnchorB@b2WeldJoint@@UBE?AUb2Vec2@@XZ 00413b20 f   Box2D:b2WeldJoint.obj
 0001:00012b70       ?GetReactionForce@b2WeldJoint@@UBE?AUb2Vec2@@M@Z 00413b70 f   Box2D:b2WeldJoint.obj
 0001:00012ba0       ?GetReactionTorque@b2WeldJoint@@UBEMM@Z 00413ba0 f   Box2D:b2WeldJoint.obj
 0001:00012bc0       ?Dump@b2WeldJoint@@UAEXXZ  00413bc0 f   Box2D:b2WeldJoint.obj
 0001:00012cc0       ?Solve@b2Mat22@@QBE?AUb2Vec2@@ABU2@@Z 00413cc0 f i Box2D:b2PrismaticJoint.obj
 0001:00012d50       ??G@YA?AUb2Vec3@@ABU0@0@Z  00413d50 f i Box2D:b2PrismaticJoint.obj
 0001:00012d90       ?GetWorldVector@b2Body@@QBE?AUb2Vec2@@ABU2@@Z 00413d90 f i Box2D:b2PrismaticJoint.obj
 0001:00012de0       ?GetLocalVector@b2Body@@QBE?AUb2Vec2@@ABU2@@Z 00413de0 f i Box2D:b2PrismaticJoint.obj
 0001:00012e30       ?Initialize@b2PrismaticJointDef@@QAEXPAVb2Body@@0ABUb2Vec2@@1@Z 00413e30 f   Box2D:b2PrismaticJoint.obj
 0001:00012f50       ??0b2PrismaticJoint@@IAE@PBUb2PrismaticJointDef@@@Z 00413f50 f   Box2D:b2PrismaticJoint.obj
 0001:000130d0       ??_Eb2PrismaticJoint@@UAEPAXI@Z 004140d0 f i  CIL library: CIL module
 0001:000130d0       ??_Gb2PrismaticJoint@@UAEPAXI@Z 004140d0 f i Box2D:b2PrismaticJoint.obj
 0001:00013100       ??1b2PrismaticJoint@@UAE@XZ 00414100 f i Box2D:b2PrismaticJoint.obj
 0001:00013110       ?InitVelocityConstraints@b2PrismaticJoint@@MAEXABUb2SolverData@@@Z 00414110 f   Box2D:b2PrismaticJoint.obj
 0001:000138a0       ?SolveVelocityConstraints@b2PrismaticJoint@@MAEXABUb2SolverData@@@Z 004148a0 f   Box2D:b2PrismaticJoint.obj
 0001:00014150       ?SolvePositionConstraints@b2PrismaticJoint@@MAE_NABUb2SolverData@@@Z 00415150 f   Box2D:b2PrismaticJoint.obj
 0001:00014a20       ?GetAnchorA@b2PrismaticJoint@@UBE?AUb2Vec2@@XZ 00415a20 f   Box2D:b2PrismaticJoint.obj
 0001:00014a70       ?GetAnchorB@b2PrismaticJoint@@UBE?AUb2Vec2@@XZ 00415a70 f   Box2D:b2PrismaticJoint.obj
 0001:00014ac0       ?GetReactionForce@b2PrismaticJoint@@UBE?AUb2Vec2@@M@Z 00415ac0 f   Box2D:b2PrismaticJoint.obj
 0001:00014b20       ?GetReactionTorque@b2PrismaticJoint@@UBEMM@Z 00415b20 f   Box2D:b2PrismaticJoint.obj
 0001:00014b40       ?GetJointTranslation@b2PrismaticJoint@@QBEMXZ 00415b40 f   Box2D:b2PrismaticJoint.obj
 0001:00014c00       ?GetJointSpeed@b2PrismaticJoint@@QBEMXZ 00415c00 f   Box2D:b2PrismaticJoint.obj
 0001:00014db0       ?IsLimitEnabled@b2PrismaticJoint@@QBE_NXZ 00415db0 f   Box2D:b2PrismaticJoint.obj
 0001:00014dc0       ?EnableLimit@b2PrismaticJoint@@QAEX_N@Z 00415dc0 f   Box2D:b2PrismaticJoint.obj
 0001:00014e20       ?GetLowerLimit@b2PrismaticJoint@@QBEMXZ 00415e20 f   Box2D:b2PrismaticJoint.obj
 0001:00014e30       ?GetUpperLimit@b2PrismaticJoint@@QBEMXZ 00415e30 f   Box2D:b2PrismaticJoint.obj
 0001:00014e40       ?SetLimits@b2PrismaticJoint@@QAEXMM@Z 00415e40 f   Box2D:b2PrismaticJoint.obj
 0001:00014ea0       ?IsMotorEnabled@b2PrismaticJoint@@QBE_NXZ 00415ea0 f   Box2D:b2PrismaticJoint.obj
 0001:00014eb0       ?EnableMotor@b2PrismaticJoint@@QAEX_N@Z 00415eb0 f   Box2D:b2PrismaticJoint.obj
 0001:00014f00       ?SetMotorSpeed@b2PrismaticJoint@@QAEXM@Z 00415f00 f   Box2D:b2PrismaticJoint.obj
 0001:00014f50       ?SetMaxMotorForce@b2PrismaticJoint@@QAEXM@Z 00415f50 f   Box2D:b2PrismaticJoint.obj
 0001:00014fa0       ?GetMotorForce@b2PrismaticJoint@@QBEMM@Z 00415fa0 f   Box2D:b2PrismaticJoint.obj
 0001:00014fb0       ?Dump@b2PrismaticJoint@@UAEXXZ 00415fb0 f   Box2D:b2PrismaticJoint.obj
 0001:00015140       ?Initialize@b2RevoluteJointDef@@QAEXPAVb2Body@@0ABUb2Vec2@@@Z 00416140 f   Box2D:b2RevoluteJoint.obj
 0001:00015210       ??0b2RevoluteJoint@@IAE@PBUb2RevoluteJointDef@@@Z 00416210 f   Box2D:b2RevoluteJoint.obj
 0001:000152a0       ??_Gb2RevoluteJoint@@UAEPAXI@Z 004162a0 f i Box2D:b2RevoluteJoint.obj
 0001:000152a0       ??_Eb2RevoluteJoint@@UAEPAXI@Z 004162a0 f i  CIL library: CIL module
 0001:000152d0       ??1b2RevoluteJoint@@UAE@XZ 004162d0 f i Box2D:b2RevoluteJoint.obj
 0001:000152e0       ?InitVelocityConstraints@b2RevoluteJoint@@MAEXABUb2SolverData@@@Z 004162e0 f   Box2D:b2RevoluteJoint.obj
 0001:000158e0       ?SolveVelocityConstraints@b2RevoluteJoint@@MAEXABUb2SolverData@@@Z 004168e0 f   Box2D:b2RevoluteJoint.obj
 0001:00016070       ?SolvePositionConstraints@b2RevoluteJoint@@MAE_NABUb2SolverData@@@Z 00417070 f   Box2D:b2RevoluteJoint.obj
 0001:000165d0       ?GetAnchorA@b2RevoluteJoint@@UBE?AUb2Vec2@@XZ 004175d0 f   Box2D:b2RevoluteJoint.obj
 0001:00016620       ?GetAnchorB@b2RevoluteJoint@@UBE?AUb2Vec2@@XZ 00417620 f   Box2D:b2RevoluteJoint.obj
 0001:00016670       ?GetReactionForce@b2RevoluteJoint@@UBE?AUb2Vec2@@M@Z 00417670 f   Box2D:b2RevoluteJoint.obj
 0001:000166a0       ?GetReactionTorque@b2RevoluteJoint@@UBEMM@Z 004176a0 f   Box2D:b2RevoluteJoint.obj
 0001:000166c0       ?GetJointAngle@b2RevoluteJoint@@QBEMXZ 004176c0 f   Box2D:b2RevoluteJoint.obj
 0001:000166e0       ?GetJointSpeed@b2RevoluteJoint@@QBEMXZ 004176e0 f   Box2D:b2RevoluteJoint.obj
 0001:00016700       ?IsMotorEnabled@b2RevoluteJoint@@QBE_NXZ 00417700 f   Box2D:b2RevoluteJoint.obj
 0001:00016710       ?EnableMotor@b2RevoluteJoint@@QAEX_N@Z 00417710 f   Box2D:b2RevoluteJoint.obj
 0001:00016760       ?GetMotorTorque@b2RevoluteJoint@@QBEMM@Z 00417760 f   Box2D:b2RevoluteJoint.obj
 0001:00016770       ?SetMotorSpeed@b2RevoluteJoint@@QAEXM@Z 00417770 f   Box2D:b2RevoluteJoint.obj
 0001:000167b0       ?SetMaxMotorTorque@b2RevoluteJoint@@QAEXM@Z 004177b0 f   Box2D:b2RevoluteJoint.obj
 0001:000167f0       ?IsLimitEnabled@b2RevoluteJoint@@QBE_NXZ 004177f0 f   Box2D:b2RevoluteJoint.obj
 0001:00016800       ?EnableLimit@b2RevoluteJoint@@QAEX_N@Z 00417800 f   Box2D:b2RevoluteJoint.obj
 0001:00016860       ?GetLowerLimit@b2RevoluteJoint@@QBEMXZ 00417860 f   Box2D:b2RevoluteJoint.obj
 0001:00016870       ?GetUpperLimit@b2RevoluteJoint@@QBEMXZ 00417870 f   Box2D:b2RevoluteJoint.obj
 0001:00016880       ?SetLimits@b2RevoluteJoint@@QAEXMM@Z 00417880 f   Box2D:b2RevoluteJoint.obj
 0001:000168e0       ?Dump@b2RevoluteJoint@@UAEXXZ 004178e0 f   Box2D:b2RevoluteJoint.obj
 0001:00016a30       ?Initialize@b2WheelJointDef@@QAEXPAVb2Body@@0ABUb2Vec2@@1@Z 00417a30 f   Box2D:b2WheelJoint.obj
 0001:00016b40       ??0b2WheelJoint@@IAE@PBUb2WheelJointDef@@@Z 00417b40 f   Box2D:b2WheelJoint.obj
 0001:00016c40       ??_Eb2WheelJoint@@UAEPAXI@Z 00417c40 f i  CIL library: CIL module
 0001:00016c40       ??_Gb2WheelJoint@@UAEPAXI@Z 00417c40 f i Box2D:b2WheelJoint.obj
 0001:00016c70       ??1b2WheelJoint@@UAE@XZ    00417c70 f i Box2D:b2WheelJoint.obj
 0001:00016c80       ?InitVelocityConstraints@b2WheelJoint@@MAEXABUb2SolverData@@@Z 00417c80 f   Box2D:b2WheelJoint.obj
 0001:000173d0       ?SolveVelocityConstraints@b2WheelJoint@@MAEXABUb2SolverData@@@Z 004183d0 f   Box2D:b2WheelJoint.obj
 0001:00017780       ?SolvePositionConstraints@b2WheelJoint@@MAE_NABUb2SolverData@@@Z 00418780 f   Box2D:b2WheelJoint.obj
 0001:00017af0       ?GetAnchorA@b2WheelJoint@@UBE?AUb2Vec2@@XZ 00418af0 f   Box2D:b2WheelJoint.obj
 0001:00017b40       ?GetAnchorB@b2WheelJoint@@UBE?AUb2Vec2@@XZ 00418b40 f   Box2D:b2WheelJoint.obj
 0001:00017b90       ?GetReactionForce@b2WheelJoint@@UBE?AUb2Vec2@@M@Z 00418b90 f   Box2D:b2WheelJoint.obj
 0001:00017bf0       ?GetReactionTorque@b2WheelJoint@@UBEMM@Z 00418bf0 f   Box2D:b2WheelJoint.obj
 0001:00017c10       ?GetJointTranslation@b2WheelJoint@@QBEMXZ 00418c10 f   Box2D:b2WheelJoint.obj
 0001:00017cd0       ?GetJointSpeed@b2WheelJoint@@QBEMXZ 00418cd0 f   Box2D:b2WheelJoint.obj
 0001:00017cf0       ?IsMotorEnabled@b2WheelJoint@@QBE_NXZ 00418cf0 f   Box2D:b2WheelJoint.obj
 0001:00017d00       ?EnableMotor@b2WheelJoint@@QAEX_N@Z 00418d00 f   Box2D:b2WheelJoint.obj
 0001:00017d50       ?SetMotorSpeed@b2WheelJoint@@QAEXM@Z 00418d50 f   Box2D:b2WheelJoint.obj
 0001:00017d90       ?SetMaxMotorTorque@b2WheelJoint@@QAEXM@Z 00418d90 f   Box2D:b2WheelJoint.obj
 0001:00017dd0       ?GetMotorTorque@b2WheelJoint@@QBEMM@Z 00418dd0 f   Box2D:b2WheelJoint.obj
 0001:00017de0       ?Dump@b2WheelJoint@@UAEXXZ 00418de0 f   Box2D:b2WheelJoint.obj
 0001:00017f40       ??0b2RopeJoint@@IAE@PBUb2RopeJointDef@@@Z 00418f40 f   Box2D:b2RopeJoint.obj
 0001:00017fa0       ??_Eb2RopeJoint@@UAEPAXI@Z 00418fa0 f i  CIL library: CIL module
 0001:00017fa0       ??_Gb2RopeJoint@@UAEPAXI@Z 00418fa0 f i Box2D:b2RopeJoint.obj
 0001:00017fd0       ??1b2RopeJoint@@UAE@XZ     00418fd0 f i Box2D:b2RopeJoint.obj
 0001:00017fe0       ?InitVelocityConstraints@b2RopeJoint@@MAEXABUb2SolverData@@@Z 00418fe0 f   Box2D:b2RopeJoint.obj
 0001:000184b0       ?SolveVelocityConstraints@b2RopeJoint@@MAEXABUb2SolverData@@@Z 004194b0 f   Box2D:b2RopeJoint.obj
 0001:000186e0       ?SolvePositionConstraints@b2RopeJoint@@MAE_NABUb2SolverData@@@Z 004196e0 f   Box2D:b2RopeJoint.obj
 0001:00018a10       ?GetAnchorA@b2RopeJoint@@UBE?AUb2Vec2@@XZ 00419a10 f   Box2D:b2RopeJoint.obj
 0001:00018a60       ?GetAnchorB@b2RopeJoint@@UBE?AUb2Vec2@@XZ 00419a60 f   Box2D:b2RopeJoint.obj
 0001:00018ab0       ?GetReactionForce@b2RopeJoint@@UBE?AUb2Vec2@@M@Z 00419ab0 f   Box2D:b2RopeJoint.obj
 0001:00018ae0       ?GetReactionTorque@b2RopeJoint@@UBEMM@Z 00419ae0 f   Box2D:b2RopeJoint.obj
 0001:00018af0       ?GetMaxLength@b2RopeJoint@@QBEMXZ 00419af0 f   Box2D:b2RopeJoint.obj
 0001:00018b00       ?GetLimitState@b2RopeJoint@@QBE?AW4b2LimitState@@XZ 00419b00 f   Box2D:b2RopeJoint.obj
 0001:00018b10       ?Dump@b2RopeJoint@@UAEXXZ  00419b10 f   Box2D:b2RopeJoint.obj
 0001:00018be0       ??0b2GearJoint@@IAE@PBUb2GearJointDef@@@Z 00419be0 f   Box2D:b2GearJoint.obj
 0001:00018f00       ??_Gb2GearJoint@@UAEPAXI@Z 00419f00 f i Box2D:b2GearJoint.obj
 0001:00018f00       ??_Eb2GearJoint@@UAEPAXI@Z 00419f00 f i  CIL library: CIL module
 0001:00018f30       ??1b2GearJoint@@UAE@XZ     00419f30 f i Box2D:b2GearJoint.obj
 0001:00018f40       ?InitVelocityConstraints@b2GearJoint@@MAEXABUb2SolverData@@@Z 00419f40 f   Box2D:b2GearJoint.obj
 0001:00019820       ?SolveVelocityConstraints@b2GearJoint@@MAEXABUb2SolverData@@@Z 0041a820 f   Box2D:b2GearJoint.obj
 0001:00019bd0       ?SolvePositionConstraints@b2GearJoint@@MAE_NABUb2SolverData@@@Z 0041abd0 f   Box2D:b2GearJoint.obj
 0001:0001a480       ?GetAnchorA@b2GearJoint@@UBE?AUb2Vec2@@XZ 0041b480 f   Box2D:b2GearJoint.obj
 0001:0001a4d0       ?GetAnchorB@b2GearJoint@@UBE?AUb2Vec2@@XZ 0041b4d0 f   Box2D:b2GearJoint.obj
 0001:0001a520       ?GetReactionForce@b2GearJoint@@UBE?AUb2Vec2@@M@Z 0041b520 f   Box2D:b2GearJoint.obj
 0001:0001a560       ?GetReactionTorque@b2GearJoint@@UBEMM@Z 0041b560 f   Box2D:b2GearJoint.obj
 0001:0001a590       ?SetRatio@b2GearJoint@@QAEXM@Z 0041b590 f   Box2D:b2GearJoint.obj
 0001:0001a5a0       ?GetRatio@b2GearJoint@@QBEMXZ 0041b5a0 f   Box2D:b2GearJoint.obj
 0001:0001a5b0       ?Dump@b2GearJoint@@UAEXXZ  0041b5b0 f   Box2D:b2GearJoint.obj
 0001:0001a660       ?Initialize@b2DistanceJointDef@@QAEXPAVb2Body@@0ABUb2Vec2@@1@Z 0041b660 f   Box2D:b2DistanceJoint.obj
 0001:0001a760       ??0b2DistanceJoint@@IAE@PBUb2DistanceJointDef@@@Z 0041b760 f   Box2D:b2DistanceJoint.obj
 0001:0001a7c0       ??_Gb2DistanceJoint@@UAEPAXI@Z 0041b7c0 f i Box2D:b2DistanceJoint.obj
 0001:0001a7c0       ??_Eb2DistanceJoint@@UAEPAXI@Z 0041b7c0 f i  CIL library: CIL module
 0001:0001a7f0       ??1b2DistanceJoint@@UAE@XZ 0041b7f0 f i Box2D:b2DistanceJoint.obj
 0001:0001a800       ?InitVelocityConstraints@b2DistanceJoint@@MAEXABUb2SolverData@@@Z 0041b800 f   Box2D:b2DistanceJoint.obj
 0001:0001ad70       ?SolveVelocityConstraints@b2DistanceJoint@@MAEXABUb2SolverData@@@Z 0041bd70 f   Box2D:b2DistanceJoint.obj
 0001:0001af90       ?SolvePositionConstraints@b2DistanceJoint@@MAE_NABUb2SolverData@@@Z 0041bf90 f   Box2D:b2DistanceJoint.obj
 0001:0001b2e0       ?GetAnchorA@b2DistanceJoint@@UBE?AUb2Vec2@@XZ 0041c2e0 f   Box2D:b2DistanceJoint.obj
 0001:0001b330       ?GetAnchorB@b2DistanceJoint@@UBE?AUb2Vec2@@XZ 0041c330 f   Box2D:b2DistanceJoint.obj
 0001:0001b380       ?GetReactionForce@b2DistanceJoint@@UBE?AUb2Vec2@@M@Z 0041c380 f   Box2D:b2DistanceJoint.obj
 0001:0001b3b0       ?GetReactionTorque@b2DistanceJoint@@UBEMM@Z 0041c3b0 f   Box2D:b2DistanceJoint.obj
 0001:0001b3c0       ?Dump@b2DistanceJoint@@UAEXXZ 0041c3c0 f   Box2D:b2DistanceJoint.obj
 0001:0001b4c0       ?Initialize@b2FrictionJointDef@@QAEXPAVb2Body@@0ABUb2Vec2@@@Z 0041c4c0 f   Box2D:b2FrictionJoint.obj
 0001:0001b580       ??0b2FrictionJoint@@IAE@PBUb2FrictionJointDef@@@Z 0041c580 f   Box2D:b2FrictionJoint.obj
 0001:0001b5e0       ??_Eb2FrictionJoint@@UAEPAXI@Z 0041c5e0 f i  CIL library: CIL module
 0001:0001b5e0       ??_Gb2FrictionJoint@@UAEPAXI@Z 0041c5e0 f i Box2D:b2FrictionJoint.obj
 0001:0001b610       ??1b2FrictionJoint@@UAE@XZ 0041c610 f i Box2D:b2FrictionJoint.obj
 0001:0001b620       ?InitVelocityConstraints@b2FrictionJoint@@MAEXABUb2SolverData@@@Z 0041c620 f   Box2D:b2FrictionJoint.obj
 0001:0001bb10       ?SolveVelocityConstraints@b2FrictionJoint@@MAEXABUb2SolverData@@@Z 0041cb10 f   Box2D:b2FrictionJoint.obj
 0001:0001be80       ?SolvePositionConstraints@b2FrictionJoint@@MAE_NABUb2SolverData@@@Z 0041ce80 f   Box2D:b2FrictionJoint.obj
 0001:0001be90       ?GetAnchorA@b2FrictionJoint@@UBE?AUb2Vec2@@XZ 0041ce90 f   Box2D:b2FrictionJoint.obj
 0001:0001bee0       ?GetAnchorB@b2FrictionJoint@@UBE?AUb2Vec2@@XZ 0041cee0 f   Box2D:b2FrictionJoint.obj
 0001:0001bf30       ?GetReactionForce@b2FrictionJoint@@UBE?AUb2Vec2@@M@Z 0041cf30 f   Box2D:b2FrictionJoint.obj
 0001:0001bf60       ?GetReactionTorque@b2FrictionJoint@@UBEMM@Z 0041cf60 f   Box2D:b2FrictionJoint.obj
 0001:0001bf80       ?SetMaxForce@b2FrictionJoint@@QAEXM@Z 0041cf80 f   Box2D:b2FrictionJoint.obj
 0001:0001bf90       ?GetMaxForce@b2FrictionJoint@@QBEMXZ 0041cf90 f   Box2D:b2FrictionJoint.obj
 0001:0001bfa0       ?SetMaxTorque@b2FrictionJoint@@QAEXM@Z 0041cfa0 f   Box2D:b2FrictionJoint.obj
 0001:0001bfb0       ?GetMaxTorque@b2FrictionJoint@@QBEMXZ 0041cfb0 f   Box2D:b2FrictionJoint.obj
 0001:0001bfc0       ?Dump@b2FrictionJoint@@UAEXXZ 0041cfc0 f   Box2D:b2FrictionJoint.obj
 0001:0001c0b0       ??1b2PolygonAndCircleContact@@UAE@XZ 0041d0b0 f i Box2D:b2PolygonAndCircleContact.obj
 0001:0001c0c0       ??_Eb2PolygonAndCircleContact@@UAEPAXI@Z 0041d0c0 f i  CIL library: CIL module
 0001:0001c0c0       ??_Gb2PolygonAndCircleContact@@UAEPAXI@Z 0041d0c0 f i Box2D:b2PolygonAndCircleContact.obj
 0001:0001c0f0       ?Create@b2PolygonAndCircleContact@@SAPAVb2Contact@@PAVb2Fixture@@H0HPAVb2BlockAllocator@@@Z 0041d0f0 f   Box2D:b2PolygonAndCircleContact.obj
 0001:0001c130       ?Destroy@b2PolygonAndCircleContact@@SAXPAVb2Contact@@PAVb2BlockAllocator@@@Z 0041d130 f   Box2D:b2PolygonAndCircleContact.obj
 0001:0001c160       ??0b2PolygonAndCircleContact@@QAE@PAVb2Fixture@@0@Z 0041d160 f   Box2D:b2PolygonAndCircleContact.obj
 0001:0001c190       ?Evaluate@b2PolygonAndCircleContact@@UAEXPAUb2Manifold@@ABUb2Transform@@1@Z 0041d190 f   Box2D:b2PolygonAndCircleContact.obj
 0001:0001c1c0       ??1b2ChainAndCircleContact@@UAE@XZ 0041d1c0 f i Box2D:b2ChainAndCircleContact.obj
 0001:0001c1d0       ??_Gb2ChainAndCircleContact@@UAEPAXI@Z 0041d1d0 f i Box2D:b2ChainAndCircleContact.obj
 0001:0001c1d0       ??_Eb2ChainAndCircleContact@@UAEPAXI@Z 0041d1d0 f i  CIL library: CIL module
 0001:0001c200       ??0b2EdgeShape@@QAE@XZ     0041d200 f i Box2D:b2ChainAndCircleContact.obj
 0001:0001c240       ??_Gb2EdgeShape@@UAEPAXI@Z 0041d240 f i Box2D:b2ChainAndCircleContact.obj
 0001:0001c240       ??_Eb2EdgeShape@@UAEPAXI@Z 0041d240 f i  CIL library: CIL module
 0001:0001c270       ??1b2EdgeShape@@UAE@XZ     0041d270 f i Box2D:b2ChainAndCircleContact.obj
 0001:0001c280       ?Create@b2ChainAndCircleContact@@SAPAVb2Contact@@PAVb2Fixture@@H0HPAVb2BlockAllocator@@@Z 0041d280 f   Box2D:b2ChainAndCircleContact.obj
 0001:0001c2c0       ?Destroy@b2ChainAndCircleContact@@SAXPAVb2Contact@@PAVb2BlockAllocator@@@Z 0041d2c0 f   Box2D:b2ChainAndCircleContact.obj
 0001:0001c2f0       ??0b2ChainAndCircleContact@@QAE@PAVb2Fixture@@H0H@Z 0041d2f0 f   Box2D:b2ChainAndCircleContact.obj
 0001:0001c320       ?Evaluate@b2ChainAndCircleContact@@UAEXPAUb2Manifold@@ABUb2Transform@@1@Z 0041d320 f   Box2D:b2ChainAndCircleContact.obj
 0001:0001c3a0       ??1b2CircleContact@@UAE@XZ 0041d3a0 f i Box2D:b2CircleContact.obj
 0001:0001c3b0       ??_Gb2CircleContact@@UAEPAXI@Z 0041d3b0 f i Box2D:b2CircleContact.obj
 0001:0001c3b0       ??_Eb2CircleContact@@UAEPAXI@Z 0041d3b0 f i  CIL library: CIL module
 0001:0001c3e0       ?Create@b2CircleContact@@SAPAVb2Contact@@PAVb2Fixture@@H0HPAVb2BlockAllocator@@@Z 0041d3e0 f   Box2D:b2CircleContact.obj
 0001:0001c420       ?Destroy@b2CircleContact@@SAXPAVb2Contact@@PAVb2BlockAllocator@@@Z 0041d420 f   Box2D:b2CircleContact.obj
 0001:0001c450       ??0b2CircleContact@@QAE@PAVb2Fixture@@0@Z 0041d450 f   Box2D:b2CircleContact.obj
 0001:0001c480       ?Evaluate@b2CircleContact@@UAEXPAUb2Manifold@@ABUb2Transform@@1@Z 0041d480 f   Box2D:b2CircleContact.obj
 0001:0001c580       ??1b2EdgeAndPolygonContact@@UAE@XZ 0041d580 f i Box2D:b2EdgeAndPolygonContact.obj
 0001:0001c590       ??_Eb2EdgeAndPolygonContact@@UAEPAXI@Z 0041d590 f i  CIL library: CIL module
 0001:0001c590       ??_Gb2EdgeAndPolygonContact@@UAEPAXI@Z 0041d590 f i Box2D:b2EdgeAndPolygonContact.obj
 0001:0001c5c0       ?Create@b2EdgeAndPolygonContact@@SAPAVb2Contact@@PAVb2Fixture@@H0HPAVb2BlockAllocator@@@Z 0041d5c0 f   Box2D:b2EdgeAndPolygonContact.obj
 0001:0001c600       ?Destroy@b2EdgeAndPolygonContact@@SAXPAVb2Contact@@PAVb2BlockAllocator@@@Z 0041d600 f   Box2D:b2EdgeAndPolygonContact.obj
 0001:0001c630       ??0b2EdgeAndPolygonContact@@QAE@PAVb2Fixture@@0@Z 0041d630 f   Box2D:b2EdgeAndPolygonContact.obj
 0001:0001c660       ?Evaluate@b2EdgeAndPolygonContact@@UAEXPAUb2Manifold@@ABUb2Transform@@1@Z 0041d660 f   Box2D:b2EdgeAndPolygonContact.obj
 0001:0001c6b0       ??1b2PolygonContact@@UAE@XZ 0041d6b0 f i Box2D:b2PolygonContact.obj
 0001:0001c6c0       ??_Gb2PolygonContact@@UAEPAXI@Z 0041d6c0 f i Box2D:b2PolygonContact.obj
 0001:0001c6c0       ??_Eb2PolygonContact@@UAEPAXI@Z 0041d6c0 f i  CIL library: CIL module
 0001:0001c6f0       ?Create@b2PolygonContact@@SAPAVb2Contact@@PAVb2Fixture@@H0HPAVb2BlockAllocator@@@Z 0041d6f0 f   Box2D:b2PolygonContact.obj
 0001:0001c730       ?Destroy@b2PolygonContact@@SAXPAVb2Contact@@PAVb2BlockAllocator@@@Z 0041d730 f   Box2D:b2PolygonContact.obj
 0001:0001c760       ??0b2PolygonContact@@QAE@PAVb2Fixture@@0@Z 0041d760 f   Box2D:b2PolygonContact.obj
 0001:0001c790       ?Evaluate@b2PolygonContact@@UAEXPAUb2Manifold@@ABUb2Transform@@1@Z 0041d790 f   Box2D:b2PolygonContact.obj
 0001:0001c7c0       ??1b2ChainAndPolygonContact@@UAE@XZ 0041d7c0 f i Box2D:b2ChainAndPolygonContact.obj
 0001:0001c7d0       ??_Eb2ChainAndPolygonContact@@UAEPAXI@Z 0041d7d0 f i  CIL library: CIL module
 0001:0001c7d0       ??_Gb2ChainAndPolygonContact@@UAEPAXI@Z 0041d7d0 f i Box2D:b2ChainAndPolygonContact.obj
 0001:0001c800       ?Create@b2ChainAndPolygonContact@@SAPAVb2Contact@@PAVb2Fixture@@H0HPAVb2BlockAllocator@@@Z 0041d800 f   Box2D:b2ChainAndPolygonContact.obj
 0001:0001c840       ?Destroy@b2ChainAndPolygonContact@@SAXPAVb2Contact@@PAVb2BlockAllocator@@@Z 0041d840 f   Box2D:b2ChainAndPolygonContact.obj
 0001:0001c870       ??0b2ChainAndPolygonContact@@QAE@PAVb2Fixture@@H0H@Z 0041d870 f   Box2D:b2ChainAndPolygonContact.obj
 0001:0001c8a0       ?Evaluate@b2ChainAndPolygonContact@@UAEXPAUb2Manifold@@ABUb2Transform@@1@Z 0041d8a0 f   Box2D:b2ChainAndPolygonContact.obj
 0001:0001c950       ??1b2EdgeAndCircleContact@@UAE@XZ 0041d950 f i Box2D:b2EdgeAndCircleContact.obj
 0001:0001c960       ??_Gb2EdgeAndCircleContact@@UAEPAXI@Z 0041d960 f i Box2D:b2EdgeAndCircleContact.obj
 0001:0001c960       ??_Eb2EdgeAndCircleContact@@UAEPAXI@Z 0041d960 f i  CIL library: CIL module
 0001:0001c990       ?Create@b2EdgeAndCircleContact@@SAPAVb2Contact@@PAVb2Fixture@@H0HPAVb2BlockAllocator@@@Z 0041d990 f   Box2D:b2EdgeAndCircleContact.obj
 0001:0001c9d0       ?Destroy@b2EdgeAndCircleContact@@SAXPAVb2Contact@@PAVb2BlockAllocator@@@Z 0041d9d0 f   Box2D:b2EdgeAndCircleContact.obj
 0001:0001ca00       ??0b2EdgeAndCircleContact@@QAE@PAVb2Fixture@@0@Z 0041da00 f   Box2D:b2EdgeAndCircleContact.obj
 0001:0001ca30       ?Evaluate@b2EdgeAndCircleContact@@UAEXPAUb2Manifold@@ABUb2Transform@@1@Z 0041da30 f   Box2D:b2EdgeAndCircleContact.obj
 0001:0001ca60       ?SetZero@b2Mat22@@QAEXXZ   0041da60 f i Box2D:b2ContactSolver.obj
 0001:0001ca80       ?GetManifold@b2Contact@@QAEPAUb2Manifold@@XZ 0041da80 f i Box2D:b2ContactSolver.obj
 0001:0001ca90       ??0b2ContactSolver@@QAE@PAUb2ContactSolverDef@@@Z 0041da90 f   Box2D:b2ContactSolver.obj
 0001:0001cd10       ??1b2ContactSolver@@QAE@XZ 0041dd10 f   Box2D:b2ContactSolver.obj
 0001:0001cdb0       ?InitializeVelocityConstraints@b2ContactSolver@@QAEXXZ 0041ddb0 f   Box2D:b2ContactSolver.obj
 0001:0001d4d0       ??0b2WorldManifold@@QAE@XZ 0041e4d0 f i Box2D:b2ContactSolver.obj
 0001:0001d4e0       ?WarmStart@b2ContactSolver@@QAEXXZ 0041e4e0 f   Box2D:b2ContactSolver.obj
 0001:0001d6d0       ?SolveVelocityConstraints@b2ContactSolver@@QAEXXZ 0041e6d0 f   Box2D:b2ContactSolver.obj
 0001:0001e0e0       ?StoreImpulses@b2ContactSolver@@QAEXXZ 0041f0e0 f   Box2D:b2ContactSolver.obj
 0001:0001e160       ?Initialize@b2PositionSolverManifold@@QAEXPAUb2ContactPositionConstraint@@ABUb2Transform@@1H@Z 0041f160 f i Box2D:b2ContactSolver.obj
 0001:0001e560       ?SolvePositionConstraints@b2ContactSolver@@QAE_NXZ 0041f560 f   Box2D:b2ContactSolver.obj
 0001:0001ea60       ??0b2PositionSolverManifold@@QAE@XZ 0041fa60 f i Box2D:b2ContactSolver.obj
 0001:0001ea70       ?SolveTOIPositionConstraints@b2ContactSolver@@QAE_NHH@Z 0041fa70 f   Box2D:b2ContactSolver.obj
 0001:0001efa0       ?b2CollideCircles@@YAXPAUb2Manifold@@PBVb2CircleShape@@ABUb2Transform@@12@Z 0041ffa0 f   Box2D:b2CollideCircle.obj
 0001:0001f090       ?b2CollidePolygonAndCircle@@YAXPAUb2Manifold@@PBVb2PolygonShape@@ABUb2Transform@@PBVb2CircleShape@@2@Z 00420090 f   Box2D:b2CollideCircle.obj
 0001:0001f500       ?b2MulT@@YA?AUb2Rot@@ABU1@0@Z 00420500 f i Box2D:b2CollideEdge.obj
 0001:0001f540       ?b2MulT@@YA?AUb2Transform@@ABU1@0@Z 00420540 f i Box2D:b2CollideEdge.obj
 0001:0001f5f0       ?b2CollideEdgeAndCircle@@YAXPAUb2Manifold@@PBVb2EdgeShape@@ABUb2Transform@@PBVb2CircleShape@@2@Z 004205f0 f   Box2D:b2CollideEdge.obj
 0001:0001fa60       ?Collide@b2EPCollider@@QAEXPAUb2Manifold@@PBVb2EdgeShape@@ABUb2Transform@@PBVb2PolygonShape@@2@Z 00420a60 f   Box2D:b2CollideEdge.obj
 0001:00020fb0       ??0b2ClipVertex@@QAE@XZ    00421fb0 f i Box2D:b2CollideEdge.obj
 0001:00020fc0       ??0b2ReferenceFace@@QAE@XZ 00421fc0 f i Box2D:b2CollideEdge.obj
 0001:00020fd0       ?ComputeEdgeSeparation@b2EPCollider@@QAE?AUb2EPAxis@@XZ 00421fd0 f   Box2D:b2CollideEdge.obj
 0001:00021060       ?ComputePolygonSeparation@b2EPCollider@@QAE?AUb2EPAxis@@XZ 00422060 f   Box2D:b2CollideEdge.obj
 0001:000211c0       ?b2CollideEdgeAndPolygon@@YAXPAUb2Manifold@@PBVb2EdgeShape@@ABUb2Transform@@PBVb2PolygonShape@@2@Z 004221c0 f   Box2D:b2CollideEdge.obj
 0001:00021200       ??0b2EPCollider@@QAE@XZ    00422200 f i Box2D:b2CollideEdge.obj
 0001:00021210       ??0b2TempPolygon@@QAE@XZ   00422210 f i Box2D:b2CollideEdge.obj
 0001:00021220       ?Set@b2EdgeShape@@QAEXABUb2Vec2@@0@Z 00422220 f   Box2D:b2EdgeShape.obj
 0001:00021250       ?Clone@b2EdgeShape@@UBEPAVb2Shape@@PAVb2BlockAllocator@@@Z 00422250 f   Box2D:b2EdgeShape.obj
 0001:00021300       ??4b2EdgeShape@@QAEAAV0@ABV0@@Z 00422300 f i Box2D:b2EdgeShape.obj
 0001:00021360       ?GetChildCount@b2EdgeShape@@UBEHXZ 00422360 f   Box2D:b2EdgeShape.obj
 0001:00021370       ?TestPoint@b2EdgeShape@@UBE_NABUb2Transform@@ABUb2Vec2@@@Z 00422370 f   Box2D:b2EdgeShape.obj
 0001:00021380       ?RayCast@b2EdgeShape@@UBE_NPAUb2RayCastOutput@@ABUb2RayCastInput@@ABUb2Transform@@H@Z 00422380 f   Box2D:b2EdgeShape.obj
 0001:00021630       ?ComputeAABB@b2EdgeShape@@UBEXPAUb2AABB@@ABUb2Transform@@H@Z 00422630 f   Box2D:b2EdgeShape.obj
 0001:00021740       ?ComputeMass@b2EdgeShape@@UBEXPAUb2MassData@@M@Z 00422740 f   Box2D:b2EdgeShape.obj
 0001:000217a0       ??0b2ChainShape@@QAE@XZ    004227a0 f i Box2D:b2ChainShape.obj
 0001:000217d0       ??_Eb2ChainShape@@UAEPAXI@Z 004227d0 f i  CIL library: CIL module
 0001:000217d0       ??_Gb2ChainShape@@UAEPAXI@Z 004227d0 f i Box2D:b2ChainShape.obj
 0001:00021820       ??1b2ChainShape@@UAE@XZ    00422820 f   Box2D:b2ChainShape.obj
 0001:00021850       ?CreateLoop@b2ChainShape@@QAEXPBUb2Vec2@@H@Z 00422850 f   Box2D:b2ChainShape.obj
 0001:000218c0       ?CreateChain@b2ChainShape@@QAEXPBUb2Vec2@@H@Z 004228c0 f   Box2D:b2ChainShape.obj
 0001:00021900       ?SetPrevVertex@b2ChainShape@@QAEXABUb2Vec2@@@Z 00422900 f   Box2D:b2ChainShape.obj
 0001:00021920       ?SetNextVertex@b2ChainShape@@QAEXABUb2Vec2@@@Z 00422920 f   Box2D:b2ChainShape.obj
 0001:00021940       ?Clone@b2ChainShape@@UBEPAVb2Shape@@PAVb2BlockAllocator@@@Z 00422940 f   Box2D:b2ChainShape.obj
 0001:000219f0       ?GetChildCount@b2ChainShape@@UBEHXZ 004229f0 f   Box2D:b2ChainShape.obj
 0001:00021a00       ?GetChildEdge@b2ChainShape@@QBEXPAVb2EdgeShape@@H@Z 00422a00 f   Box2D:b2ChainShape.obj
 0001:00021ab0       ?TestPoint@b2ChainShape@@UBE_NABUb2Transform@@ABUb2Vec2@@@Z 00422ab0 f   Box2D:b2ChainShape.obj
 0001:00021ac0       ?RayCast@b2ChainShape@@UBE_NPAUb2RayCastOutput@@ABUb2RayCastInput@@ABUb2Transform@@H@Z 00422ac0 f   Box2D:b2ChainShape.obj
 0001:00021b60       ?ComputeAABB@b2ChainShape@@UBEXPAUb2AABB@@ABUb2Transform@@H@Z 00422b60 f   Box2D:b2ChainShape.obj
 0001:00021c70       ?ComputeMass@b2ChainShape@@UBEXPAUb2MassData@@M@Z 00422c70 f   Box2D:b2ChainShape.obj
 0001:00022600       ?b2CollidePolygons@@YAXPAUb2Manifold@@PBVb2PolygonShape@@ABUb2Transform@@12@Z 00423600 f   Box2D:b2CollidePolygon.obj
 0001:00022d60       ??0bad_alloc@std@@QAE@XZ   00423d60 f i HyMMS:Managed_Object.obj
 0001:00022d90       ??1bad_alloc@std@@UAE@XZ   00423d90 f i HyMMS:Managed_Object.obj
 0001:00022da0       ??_Gbad_alloc@std@@UAEPAXI@Z 00423da0 f i HyMMS:Managed_Object.obj
 0001:00022da0       ??_Ebad_alloc@std@@UAEPAXI@Z 00423da0 f i  CIL library: CIL module
 0001:00022dd0       ?length@?$char_traits@D@std@@SAIPBD@Z 00423dd0 f i HyMMS:Managed_Object.obj
 0001:00022df0       ?copy@?$char_traits@D@std@@SAPADPADPBDI@Z 00423df0 f i HyMMS:Managed_Object.obj
 0001:00022e10       ?move@?$char_traits@D@std@@SAPADPADPBDI@Z 00423e10 f i HyMMS:Managed_Object.obj
 0001:00022e30       ?assign@?$char_traits@D@std@@SAXAADABD@Z 00423e30 f i HyMMS:Managed_Object.obj
 0001:00022e40       ??0error_category@std@@QAE@XZ 00423e40 f i HyMMS:Managed_Object.obj
 0001:00022e50       ??1error_category@std@@UAE@XZ 00423e50 f i HyMMS:Managed_Object.obj
 0001:00022e60       ??8error_category@std@@QBE_NABV01@@Z 00423e60 f i HyMMS:Managed_Object.obj
 0001:00022e70       ??_Gerror_category@std@@UAEPAXI@Z 00423e70 f i HyMMS:Managed_Object.obj
 0001:00022e70       ??_Eerror_category@std@@UAEPAXI@Z 00423e70 f i  CIL library: CIL module
 0001:00022ea0       ?value@error_code@std@@QBEHXZ 00423ea0 f i HyMMS:Managed_Object.obj
 0001:00022eb0       ?category@error_code@std@@QBEABVerror_category@2@XZ 00423eb0 f i HyMMS:Managed_Object.obj
 0001:00022ec0       ??0error_condition@std@@QAE@HABVerror_category@1@@Z 00423ec0 f i HyMMS:Managed_Object.obj
 0001:00022ee0       ?value@error_condition@std@@QBEHXZ 00423ee0 f i HyMMS:Managed_Object.obj
 0001:00022ef0       ?category@error_condition@std@@QBEABVerror_category@2@XZ 00423ef0 f i HyMMS:Managed_Object.obj
 0001:00022f00       ??8error_condition@std@@QBE_NABV01@@Z 00423f00 f i HyMMS:Managed_Object.obj
 0001:00022f20       ?default_error_condition@error_category@std@@UBE?AVerror_condition@2@H@Z 00423f20 f i HyMMS:Managed_Object.obj
 0001:00022f40       ?equivalent@error_category@std@@UBE_NHABVerror_condition@2@@Z 00423f40 f i HyMMS:Managed_Object.obj
 0001:00022f80       ?equivalent@error_category@std@@UBE_NABVerror_code@2@H@Z 00423f80 f i HyMMS:Managed_Object.obj
 0001:00022fa0       ??0_Generic_error_category@std@@QAE@XZ 00423fa0 f i HyMMS:Managed_Object.obj
 0001:00022fb0       ?name@_Generic_error_category@std@@UBEPBDXZ 00423fb0 f i HyMMS:Managed_Object.obj
 0001:00022fc0       ?message@_Generic_error_category@std@@UBE?AV?$basic_string@DU?$char_traits@D@std@@V?$allocator@D@2@@2@H@Z 00423fc0 f i HyMMS:Managed_Object.obj
 0001:00023040       ??_G_Generic_error_category@std@@UAEPAXI@Z 00424040 f i HyMMS:Managed_Object.obj
 0001:00023040       ??_E_Generic_error_category@std@@UAEPAXI@Z 00424040 f i  CIL library: CIL module
 0001:00023070       ??1_Generic_error_category@std@@UAE@XZ 00424070 f i HyMMS:Managed_Object.obj
 0001:00023080       ??0_Iostream_error_category@std@@QAE@XZ 00424080 f i HyMMS:Managed_Object.obj
 0001:00023090       ?name@_Iostream_error_category@std@@UBEPBDXZ 00424090 f i HyMMS:Managed_Object.obj
 0001:000230a0       ?message@_Iostream_error_category@std@@UBE?AV?$basic_string@DU?$char_traits@D@std@@V?$allocator@D@2@@2@H@Z 004240a0 f i HyMMS:Managed_Object.obj
 0001:000230f0       ??_G_Iostream_error_category@std@@UAEPAXI@Z 004240f0 f i HyMMS:Managed_Object.obj
 0001:000230f0       ??_E_Iostream_error_category@std@@UAEPAXI@Z 004240f0 f i  CIL library: CIL module
 0001:00023120       ??1_Iostream_error_category@std@@UAE@XZ 00424120 f i HyMMS:Managed_Object.obj
 0001:00023130       ??0_System_error_category@std@@QAE@XZ 00424130 f i HyMMS:Managed_Object.obj
 0001:00023140       ?name@_System_error_category@std@@UBEPBDXZ 00424140 f i HyMMS:Managed_Object.obj
 0001:00023150       ?message@_System_error_category@std@@UBE?AV?$basic_string@DU?$char_traits@D@std@@V?$allocator@D@2@@2@H@Z 00424150 f i HyMMS:Managed_Object.obj
 0001:000231d0       ?default_error_condition@_System_error_category@std@@UBE?AVerror_condition@2@H@Z 004241d0 f i HyMMS:Managed_Object.obj
 0001:00023210       ??_G_System_error_category@std@@UAEPAXI@Z 00424210 f i HyMMS:Managed_Object.obj
 0001:00023210       ??_E_System_error_category@std@@UAEPAXI@Z 00424210 f i  CIL library: CIL module
 0001:00023240       ??1_System_error_category@std@@UAE@XZ 00424240 f i HyMMS:Managed_Object.obj
 0001:00023250       ?generic_category@std@@YAABVerror_category@1@XZ 00424250 f i HyMMS:Managed_Object.obj
 0001:00023260       ?system_category@std@@YAABVerror_category@1@XZ 00424260 f i HyMMS:Managed_Object.obj
 0001:00023270       ?CalculateAdjustment@@YADPAXD@Z 00424270 f i HyMMS:Managed_Object.obj
 0001:00023290       ??0Managed_Object@@QAE@XZ  00424290 f   HyMMS:Managed_Object.obj
 0001:00023380       ??_GManaged_Object@@UAEPAXI@Z 00424380 f i HyMMS:Managed_Object.obj
 0001:00023380       ??_EManaged_Object@@UAEPAXI@Z 00424380 f i  CIL library: CIL module
 0001:00023390       ??1Managed_Object@@UAE@XZ  00424390 f   HyMMS:Managed_Object.obj
 0001:000233f0       ??2Managed_Object@@SAPAXII_N@Z 004243f0 f   HyMMS:Managed_Object.obj
 0001:00023510       ??0bad_alloc@std@@QAE@ABV01@@Z 00424510 f i HyMMS:Managed_Object.obj
 0001:00023530       ??2Managed_Object@@SAPAXIPAX@Z 00424530 f   HyMMS:Managed_Object.obj
 0001:00023570       ??3Managed_Object@@SAXPAXI@Z 00424570 f   HyMMS:Managed_Object.obj
 0001:00023580       ??3Managed_Object@@SAXPAXI_N@Z 00424580 f   HyMMS:Managed_Object.obj
 0001:00023590       ??3Managed_Object@@SAXPAX0@Z 00424590 f   HyMMS:Managed_Object.obj
 0001:000235a0       ??4Managed_Object@@QAEAAV0@ABV0@@Z 004245a0 f   HyMMS:Managed_Object.obj
 0001:000235b0       ??0Managed_Object@@AAE@PAV0@@Z 004245b0 f   HyMMS:Managed_Object.obj
 0001:00023650       ?init@Managed_Object@@AAEXXZ 00424650 f i HyMMS:Managed_Object.obj
 0001:00023690       ?reg@Managed_Object@@AAEXXZ 00424690 f i HyMMS:Managed_Object.obj
 0001:000236e0       ?removeNurseryFlags@Managed_Object@@AAEXXZ 004246e0 f   HyMMS:Managed_Object.obj
 0001:00023770       ?isInBounds@Managed_Object@@AAE_NPAX@Z 00424770 f   HyMMS:Managed_Object.obj
 0001:000237a0       ?getIndex@Managed_Object@@AAEIXZ 004247a0 f   HyMMS:Managed_Object.obj
 0001:000237b0       ?getSize@Managed_Object@@AAEIXZ 004247b0 f   HyMMS:Managed_Object.obj
 0001:000237c0       ?getNextObjPadding@Managed_Object@@AAEDXZ 004247c0 f   HyMMS:Managed_Object.obj
 0001:000237d0       ?getUpperBound@Managed_Object@@AAEPAXXZ 004247d0 f   HyMMS:Managed_Object.obj
 0001:000237e0       ?firstHandleOffset@Managed_Object@@AAEAAPAXXZ 004247e0 f   HyMMS:Managed_Object.obj
 0001:000237f0       ?lastHandleOffset@Managed_Object@@AAEAAPAXXZ 004247f0 f   HyMMS:Managed_Object.obj
 0001:00023800       ?proxiedObj@Managed_Object@@AAEAAPAXXZ 00424800 f   HyMMS:Managed_Object.obj
 0001:00023810       ?nextProxiedObj@Managed_Object@@AAEAAPAXXZ 00424810 f   HyMMS:Managed_Object.obj
 0001:00023820       ??0?$basic_string@DU?$char_traits@D@std@@V?$allocator@D@2@@std@@QAE@PBD@Z 00424820 f i HyMMS:Managed_Object.obj
 0001:00023880       ??1?$basic_string@DU?$char_traits@D@std@@V?$allocator@D@2@@std@@QAE@XZ 00424880 f i HyMMS:Managed_Object.obj
 0001:000238b0       ?assign@?$basic_string@DU?$char_traits@D@std@@V?$allocator@D@2@@std@@QAEAAV12@PBD@Z 004248b0 f i HyMMS:Managed_Object.obj
 0001:000238f0       ?size@?$basic_string@DU?$char_traits@D@std@@V?$allocator@D@2@@std@@QBEIXZ 004248f0 f i HyMMS:Managed_Object.obj
 0001:00023900       ?_Tidy@?$basic_string@DU?$char_traits@D@std@@V?$allocator@D@2@@std@@QAEX_NI@Z 00424900 f i HyMMS:Managed_Object.obj
 0001:00023950       ??0?$allocator@D@std@@QAE@XZ 00424950 f i HyMMS:Managed_Object.obj
 0001:00023960       ??0?$_String_alloc@$0A@U?$_String_base_types@DV?$allocator@D@std@@@std@@@std@@QAE@ABV?$allocator@D@1@@Z 00424960 f i HyMMS:Managed_Object.obj
 0001:00023980       ?_Myptr@?$_String_val@U?$_Simple_types@D@std@@@std@@QBEPBDXZ 00424980 f i HyMMS:Managed_Object.obj
 0001:00023990       ?assign@?$basic_string@DU?$char_traits@D@std@@V?$allocator@D@2@@std@@QAEAAV12@PBDI@Z 00424990 f i HyMMS:Managed_Object.obj
 0001:00023a90       ?_Eos@?$basic_string@DU?$char_traits@D@std@@V?$allocator@D@2@@std@@QAEXI@Z 00424a90 f i HyMMS:Managed_Object.obj
 0001:00023ac0       ?_Xran@?$basic_string@DU?$char_traits@D@std@@V?$allocator@D@2@@std@@QBEXXZ 00424ac0 f i HyMMS:Managed_Object.obj
 0001:00023ad0       ?_Getal@?$_String_alloc@$0A@U?$_String_base_types@DV?$allocator@D@std@@@std@@@std@@QBE?AU?$_Wrap_alloc@V?$allocator@D@std@@@2@XZ 00424ad0 f i HyMMS:Managed_Object.obj
 0001:00023ae0       ?deallocate@?$_Wrap_alloc@V?$allocator@D@std@@@std@@QAEXPADI@Z 00424ae0 f i HyMMS:Managed_Object.obj
 0001:00023b00       ??0?$_String_val@U?$_Simple_types@D@std@@@std@@QAE@XZ 00424b00 f i HyMMS:Managed_Object.obj
 0001:00023b20       ?assign@?$basic_string@DU?$char_traits@D@std@@V?$allocator@D@2@@std@@QAEAAV12@ABV12@II@Z 00424b20 f i HyMMS:Managed_Object.obj
 0001:00023c40       ?_Grow@?$basic_string@DU?$char_traits@D@std@@V?$allocator@D@2@@std@@QAE_NI_N@Z 00424c40 f i HyMMS:Managed_Object.obj
 0001:00023cf0       ?_Inside@?$basic_string@DU?$char_traits@D@std@@V?$allocator@D@2@@std@@QAE_NPBD@Z 00424cf0 f i HyMMS:Managed_Object.obj
 0001:00023d30       ?deallocate@?$allocator@D@std@@QAEXPADI@Z 00424d30 f i HyMMS:Managed_Object.obj
 0001:00023d50       ??0?$_Wrap_alloc@V?$allocator@D@std@@@std@@QAE@XZ 00424d50 f i HyMMS:Managed_Object.obj
 0001:00023d60       ?_Myptr@?$_String_val@U?$_Simple_types@D@std@@@std@@QAEPADXZ 00424d60 f i HyMMS:Managed_Object.obj
 0001:00023d70       ?erase@?$basic_string@DU?$char_traits@D@std@@V?$allocator@D@2@@std@@QAEAAV12@I@Z 00424d70 f i HyMMS:Managed_Object.obj
 0001:00023db0       ?erase@?$basic_string@DU?$char_traits@D@std@@V?$allocator@D@2@@std@@QAEAAV12@II@Z 00424db0 f i HyMMS:Managed_Object.obj
 0001:00023e50       ?max_size@?$basic_string@DU?$char_traits@D@std@@V?$allocator@D@2@@std@@QBEIXZ 00424e50 f i HyMMS:Managed_Object.obj
 0001:00023e60       ?_Copy@?$basic_string@DU?$char_traits@D@std@@V?$allocator@D@2@@std@@QAEXII@Z 00424e60 f i HyMMS:Managed_Object.obj
 0001:00023fc0       ?_Xlen@?$basic_string@DU?$char_traits@D@std@@V?$allocator@D@2@@std@@QBEXXZ 00424fc0 f i HyMMS:Managed_Object.obj
 0001:00023fd0       ?allocate@?$_Wrap_alloc@V?$allocator@D@std@@@std@@QAEPADI@Z 00424fd0 f i HyMMS:Managed_Object.obj
 0001:00024000       ?max_size@?$_Wrap_alloc@V?$allocator@D@std@@@std@@QBEIXZ 00425000 f i HyMMS:Managed_Object.obj
 0001:00024010       ?allocate@?$allocator@D@std@@QAEPADI@Z 00425010 f i HyMMS:Managed_Object.obj
 0001:00024040       ?max_size@?$allocator_traits@V?$allocator@D@std@@@std@@SAIABV?$allocator@D@2@@Z 00425040 f i HyMMS:Managed_Object.obj
 0001:00024050       ?max_size@?$allocator@D@std@@QBEIXZ 00425050 f i HyMMS:Managed_Object.obj
 0001:00024060       ?UnsetNurseryFlag@?$SmartHandle@VManaged_Object@@@@IAEXXZ 00425060 f i HyMMS:Managed_Object.obj
 0001:00024070       ?getNextOffset@?$SmartHandle@VManaged_Object@@@@IAEPAXXZ 00425070 f i HyMMS:Managed_Object.obj
 0001:00024080       ??$destroy@PAD@?$_Wrap_alloc@V?$allocator@D@std@@@std@@QAEXPAPAD@Z 00425080 f i HyMMS:Managed_Object.obj
 0001:00024090       ??$addressof@D@std@@YAPADAAD@Z 00425090 f i HyMMS:Managed_Object.obj
 0001:000240a0       ??$construct@PADAAPAD@?$_Wrap_alloc@V?$allocator@D@std@@@std@@QAEXPAPADAAPAD@Z 004250a0 f i HyMMS:Managed_Object.obj
 0001:000240c0       ??$_Allocate@D@std@@YAPADIPAD@Z 004250c0 f i HyMMS:Managed_Object.obj
 0001:000240f0       ??$destroy@PAD@?$allocator_traits@V?$allocator@D@std@@@std@@SAXAAV?$allocator@D@1@PAPAD@Z 004250f0 f i HyMMS:Managed_Object.obj
 0001:00024100       ??$forward@AAPAD@std@@YAAAPADAAPAD@Z 00425100 f i HyMMS:Managed_Object.obj
 0001:00024110       ??$construct@PADAAPAD@?$allocator_traits@V?$allocator@D@std@@@std@@SAXAAV?$allocator@D@1@PAPADAAPAD@Z 00425110 f i HyMMS:Managed_Object.obj
 0001:00024130       ??$destroy@PAD@?$allocator@D@std@@QAEXPAPAD@Z 00425130 f i HyMMS:Managed_Object.obj
 0001:00024140       ??$construct@PADAAPAD@?$allocator@D@std@@QAEXPAPADAAPAD@Z 00425140 f i HyMMS:Managed_Object.obj
 0001:00024160       ?CreateHeap@GC@@SAXI@Z     00425160 f   HyMMS:GC.obj
 0001:00024280       ?DestroyHeap@GC@@SAXXZ     00425280 f   HyMMS:GC.obj
 0001:00024380       ??_GAllocator@@QAEPAXI@Z   00425380 f i HyMMS:GC.obj
 0001:000243a0       ??_GCompactor@@QAEPAXI@Z   004253a0 f i HyMMS:GC.obj
 0001:000243c0       ??_GTracer@@QAEPAXI@Z      004253c0 f i HyMMS:GC.obj
 0001:000243e0       ??_G?$vector@URefEntry@GC@@V?$allocator@URefEntry@GC@@@std@@@std@@QAEPAXI@Z 004253e0 f i HyMMS:GC.obj
 0001:00024420       ?SetCollectorBudget@GC@@SAXN@Z 00425420 f   HyMMS:GC.obj
 0001:00024470       ?SetLargeObjThreshold@GC@@SAXI@Z 00425470 f   HyMMS:GC.obj
 0001:000244e0       ?IncCollect@GC@@SAXXZ      004254e0 f   HyMMS:GC.obj
 0001:00024570       ?CollectAll@GC@@SAXXZ      00425570 f   HyMMS:GC.obj
 0001:000245c0       ?AllocateAligned@GC@@CAPAXII_N@Z 004255c0 f   HyMMS:GC.obj
 0001:00024620       ?CompactHeap@GC@@CAXXZ     00425620 f   HyMMS:GC.obj
 0001:00024650       ?IncCompactHeap@GC@@CAXN@Z 00425650 f   HyMMS:GC.obj
 0001:000246b0       ?TraceFullHeap@GC@@CAXXZ   004256b0 f   HyMMS:GC.obj
 0001:00024740       ?FullOldGenCollection@GC@@CAXXZ 00425740 f   HyMMS:GC.obj
 0001:00024800       ?NurseryCollect@GC@@CAXXZ  00425800 f   HyMMS:GC.obj
 0001:000248a0       ?RegisterNurseryRoot@GC@@CAXI@Z 004258a0 f   HyMMS:GC.obj
 0001:00024930       ?DeregisterNurseryRoot@GC@@CAXI@Z 00425930 f   HyMMS:GC.obj
 0001:00024990       ?ClearNurseryRoots@GC@@CAXXZ 00425990 f   HyMMS:GC.obj
 0001:000249a0       ?Add@GC@@CAIPAX@Z          004259a0 f   HyMMS:GC.obj
 0001:00024a80       ?Get@GC@@CAPAXI@Z          00425a80 f   HyMMS:GC.obj
 0001:00024ab0       ?RemoveRefAt@GC@@CAXI@Z    00425ab0 f   HyMMS:GC.obj
 0001:00024ae0       ?UpdateRef@GC@@CAXIPAX@Z   00425ae0 f   HyMMS:GC.obj
 0001:00024b00       ?isColour@GC@@CA_NII@Z     00425b00 f   HyMMS:GC.obj
 0001:00024b40       ?isArray@GC@@CA_NI@Z       00425b40 f   HyMMS:GC.obj
 0001:00024b70       ?isFlagSet@GC@@CA_NII@Z    00425b70 f i HyMMS:GC.obj
 0001:00024bb0       ?SetColour@GC@@CAXII@Z     00425bb0 f   HyMMS:GC.obj
 0001:00024bf0       ?SetArrayFlag@GC@@CAXI@Z   00425bf0 f   HyMMS:GC.obj
 0001:00024c20       ?SetHandleArrayFlag@GC@@CAXI@Z 00425c20 f   HyMMS:GC.obj
 0001:00024c50       ?MarkAllWhite@GC@@CAXXZ    00425c50 f   HyMMS:GC.obj
 0001:00024ca0       ?AddToPinnedList@GC@@CAPAVManaged_Object@@PAV2@@Z 00425ca0 f   HyMMS:GC.obj
 0001:00024d80       ?RemoveFromPinnedList@GC@@CAXPAVManaged_Object@@0@Z 00425d80 f   HyMMS:GC.obj
 0001:00024dc0       ?GetTopHeapPtr@GC@@CAPAXXZ 00425dc0 f   HyMMS:GC.obj
 0001:00024dd0       ?GetBaseHeapPtr@GC@@CAPAXXZ 00425dd0 f   HyMMS:GC.obj
 0001:00024de0       ?GetLastAllocObj@GC@@CAPAVManaged_Object@@XZ 00425de0 f   HyMMS:GC.obj
 0001:00024e00       ?IsOnHeap@GC@@CA_NPAX@Z    00425e00 f   HyMMS:GC.obj
 0001:00024e30       ?MightBePinned@GC@@CA_NPAX@Z 00425e30 f   HyMMS:GC.obj
 0001:00024e70       ??0?$vector@IV?$allocator@I@std@@@std@@QAE@XZ 00425e70 f i HyMMS:GC.obj
 0001:00024ea0       ??1?$vector@IV?$allocator@I@std@@@std@@QAE@XZ 00425ea0 f i HyMMS:GC.obj
 0001:00024ee0       ?size@?$vector@IV?$allocator@I@std@@@std@@QBEIXZ 00425ee0 f i HyMMS:GC.obj
 0001:00024ef0       ??A?$vector@IV?$allocator@I@std@@@std@@QAEAAII@Z 00425ef0 f i HyMMS:GC.obj
 0001:00024f00       ?push_back@?$vector@IV?$allocator@I@std@@@std@@QAEXABI@Z 00425f00 f i HyMMS:GC.obj
 0001:00024f80       ?clear@?$vector@IV?$allocator@I@std@@@std@@QAEXXZ 00425f80 f i HyMMS:GC.obj
 0001:00024f90       ??0?$vector@URefEntry@GC@@V?$allocator@URefEntry@GC@@@std@@@std@@QAE@XZ 00425f90 f i HyMMS:GC.obj
 0001:00024fb0       ??1?$vector@URefEntry@GC@@V?$allocator@URefEntry@GC@@@std@@@std@@QAE@XZ 00425fb0 f i HyMMS:GC.obj
 0001:00024fe0       ?size@?$vector@URefEntry@GC@@V?$allocator@URefEntry@GC@@@std@@@std@@QBEIXZ 00425fe0 f i HyMMS:GC.obj
 0001:00024ff0       ??A?$vector@URefEntry@GC@@V?$allocator@URefEntry@GC@@@std@@@std@@QAEAAURefEntry@GC@@I@Z 00425ff0 f i HyMMS:GC.obj
 0001:00025010       ?push_back@?$vector@URefEntry@GC@@V?$allocator@URefEntry@GC@@@std@@@std@@QAEXABURefEntry@GC@@@Z 00426010 f i HyMMS:GC.obj
 0001:00025090       ?_Destroy@?$vector@IV?$allocator@I@std@@@std@@IAEXPAI0@Z 00426090 f i HyMMS:GC.obj
 0001:000250a0       ?_Inside@?$vector@IV?$allocator@I@std@@@std@@IBE_NPBI@Z 004260a0 f i HyMMS:GC.obj
 0001:000250d0       ?_Reserve@?$vector@IV?$allocator@I@std@@@std@@IAEXI@Z 004260d0 f i HyMMS:GC.obj
 0001:00025140       ?_Tidy@?$vector@IV?$allocator@I@std@@@std@@IAEXXZ 00426140 f i HyMMS:GC.obj
 0001:00025180       ?_Orphan_range@?$vector@IV?$allocator@I@std@@@std@@IBEXPAI0@Z 00426180 f i HyMMS:GC.obj
 0001:00025190       ??0?$allocator@I@std@@QAE@XZ 00426190 f i HyMMS:GC.obj
 0001:000251a0       ??0?$_Vector_alloc@$0A@U?$_Vec_base_types@IV?$allocator@I@std@@@std@@@std@@QAE@ABV?$allocator@I@1@@Z 004261a0 f i HyMMS:GC.obj
 0001:000251d0       ?_Getal@?$_Vector_alloc@$0A@U?$_Vec_base_types@IV?$allocator@I@std@@@std@@@std@@QBE?AU?$_Wrap_alloc@V?$allocator@I@std@@@2@XZ 004261d0 f i HyMMS:GC.obj
 0001:000251e0       ?_Inside@?$vector@URefEntry@GC@@V?$allocator@URefEntry@GC@@@std@@@std@@IBE_NPBURefEntry@GC@@@Z 004261e0 f i HyMMS:GC.obj
 0001:00025200       ?_Reserve@?$vector@URefEntry@GC@@V?$allocator@URefEntry@GC@@@std@@@std@@IAEXI@Z 00426200 f i HyMMS:GC.obj
 0001:00025270       ?_Tidy@?$vector@URefEntry@GC@@V?$allocator@URefEntry@GC@@@std@@@std@@IAEXXZ 00426270 f i HyMMS:GC.obj
 0001:000252a0       ?_Orphan_range@?$vector@URefEntry@GC@@V?$allocator@URefEntry@GC@@@std@@@std@@IBEXPAURefEntry@GC@@0@Z 004262a0 f i HyMMS:GC.obj
 0001:000252b0       ??0?$allocator@URefEntry@GC@@@std@@QAE@XZ 004262b0 f i HyMMS:GC.obj
 0001:000252c0       ??0?$_Vector_alloc@$0A@U?$_Vec_base_types@URefEntry@GC@@V?$allocator@URefEntry@GC@@@std@@@std@@@std@@QAE@ABV?$allocator@URefEntry@GC@@@1@@Z 004262c0 f i HyMMS:GC.obj
 0001:000252e0       ?_Getal@?$_Vector_alloc@$0A@U?$_Vec_base_types@URefEntry@GC@@V?$allocator@URefEntry@GC@@@std@@@std@@@std@@QBE?AU?$_Wrap_alloc@V?$allocator@URefEntry@GC@@@std@@@2@XZ 004262e0 f i HyMMS:GC.obj
 0001:000252f0       ?_Unused_capacity@?$vector@IV?$allocator@I@std@@@std@@QBEIXZ 004262f0 f i HyMMS:GC.obj
 0001:00025300       ?max_size@?$vector@IV?$allocator@I@std@@@std@@QBEIXZ 00426300 f i HyMMS:GC.obj
 0001:00025310       ?_Grow_to@?$vector@IV?$allocator@I@std@@@std@@IBEII@Z 00426310 f i HyMMS:GC.obj
 0001:00025350       ?_Reallocate@?$vector@IV?$allocator@I@std@@@std@@IAEXI@Z 00426350 f i HyMMS:GC.obj
 0001:000253e0       ?_Xlen@?$vector@IV?$allocator@I@std@@@std@@IBEXXZ 004263e0 f i HyMMS:GC.obj
 0001:000253f0       ??0?$_Wrap_alloc@V?$allocator@I@std@@@std@@QAE@XZ 004263f0 f i HyMMS:GC.obj
 0001:00025400       ?deallocate@?$_Wrap_alloc@V?$allocator@I@std@@@std@@QAEXPAII@Z 00426400 f i HyMMS:GC.obj
 0001:00025420       ??0?$_Vector_val@U?$_Simple_types@I@std@@@std@@QAE@XZ 00426420 f i HyMMS:GC.obj
 0001:00025450       ?_Unused_capacity@?$vector@URefEntry@GC@@V?$allocator@URefEntry@GC@@@std@@@std@@QBEIXZ 00426450 f i HyMMS:GC.obj
 0001:00025460       ?max_size@?$vector@URefEntry@GC@@V?$allocator@URefEntry@GC@@@std@@@std@@QBEIXZ 00426460 f i HyMMS:GC.obj
 0001:00025470       ?_Destroy@?$vector@URefEntry@GC@@V?$allocator@URefEntry@GC@@@std@@@std@@IAEXPAURefEntry@GC@@0@Z 00426470 f i HyMMS:GC.obj
 0001:00025480       ?_Grow_to@?$vector@URefEntry@GC@@V?$allocator@URefEntry@GC@@@std@@@std@@IBEII@Z 00426480 f i HyMMS:GC.obj
 0001:000254c0       ?_Reallocate@?$vector@URefEntry@GC@@V?$allocator@URefEntry@GC@@@std@@@std@@IAEXI@Z 004264c0 f i HyMMS:GC.obj
 0001:00025540       ?_Xlen@?$vector@URefEntry@GC@@V?$allocator@URefEntry@GC@@@std@@@std@@IBEXXZ 00426540 f i HyMMS:GC.obj
 0001:00025550       ??0?$_Wrap_alloc@V?$allocator@URefEntry@GC@@@std@@@std@@QAE@XZ 00426550 f i HyMMS:GC.obj
 0001:00025560       ?deallocate@?$_Wrap_alloc@V?$allocator@URefEntry@GC@@@std@@@std@@QAEXPAURefEntry@GC@@I@Z 00426560 f i HyMMS:GC.obj
 0001:00025580       ??0?$_Vector_val@U?$_Simple_types@URefEntry@GC@@@std@@@std@@QAE@XZ 00426580 f i HyMMS:GC.obj
 0001:000255a0       ?capacity@?$vector@IV?$allocator@I@std@@@std@@QBEIXZ 004265a0 f i HyMMS:GC.obj
 0001:000255b0       ?deallocate@?$allocator@I@std@@QAEXPAII@Z 004265b0 f i HyMMS:GC.obj
 0001:000255d0       ?allocate@?$_Wrap_alloc@V?$allocator@I@std@@@std@@QAEPAII@Z 004265d0 f i HyMMS:GC.obj
 0001:00025610       ?max_size@?$_Wrap_alloc@V?$allocator@I@std@@@std@@QBEIXZ 00426610 f i HyMMS:GC.obj
 0001:00025620       ?capacity@?$vector@URefEntry@GC@@V?$allocator@URefEntry@GC@@@std@@@std@@QBEIXZ 00426620 f i HyMMS:GC.obj
 0001:00025630       ?deallocate@?$allocator@URefEntry@GC@@@std@@QAEXPAURefEntry@GC@@I@Z 00426630 f i HyMMS:GC.obj
 0001:00025650       ?allocate@?$_Wrap_alloc@V?$allocator@URefEntry@GC@@@std@@@std@@QAEPAURefEntry@GC@@I@Z 00426650 f i HyMMS:GC.obj
 0001:00025690       ?max_size@?$_Wrap_alloc@V?$allocator@URefEntry@GC@@@std@@@std@@QBEIXZ 00426690 f i HyMMS:GC.obj
 0001:000256a0       ?allocate@?$allocator@I@std@@QAEPAII@Z 004266a0 f i HyMMS:GC.obj
 0001:000256e0       ?max_size@?$allocator_traits@V?$allocator@I@std@@@std@@SAIABV?$allocator@I@2@@Z 004266e0 f i HyMMS:GC.obj
 0001:000256f0       ?allocate@?$allocator@URefEntry@GC@@@std@@QAEPAURefEntry@GC@@I@Z 004266f0 f i HyMMS:GC.obj
 0001:00025730       ?max_size@?$allocator_traits@V?$allocator@URefEntry@GC@@@std@@@std@@SAIABV?$allocator@URefEntry@GC@@@2@@Z 00426730 f i HyMMS:GC.obj
 0001:00025740       ?max_size@?$allocator@I@std@@QBEIXZ 00426740 f i HyMMS:GC.obj
 0001:00025750       ?max_size@?$allocator@URefEntry@GC@@@std@@QBEIXZ 00426750 f i HyMMS:GC.obj
 0001:00025760       ??$addressof@$$CBI@std@@YAPBIABI@Z 00426760 f i HyMMS:GC.obj
 0001:00025770       ??$construct@IAAI@?$_Wrap_alloc@V?$allocator@I@std@@@std@@QAEXPAIAAI@Z 00426770 f i HyMMS:GC.obj
 0001:00025790       ??$construct@IABI@?$_Wrap_alloc@V?$allocator@I@std@@@std@@QAEXPAIABI@Z 00426790 f i HyMMS:GC.obj
 0001:000257b0       ??$addressof@$$CBURefEntry@GC@@@std@@YAPBURefEntry@GC@@ABU12@@Z 004267b0 f i HyMMS:GC.obj
 0001:000257c0       ??$construct@URefEntry@GC@@AAU12@@?$_Wrap_alloc@V?$allocator@URefEntry@GC@@@std@@@std@@QAEXPAURefEntry@GC@@AAU23@@Z 004267c0 f i HyMMS:GC.obj
 0001:000257e0       ??$construct@URefEntry@GC@@ABU12@@?$_Wrap_alloc@V?$allocator@URefEntry@GC@@@std@@@std@@QAEXPAURefEntry@GC@@ABU23@@Z 004267e0 f i HyMMS:GC.obj
 0001:00025800       ??$_Destroy_range@U?$_Wrap_alloc@V?$allocator@I@std@@@std@@@std@@YAXPAI0AAU?$_Wrap_alloc@V?$allocator@I@std@@@0@@Z 00426800 f i HyMMS:GC.obj
 0001:00025810       ??$_Umove@PAI@?$vector@IV?$allocator@I@std@@@std@@IAEPAIPAI00@Z 00426810 f i HyMMS:GC.obj
 0001:00025840       ??$_Destroy_range@U?$_Wrap_alloc@V?$allocator@URefEntry@GC@@@std@@@std@@@std@@YAXPAURefEntry@GC@@0AAU?$_Wrap_alloc@V?$allocator@URefEntry@GC@@@std@@@0@@Z 00426840 f i HyMMS:GC.obj
 0001:00025850       ??$_Umove@PAURefEntry@GC@@@?$vector@URefEntry@GC@@V?$allocator@URefEntry@GC@@@std@@@std@@IAEPAURefEntry@GC@@PAU23@00@Z 00426850 f i HyMMS:GC.obj
 0001:00025870       ??$_Allocate@I@std@@YAPAIIPAI@Z 00426870 f i HyMMS:GC.obj
 0001:000258a0       ??$_Allocate@URefEntry@GC@@@std@@YAPAURefEntry@GC@@IPAU12@@Z 004268a0 f i HyMMS:GC.obj
 0001:000258d0       ??$forward@AAI@std@@YAAAIAAI@Z 004268d0 f i HyMMS:GC.obj
 0001:000258e0       ??$construct@IAAI@?$allocator_traits@V?$allocator@I@std@@@std@@SAXAAV?$allocator@I@1@PAIAAI@Z 004268e0 f i HyMMS:GC.obj
 0001:000258f0       ??$forward@ABI@std@@YAABIABI@Z 004268f0 f i HyMMS:GC.obj
 0001:00025900       ??$construct@IABI@?$allocator_traits@V?$allocator@I@std@@@std@@SAXAAV?$allocator@I@1@PAIABI@Z 00426900 f i HyMMS:GC.obj
 0001:00025910       ??$forward@AAURefEntry@GC@@@std@@YAAAURefEntry@GC@@AAU12@@Z 00426910 f i HyMMS:GC.obj
 0001:00025920       ??$construct@URefEntry@GC@@AAU12@@?$allocator_traits@V?$allocator@URefEntry@GC@@@std@@@std@@SAXAAV?$allocator@URefEntry@GC@@@1@PAURefEntry@GC@@AAU34@@Z 00426920 f i HyMMS:GC.obj
 0001:00025940       ??$forward@ABURefEntry@GC@@@std@@YAABURefEntry@GC@@ABU12@@Z 00426940 f i HyMMS:GC.obj
 0001:00025950       ??$construct@URefEntry@GC@@ABU12@@?$allocator_traits@V?$allocator@URefEntry@GC@@@std@@@std@@SAXAAV?$allocator@URefEntry@GC@@@1@PAURefEntry@GC@@ABU34@@Z 00426950 f i HyMMS:GC.obj
 0001:00025970       ??$_Ptr_cat@II@std@@YA?AU_Scalar_ptr_iterator_tag@0@PAI0@Z 00426970 f i HyMMS:GC.obj
 0001:00025980       ??$_Destroy_range@U?$_Wrap_alloc@V?$allocator@I@std@@@std@@@std@@YAXPAI0AAU?$_Wrap_alloc@V?$allocator@I@std@@@0@U_Scalar_ptr_iterator_tag@0@@Z 00426980 f i HyMMS:GC.obj
 0001:00025990       ??$_Uninitialized_move@PAIPAIU?$_Wrap_alloc@V?$allocator@I@std@@@std@@@std@@YAPAIPAI00AAU?$_Wrap_alloc@V?$allocator@I@std@@@0@@Z 00426990 f i HyMMS:GC.obj
 0001:000259c0       ??$_Ptr_cat@URefEntry@GC@@U12@@std@@YA?AU_Nonscalar_ptr_iterator_tag@0@PAURefEntry@GC@@0@Z 004269c0 f i HyMMS:GC.obj
 0001:000259d0       ??$_Destroy_range@U?$_Wrap_alloc@V?$allocator@URefEntry@GC@@@std@@@std@@@std@@YAXPAURefEntry@GC@@0AAU?$_Wrap_alloc@V?$allocator@URefEntry@GC@@@std@@@0@U_Nonscalar_ptr_iterator_tag@0@@Z 004269d0 f i HyMMS:GC.obj
 0001:000259e0       ??$_Uninitialized_move@PAURefEntry@GC@@PAU12@U?$_Wrap_alloc@V?$allocator@URefEntry@GC@@@std@@@std@@@std@@YAPAURefEntry@GC@@PAU12@00AAU?$_Wrap_alloc@V?$allocator@URefEntry@GC@@@std@@@0@@Z 004269e0 f i HyMMS:GC.obj
 0001:00025a00       ?construct@?$allocator@I@std@@QAEXPAIABI@Z 00426a00 f i HyMMS:GC.obj
 0001:00025a20       ?construct@?$allocator@URefEntry@GC@@@std@@QAEXPAURefEntry@GC@@ABU34@@Z 00426a20 f i HyMMS:GC.obj
 0001:00025a40       ??$construct@IAAI@?$allocator@I@std@@QAEXPAIAAI@Z 00426a40 f i HyMMS:GC.obj
 0001:00025a60       ??$construct@URefEntry@GC@@AAU12@@?$allocator@URefEntry@GC@@@std@@QAEXPAURefEntry@GC@@AAU23@@Z 00426a60 f i HyMMS:GC.obj
 0001:00025a80       ??$_Val_type@PAI@std@@YAPAIPAI@Z 00426a80 f i HyMMS:GC.obj
 0001:00025a90       ??$_Uninit_move@III@std@@YAPAIPAI00AAU?$_Wrap_alloc@V?$allocator@I@std@@@0@0U_Scalar_ptr_iterator_tag@0@@Z 00426a90 f i HyMMS:GC.obj
 0001:00025ac0       ??$destroy@URefEntry@GC@@@?$_Wrap_alloc@V?$allocator@URefEntry@GC@@@std@@@std@@QAEXPAURefEntry@GC@@@Z 00426ac0 f i HyMMS:GC.obj
 0001:00025ad0       ??$_Val_type@PAURefEntry@GC@@@std@@YAPAURefEntry@GC@@PAU12@@Z 00426ad0 f i HyMMS:GC.obj
 0001:00025ae0       ??$_Uninit_move@PAURefEntry@GC@@PAU12@V?$allocator@URefEntry@GC@@@std@@U12@@std@@YAPAURefEntry@GC@@PAU12@00AAU?$_Wrap_alloc@V?$allocator@URefEntry@GC@@@std@@@0@0U_Nonscalar_ptr_iterator_tag@0@@Z 00426ae0 f i HyMMS:GC.obj
 0001:00025b10       ??$destroy@URefEntry@GC@@@?$allocator_traits@V?$allocator@URefEntry@GC@@@std@@@std@@SAXAAV?$allocator@URefEntry@GC@@@1@PAURefEntry@GC@@@Z 00426b10 f i HyMMS:GC.obj
 0001:00025b20       ??$construct@URefEntry@GC@@U12@@?$_Wrap_alloc@V?$allocator@URefEntry@GC@@@std@@@std@@QAEXPAURefEntry@GC@@$$QAU23@@Z 00426b20 f i HyMMS:GC.obj
 0001:00025b40       ??$destroy@URefEntry@GC@@@?$allocator@URefEntry@GC@@@std@@QAEXPAURefEntry@GC@@@Z 00426b40 f i HyMMS:GC.obj
 0001:00025b50       ??$forward@URefEntry@GC@@@std@@YA$$QAURefEntry@GC@@AAU12@@Z 00426b50 f i HyMMS:GC.obj
 0001:00025b60       ??$construct@URefEntry@GC@@U12@@?$allocator_traits@V?$allocator@URefEntry@GC@@@std@@@std@@SAXAAV?$allocator@URefEntry@GC@@@1@PAURefEntry@GC@@$$QAU34@@Z 00426b60 f i HyMMS:GC.obj
 0001:00025b80       ??$construct@URefEntry@GC@@U12@@?$allocator@URefEntry@GC@@@std@@QAEXPAURefEntry@GC@@$$QAU23@@Z 00426b80 f i HyMMS:GC.obj
 0001:00025ba0       ?CurrentTimeInMS@GCTimer@@SANXZ 00426ba0 f   HyMMS:GCTimer.obj
 0001:00025c00       ??0Allocator@@QAE@I@Z      00426c00 f   HyMMS:Allocator.obj
 0001:00025c30       ?allocate@Allocator@@QAEPAXI_N@Z 00426c30 f   HyMMS:Allocator.obj
 0001:00025c50       ?allocateAligned@Allocator@@QAEPAXII_N@Z 00426c50 f   HyMMS:Allocator.obj
 0001:00025cc0       ??1Allocator@@QAE@XZ       00426cc0 f   HyMMS:Allocator.obj
 0001:00025cd0       ?setTopPtr@Allocator@@AAEXPAX@Z 00426cd0 f   HyMMS:Allocator.obj
 0001:00025cf0       ??0Compactor@@QAE@XZ       00426cf0 f   HyMMS:Compactor.obj
 0001:00025d10       ??1Compactor@@QAE@XZ       00426d10 f   HyMMS:Compactor.obj
 0001:00025d20       ?Compact@Compactor@@QAEPAXPAX0AAPAX@Z 00426d20 f   HyMMS:Compactor.obj
 0001:00025e60       ?SetIncHeapStart@Compactor@@QAEXPAX@Z 00426e60 f   HyMMS:Compactor.obj
 0001:00025e90       ?SetIncHeapEnd@Compactor@@QAEXPAX@Z 00426e90 f   HyMMS:Compactor.obj
 0001:00025ec0       ?IncrementalCompact@Compactor@@QAEPAXAAPAXN@Z 00426ec0 f   HyMMS:Compactor.obj
 0001:00026160       ?NurseryCompact@Compactor@@QAEPAXPAX0AAPAX@Z 00427160 f   HyMMS:Compactor.obj
 0001:00026290       ?HandleLiveObject@Compactor@@AAEPAXAAPAXAAPAVManaged_Object@@AAI00@Z 00427290 f   HyMMS:Compactor.obj
 0001:000263a0       ?HandleDeadObject@Compactor@@AAEXAAPAXAAIPAX22@Z 004273a0 f   HyMMS:Compactor.obj
 0001:00026450       ?nextArray@?$Managed_Array@VManaged_Object@@@@AAEAAPAXXZ 00427450 f i HyMMS:Compactor.obj
 0001:00026460       ??0Tracer@@QAE@XZ          00427460 f   HyMMS:Tracer.obj
 0001:00026470       ??1Tracer@@QAE@XZ          00427470 f   HyMMS:Tracer.obj
 0001:00026480       ?TraceOldGen@Tracer@@AAEXPAX@Z 00427480 f   HyMMS:Tracer.obj
 0001:000264a0       ?TraceAllRoots@Tracer@@AAEXPAX@Z 004274a0 f   HyMMS:Tracer.obj
 0001:00026510       ?IncrementalTrace@Tracer@@AAENN@Z 00427510 f   HyMMS:Tracer.obj
 0001:00026850       ?MarkChildrenGrey@Tracer@@AAEXPAVManaged_Object@@@Z 00427850 f   HyMMS:Tracer.obj
 0001:00026950       ?TraceNursery@Tracer@@AAEXPAVManaged_Object@@0PAV?$vector@IV?$allocator@I@std@@@std@@@Z 00427950 f   HyMMS:Tracer.obj
 0001:00026990       ?TraceNurseryRoots@Tracer@@AAEXPAV?$vector@IV?$allocator@I@std@@@std@@@Z 00427990 f   HyMMS:Tracer.obj
 0001:00026a00       ?TraceHeap@Tracer@@AAEXPAVManaged_Object@@PAX_N@Z 00427a00 f   HyMMS:Tracer.obj
 0001:00026b60       ?c_str@?$basic_string@DU?$char_traits@D@std@@V?$allocator@D@2@@std@@QBEPBDXZ 00427b60 f i ContentManager.obj
 0001:00026b80       ?GetWidth@Texture2D@@QAEGXZ 00427b80 f i ContentManager.obj
 0001:00026ba0       ?GetHeight@Texture2D@@QAEGXZ 00427ba0 f i ContentManager.obj
 0001:00026bc0       ?GetImage@Texture2D@@QAEPAEXZ 00427bc0 f i ContentManager.obj
 0001:00026be0       ??0ContentManager@@QAE@XZ  00427be0 f   ContentManager.obj
 0001:00026c10       ??1ContentManager@@UAE@XZ  00427c10 f   ContentManager.obj
 0001:00026c40       ??_EContentManager@@UAEPAXI@Z 00427c40 f i ContentManager.obj
 0001:00026c40       ??_GContentManager@@UAEPAXI@Z 00427c40 f i ContentManager.obj
 0001:00026c80       ??$Load@VTexture2D@@@ContentManager@@QAE?AV?$SmartHandle@VTexture2D@@@@V?$basic_string@DU?$char_traits@D@std@@V?$allocator@D@2@@std@@@Z 00427c80 f   ContentManager.obj
 0001:00026e40       ??0?$SmartHandle@VTexture2D@@@@QAE@PAVTexture2D@@@Z 00427e40 f i ContentManager.obj
 0001:00026e90       ??0?$SmartHandle@VTexture2D@@@@QAE@ABV0@@Z 00427e90 f i ContentManager.obj
 0001:00026ed0       ??0?$SmartHandle@VTexture2D@@@@QAE@H@Z 00427ed0 f i ContentManager.obj
 0001:00026f20       ??1?$SmartHandle@VTexture2D@@@@QAE@XZ 00427f20 f i ContentManager.obj
 0001:00026f80       ??C?$SmartHandle@VTexture2D@@@@QAEPAVTexture2D@@XZ 00427f80 f i ContentManager.obj
 0001:00026ff0       ?init@?$SmartHandle@VTexture2D@@@@IAEXXZ 00427ff0 f i ContentManager.obj
 0001:000271b0       ?WriteBarrier@?$SmartHandle@VTexture2D@@@@IAEXI@Z 004281b0 f i ContentManager.obj
 0001:00027260       ?insertSelfIntoList@?$SmartHandle@VTexture2D@@@@IAEXPAXAAPAX@Z 00428260 f i ContentManager.obj
 0001:000272d0       ?UnsetNurseryFlag@?$SmartHandle@VTexture2D@@@@IAEXXZ 004282d0 f i ContentManager.obj
 0001:00027300       ?UnsetRootFlag@?$SmartHandle@VTexture2D@@@@IAEXXZ 00428300 f i ContentManager.obj
 0001:00027330       ?SetNurseryFlag@?$SmartHandle@VTexture2D@@@@IAEXXZ 00428330 f i ContentManager.obj
 0001:00027360       ?SetRootFlag@?$SmartHandle@VTexture2D@@@@IAEXXZ 00428360 f i ContentManager.obj
 0001:00027390       ??$DeregisterRootHandle@VTexture2D@@@GC@@CAXPAV?$SmartHandle@VTexture2D@@@@@Z 00428390 f i ContentManager.obj
 0001:00027440       ??$RegisterHandle@VTexture2D@@@Managed_Object@@AAEXPAV?$SmartHandle@VTexture2D@@@@@Z 00428440 f i ContentManager.obj
 0001:000274d0       ??$RegisterRootHandle@VTexture2D@@@GC@@CAXPAV?$SmartHandle@VTexture2D@@@@@Z 004284d0 f i ContentManager.obj
 0001:00027540       ?_Adopt@_Iterator_base0@std@@QAEXPBX@Z 00428540 f i Demo.obj
 0001:00027560       ??$swap@H@std@@YAXAAH0@Z   00428560 f i Demo.obj
 0001:000275b0       ??C?$SmartHandle@VContentManager@@@@QAEPAVContentManager@@XZ 004285b0 f i Demo.obj
 0001:00027620       ?R@DemoColour@@QAEAAMXZ    00428620 f i Demo.obj
 0001:00027640       ?G@DemoColour@@QAEAAMXZ    00428640 f i Demo.obj
 0001:00027660       ?B@DemoColour@@QAEAAMXZ    00428660 f i Demo.obj
 0001:00027680       ?A@DemoColour@@QAEAAMXZ    00428680 f i Demo.obj
 0001:000276a0       ??0?$SmartHandle@VTexture2D@@@@QAE@XZ 004286a0 f i Demo.obj
 0001:000276d0       ??4?$SmartHandle@VTexture2D@@@@QAEAAV0@ABV0@@Z 004286d0 f i Demo.obj
 0001:00027710       ??0b2BodyDef@@QAE@XZ       00428710 f i Demo.obj
 0001:00027810       ?GetPosition@b2Body@@QBEABUb2Vec2@@XZ 00428810 f i Demo.obj
 0001:00027830       ?GetUserData@b2Body@@QBEPAXXZ 00428830 f i Demo.obj
 0001:00027850       ?SetUserData@b2Body@@QAEXPAX@Z 00428850 f i Demo.obj
 0001:00027880       ?TestPoint@b2Fixture@@QBE_NABUb2Vec2@@@Z 00428880 f i Demo.obj
 0001:000278c0       ??1b2QueryCallback@@UAE@XZ 004288c0 f i Demo.obj
 0001:000278e0       ??0b2QueryCallback@@QAE@XZ 004288e0 f i Demo.obj
 0001:00027900       ??_Eb2QueryCallback@@UAEPAXI@Z 00428900 f i Demo.obj
 0001:00027900       ??_Gb2QueryCallback@@UAEPAXI@Z 00428900 f i Demo.obj
 0001:00027940       ??0b2JointDef@@QAE@XZ      00428940 f i Demo.obj
 0001:00027990       ??0b2MouseJointDef@@QAE@XZ 00428990 f i Demo.obj
 0001:00027a20       ?Width@GameObject@@QAEAAMXZ 00428a20 f i Demo.obj
 0001:00027a50       ?Height@GameObject@@QAEAAMXZ 00428a50 f i Demo.obj
 0001:00027a80       ??0Demo@@QAE@PAUHDC__@@@Z  00428a80 f   Demo.obj
 0001:00027cf0       ??1Demo@@UAE@XZ            00428cf0 f   Demo.obj
 0001:00027e60       ?Initialize@Demo@@UAEXXZ   00428e60 f   Demo.obj
 0001:00028990       ?LoadContent@Demo@@UAEXXZ  00429990 f   Demo.obj
 0001:00028db0       ?Update@Demo@@UAEXN@Z      00429db0 f   Demo.obj
 0001:00029160       ?Draw@Demo@@UAEXN@Z        0042a160 f   Demo.obj
 0001:00029650       ?AddGameObject@Demo@@QAE_NV?$SmartHandle@VGameObject@@@@@Z 0042a650 f   Demo.obj
 0001:00029770       ?SpawnObject@Demo@@QAEXXZ  0042a770 f   Demo.obj
 0001:00029b60       ?ToWorld@Demo@@AAE?AUb2Vec2@@MM@Z 0042ab60 f   Demo.obj
 0001:00029bc0       ?ToScreen@Demo@@AAE?AUb2Vec2@@MM@Z 0042abc0 f   Demo.obj
 0001:00029c20       ?MouseDown@Demo@@AAEXABUb2Vec2@@@Z 0042ac20 f   Demo.obj
 0001:00029ee0       ?MouseUp@Demo@@AAEXABUb2Vec2@@@Z 0042aee0 f   Demo.obj
 0001:0002a040       ?MouseMove@Demo@@AAEXABUb2Vec2@@@Z 0042b040 f   Demo.obj
 0001:0002a080       ??0?$SmartHandle@VSpriteBatch@@@@QAE@XZ 0042b080 f i Demo.obj
 0001:0002a0b0       ??0?$SmartHandle@VSpriteBatch@@@@QAE@PAVSpriteBatch@@@Z 0042b0b0 f i Demo.obj
 0001:0002a100       ??1?$SmartHandle@VSpriteBatch@@@@QAE@XZ 0042b100 f i Demo.obj
 0001:0002a160       ??C?$SmartHandle@VSpriteBatch@@@@QAEPAVSpriteBatch@@XZ 0042b160 f i Demo.obj
 0001:0002a1d0       ??4?$SmartHandle@VSpriteBatch@@@@QAEAAV0@ABV0@@Z 0042b1d0 f i Demo.obj
 0001:0002a210       ?init@?$SmartHandle@VSpriteBatch@@@@IAEXXZ 0042b210 f i Demo.obj
 0001:0002a3d0       ?WriteBarrier@?$SmartHandle@VSpriteBatch@@@@IAEXI@Z 0042b3d0 f i Demo.obj
 0001:0002a480       ?insertSelfIntoList@?$SmartHandle@VSpriteBatch@@@@IAEXPAXAAPAX@Z 0042b480 f i Demo.obj
 0001:0002a4f0       ?UnsetNurseryFlag@?$SmartHandle@VSpriteBatch@@@@IAEXXZ 0042b4f0 f i Demo.obj
 0001:0002a520       ?UnsetRootFlag@?$SmartHandle@VSpriteBatch@@@@IAEXXZ 0042b520 f i Demo.obj
 0001:0002a550       ?SetNurseryFlag@?$SmartHandle@VSpriteBatch@@@@IAEXXZ 0042b550 f i Demo.obj
 0001:0002a580       ?SetRootFlag@?$SmartHandle@VSpriteBatch@@@@IAEXXZ 0042b580 f i Demo.obj
 0001:0002a5b0       ??0?$SmartHandle@V?$Unmanaged_Array@V?$SmartHandle@VGameObject@@@@@@@@QAE@XZ 0042b5b0 f i Demo.obj
 0001:0002a5e0       ??0?$SmartHandle@V?$Unmanaged_Array@V?$SmartHandle@VGameObject@@@@@@@@QAE@PAV?$Unmanaged_Array@V?$SmartHandle@VGameObject@@@@@@@Z 0042b5e0 f i Demo.obj
 0001:0002a630       ??1?$SmartHandle@V?$Unmanaged_Array@V?$SmartHandle@VGameObject@@@@@@@@QAE@XZ 0042b630 f i Demo.obj
 0001:0002a690       ??4?$SmartHandle@V?$Unmanaged_Array@V?$SmartHandle@VGameObject@@@@@@@@QAEAAV0@ABV0@@Z 0042b690 f i Demo.obj
 0001:0002a6d0       ?init@?$SmartHandle@V?$Unmanaged_Array@V?$SmartHandle@VGameObject@@@@@@@@IAEXXZ 0042b6d0 f i Demo.obj
 0001:0002a890       ?WriteBarrier@?$SmartHandle@V?$Unmanaged_Array@V?$SmartHandle@VGameObject@@@@@@@@IAEXI@Z 0042b890 f i Demo.obj
 0001:0002a940       ?insertSelfIntoList@?$SmartHandle@V?$Unmanaged_Array@V?$SmartHandle@VGameObject@@@@@@@@IAEXPAXAAPAX@Z 0042b940 f i Demo.obj
 0001:0002a9b0       ?UnsetNurseryFlag@?$SmartHandle@V?$Unmanaged_Array@V?$SmartHandle@VGameObject@@@@@@@@IAEXXZ 0042b9b0 f i Demo.obj
 0001:0002a9e0       ?UnsetRootFlag@?$SmartHandle@V?$Unmanaged_Array@V?$SmartHandle@VGameObject@@@@@@@@IAEXXZ 0042b9e0 f i Demo.obj
 0001:0002aa10       ?SetNurseryFlag@?$SmartHandle@V?$Unmanaged_Array@V?$SmartHandle@VGameObject@@@@@@@@IAEXXZ 0042ba10 f i Demo.obj
 0001:0002aa40       ?SetRootFlag@?$SmartHandle@V?$Unmanaged_Array@V?$SmartHandle@VGameObject@@@@@@@@IAEXXZ 0042ba40 f i Demo.obj
 0001:0002aa70       ??0?$UnmanagedArrHandle@V?$SmartHandle@VGameObject@@@@@@QAE@XZ 0042ba70 f i Demo.obj
 0001:0002aa90       ??0?$UnmanagedArrHandle@V?$SmartHandle@VGameObject@@@@@@QAE@PAV?$Unmanaged_Array@V?$SmartHandle@VGameObject@@@@@@@Z 0042ba90 f i Demo.obj
 0001:0002aac0       ??1?$UnmanagedArrHandle@V?$SmartHandle@VGameObject@@@@@@QAE@XZ 0042bac0 f i Demo.obj
 0001:0002aae0       ??A?$UnmanagedArrHandle@V?$SmartHandle@VGameObject@@@@@@QAEAAV?$SmartHandle@VGameObject@@@@H@Z 0042bae0 f i Demo.obj
 0001:0002ab90       ??4?$UnmanagedArrHandle@V?$SmartHandle@VGameObject@@@@@@QAEAAV0@ABV0@@Z 0042bb90 f i Demo.obj
 0001:0002abc0       ??0?$HndlArrHandle@VGameObject@@@@QAE@XZ 0042bbc0 f i Demo.obj
 0001:0002abe0       ??0?$HndlArrHandle@VGameObject@@@@QAE@PAV?$Handle_Array@VGameObject@@@@@Z 0042bbe0 f i Demo.obj
 0001:0002ac10       ??1?$HndlArrHandle@VGameObject@@@@QAE@XZ 0042bc10 f i Demo.obj
 0001:0002ac30       ??4?$HndlArrHandle@VGameObject@@@@QAEAAV0@ABV0@@Z 0042bc30 f i Demo.obj
 0001:0002ac60       ??0?$SmartHandle@V?$Unmanaged_Array@V?$SmartHandle@VDemoButton@@@@@@@@QAE@XZ 0042bc60 f i Demo.obj
 0001:0002ac90       ??0?$SmartHandle@V?$Unmanaged_Array@V?$SmartHandle@VDemoButton@@@@@@@@QAE@PAV?$Unmanaged_Array@V?$SmartHandle@VDemoButton@@@@@@@Z 0042bc90 f i Demo.obj
 0001:0002ace0       ??1?$SmartHandle@V?$Unmanaged_Array@V?$SmartHandle@VDemoButton@@@@@@@@QAE@XZ 0042bce0 f i Demo.obj
 0001:0002ad40       ??4?$SmartHandle@V?$Unmanaged_Array@V?$SmartHandle@VDemoButton@@@@@@@@QAEAAV0@ABV0@@Z 0042bd40 f i Demo.obj
 0001:0002ad80       ?init@?$SmartHandle@V?$Unmanaged_Array@V?$SmartHandle@VDemoButton@@@@@@@@IAEXXZ 0042bd80 f i Demo.obj
 0001:0002af40       ?WriteBarrier@?$SmartHandle@V?$Unmanaged_Array@V?$SmartHandle@VDemoButton@@@@@@@@IAEXI@Z 0042bf40 f i Demo.obj
 0001:0002aff0       ?insertSelfIntoList@?$SmartHandle@V?$Unmanaged_Array@V?$SmartHandle@VDemoButton@@@@@@@@IAEXPAXAAPAX@Z 0042bff0 f i Demo.obj
 0001:0002b060       ?UnsetNurseryFlag@?$SmartHandle@V?$Unmanaged_Array@V?$SmartHandle@VDemoButton@@@@@@@@IAEXXZ 0042c060 f i Demo.obj
 0001:0002b090       ?UnsetRootFlag@?$SmartHandle@V?$Unmanaged_Array@V?$SmartHandle@VDemoButton@@@@@@@@IAEXXZ 0042c090 f i Demo.obj
 0001:0002b0c0       ?SetNurseryFlag@?$SmartHandle@V?$Unmanaged_Array@V?$SmartHandle@VDemoButton@@@@@@@@IAEXXZ 0042c0c0 f i Demo.obj
 0001:0002b0f0       ?SetRootFlag@?$SmartHandle@V?$Unmanaged_Array@V?$SmartHandle@VDemoButton@@@@@@@@IAEXXZ 0042c0f0 f i Demo.obj
 0001:0002b120       ??0?$UnmanagedArrHandle@V?$SmartHandle@VDemoButton@@@@@@QAE@XZ 0042c120 f i Demo.obj
 0001:0002b140       ??0?$UnmanagedArrHandle@V?$SmartHandle@VDemoButton@@@@@@QAE@PAV?$Unmanaged_Array@V?$SmartHandle@VDemoButton@@@@@@@Z 0042c140 f i Demo.obj
 0001:0002b170       ??1?$UnmanagedArrHandle@V?$SmartHandle@VDemoButton@@@@@@QAE@XZ 0042c170 f i Demo.obj
 0001:0002b190       ??A?$UnmanagedArrHandle@V?$SmartHandle@VDemoButton@@@@@@QAEAAV?$SmartHandle@VDemoButton@@@@H@Z 0042c190 f i Demo.obj
 0001:0002b240       ??4?$UnmanagedArrHandle@V?$SmartHandle@VDemoButton@@@@@@QAEAAV0@ABV0@@Z 0042c240 f i Demo.obj
 0001:0002b270       ??0?$HndlArrHandle@VDemoButton@@@@QAE@XZ 0042c270 f i Demo.obj
 0001:0002b290       ??0?$HndlArrHandle@VDemoButton@@@@QAE@PAV?$Handle_Array@VDemoButton@@@@@Z 0042c290 f i Demo.obj
 0001:0002b2c0       ??1?$HndlArrHandle@VDemoButton@@@@QAE@XZ 0042c2c0 f i Demo.obj
 0001:0002b2e0       ??4?$HndlArrHandle@VDemoButton@@@@QAEAAV0@ABV0@@Z 0042c2e0 f i Demo.obj
 0001:0002b310       ??0?$SmartHandle@VGameObject@@@@QAE@XZ 0042c310 f i Demo.obj
 0001:0002b340       ??0?$SmartHandle@VGameObject@@@@QAE@PAVGameObject@@@Z 0042c340 f i Demo.obj
 0001:0002b390       ??0?$SmartHandle@VGameObject@@@@QAE@ABV0@@Z 0042c390 f i Demo.obj
 0001:0002b3d0       ??0?$SmartHandle@VGameObject@@@@QAE@H@Z 0042c3d0 f i Demo.obj
 0001:0002b420       ??1?$SmartHandle@VGameObject@@@@QAE@XZ 0042c420 f i Demo.obj
 0001:0002b480       ??C?$SmartHandle@VGameObject@@@@QAEPAVGameObject@@XZ 0042c480 f i Demo.obj
 0001:0002b4f0       ??4?$SmartHandle@VGameObject@@@@QAEAAV0@ABV0@@Z 0042c4f0 f i Demo.obj
 0001:0002b530       ??9?$SmartHandle@VGameObject@@@@QAE_NABV0@@Z 0042c530 f i Demo.obj
 0001:0002b570       ??8?$SmartHandle@VGameObject@@@@QAE_NABV0@@Z 0042c570 f i Demo.obj
 0001:0002b5b0       ?init@?$SmartHandle@VGameObject@@@@IAEXXZ 0042c5b0 f i Demo.obj
 0001:0002b770       ?WriteBarrier@?$SmartHandle@VGameObject@@@@IAEXI@Z 0042c770 f i Demo.obj
 0001:0002b820       ?insertSelfIntoList@?$SmartHandle@VGameObject@@@@IAEXPAXAAPAX@Z 0042c820 f i Demo.obj
 0001:0002b890       ?UnsetNurseryFlag@?$SmartHandle@VGameObject@@@@IAEXXZ 0042c890 f i Demo.obj
 0001:0002b8c0       ?UnsetRootFlag@?$SmartHandle@VGameObject@@@@IAEXXZ 0042c8c0 f i Demo.obj
 0001:0002b8f0       ?SetNurseryFlag@?$SmartHandle@VGameObject@@@@IAEXXZ 0042c8f0 f i Demo.obj
 0001:0002b920       ?SetRootFlag@?$SmartHandle@VGameObject@@@@IAEXXZ 0042c920 f i Demo.obj
 0001:0002b950       ??0?$allocator@H@std@@QAE@XZ 0042c950 f i Demo.obj
 0001:0002b970       ??0?$allocator@H@std@@QAE@ABV01@@Z 0042c970 f i Demo.obj
 0001:0002b990       ?deallocate@?$allocator@H@std@@QAEXPAHI@Z 0042c990 f i Demo.obj
 0001:0002b9c0       ?allocate@?$allocator@H@std@@QAEPAHI@Z 0042c9c0 f i Demo.obj
 0001:0002b9f0       ?max_size@?$allocator@H@std@@QBEIXZ 0042c9f0 f i Demo.obj
 0001:0002ba10       ?max_size@?$allocator_traits@V?$allocator@H@std@@@std@@SAIABV?$allocator@H@2@@Z 0042ca10 f i Demo.obj
 0001:0002ba30       ??0?$_Wrap_alloc@V?$allocator@H@std@@@std@@QAE@XZ 0042ca30 f i Demo.obj
 0001:0002ba50       ?allocate@?$_Wrap_alloc@V?$allocator@H@std@@@std@@QAEPAHI@Z 0042ca50 f i Demo.obj
 0001:0002ba80       ?deallocate@?$_Wrap_alloc@V?$allocator@H@std@@@std@@QAEXPAHI@Z 0042ca80 f i Demo.obj
 0001:0002bab0       ?max_size@?$_Wrap_alloc@V?$allocator@H@std@@@std@@QBEIXZ 0042cab0 f i Demo.obj
 0001:0002bad0       ??0?$_Vector_val@U?$_Simple_types@H@std@@@std@@QAE@XZ 0042cad0 f i Demo.obj
 0001:0002bb10       ??0?$_Vector_alloc@$0A@U?$_Vec_base_types@HV?$allocator@H@std@@@std@@@std@@QAE@ABV?$allocator@H@1@@Z 0042cb10 f i Demo.obj
 0001:0002bb30       ?_Change_alloc@?$_Vector_alloc@$0A@U?$_Vec_base_types@HV?$allocator@H@std@@@std@@@std@@QAEXABU?$_Wrap_alloc@V?$allocator@H@std@@@2@@Z 0042cb30 f i Demo.obj
 0001:0002bb50       ?_Getal@?$_Vector_alloc@$0A@U?$_Vec_base_types@HV?$allocator@H@std@@@std@@@std@@QBE?AU?$_Wrap_alloc@V?$allocator@H@std@@@2@XZ 0042cb50 f i Demo.obj
 0001:0002bb70       ??0?$vector@HV?$allocator@H@std@@@std@@QAE@XZ 0042cb70 f i Demo.obj
 0001:0002bba0       ??4?$vector@HV?$allocator@H@std@@@std@@QAEAAV01@$$QAV01@@Z 0042cba0 f i Demo.obj
 0001:0002bca0       ?_Assign_rv@?$vector@HV?$allocator@H@std@@@std@@QAEX$$QAV12@@Z 0042cca0 f i Demo.obj
 0001:0002bd10       ??1?$vector@HV?$allocator@H@std@@@std@@QAE@XZ 0042cd10 f i Demo.obj
 0001:0002bd30       ?capacity@?$vector@HV?$allocator@H@std@@@std@@QBEIXZ 0042cd30 f i Demo.obj
 0001:0002bd60       ?_Unused_capacity@?$vector@HV?$allocator@H@std@@@std@@QBEIXZ 0042cd60 f i Demo.obj
 0001:0002bd90       ?begin@?$vector@HV?$allocator@H@std@@@std@@QAE?AV?$_Vector_iterator@V?$_Vector_val@U?$_Simple_types@H@std@@@std@@@2@XZ 0042cd90 f i Demo.obj
 0001:0002bdc0       ?end@?$vector@HV?$allocator@H@std@@@std@@QAE?AV?$_Vector_iterator@V?$_Vector_val@U?$_Simple_types@H@std@@@std@@@2@XZ 0042cdc0 f i Demo.obj
 0001:0002bdf0       ?_Make_iter@?$vector@HV?$allocator@H@std@@@std@@QBE?AV?$_Vector_iterator@V?$_Vector_val@U?$_Simple_types@H@std@@@std@@@2@V?$_Vector_const_iterator@V?$_Vector_val@U?$_Simple_types@H@std@@@std@@@2@@Z 0042cdf0 f i Demo.obj
 0001:0002be20       ?size@?$vector@HV?$allocator@H@std@@@std@@QBEIXZ 0042ce20 f i Demo.obj
 0001:0002be50       ?max_size@?$vector@HV?$allocator@H@std@@@std@@QBEIXZ 0042ce50 f i Demo.obj
 0001:0002be80       ??A?$vector@HV?$allocator@H@std@@@std@@QAEAAHI@Z 0042ce80 f i Demo.obj
 0001:0002bea0       ?erase@?$vector@HV?$allocator@H@std@@@std@@QAE?AV?$_Vector_iterator@V?$_Vector_val@U?$_Simple_types@H@std@@@std@@@2@V?$_Vector_const_iterator@V?$_Vector_val@U?$_Simple_types@H@std@@@std@@@2@0@Z 0042cea0 f i Demo.obj
 0001:0002bf90       ?clear@?$vector@HV?$allocator@H@std@@@std@@QAEXXZ 0042cf90 f i Demo.obj
 0001:0002bfd0       ?_Destroy@?$vector@HV?$allocator@H@std@@@std@@IAEXPAH0@Z 0042cfd0 f i Demo.obj
 0001:0002c010       ?_Grow_to@?$vector@HV?$allocator@H@std@@@std@@IBEII@Z 0042d010 f i Demo.obj
 0001:0002c070       ?_Tidy@?$vector@HV?$allocator@H@std@@@std@@IAEXXZ 0042d070 f i Demo.obj
 0001:0002c0f0       ?_Xlen@?$vector@HV?$allocator@H@std@@@std@@IBEXXZ 0042d0f0 f i Demo.obj
 0001:0002c110       ?_Orphan_range@?$vector@HV?$allocator@H@std@@@std@@IBEXPAH0@Z 0042d110 f i Demo.obj
 0001:0002c130       ??_EDemo@@UAEPAXI@Z        0042d130 f i Demo.obj
 0001:0002c130       ??_GDemo@@UAEPAXI@Z        0042d130 f i Demo.obj
 0001:0002c170       ??0QueryCallback@@QAE@ABUb2Vec2@@@Z 0042d170 f i Demo.obj
 0001:0002c200       ?ReportFixture@QueryCallback@@UAE_NPAVb2Fixture@@@Z 0042d200 f i Demo.obj
 0001:0002c260       ??1QueryCallback@@UAE@XZ   0042d260 f i Demo.obj
 0001:0002c280       ??_GQueryCallback@@UAEPAXI@Z 0042d280 f i Demo.obj
 0001:0002c280       ??_EQueryCallback@@UAEPAXI@Z 0042d280 f i Demo.obj
 0001:0002c2c0       ?setVSync@@YAXH@Z          0042d2c0 f   Demo.obj
 0001:0002c320       ??0?$Unmanaged_Array@V?$SmartHandle@VGameObject@@@@@@QAE@H@Z 0042d320 f i Demo.obj
 0001:0002c670       ??1?$Unmanaged_Array@V?$SmartHandle@VGameObject@@@@@@UAE@XZ 0042d670 f i Demo.obj
 0001:0002c6a0       ??_E?$Unmanaged_Array@V?$SmartHandle@VGameObject@@@@@@UAEPAXI@Z 0042d6a0 f i Demo.obj
 0001:0002c6a0       ??_G?$Unmanaged_Array@V?$SmartHandle@VGameObject@@@@@@UAEPAXI@Z 0042d6a0 f i Demo.obj
 0001:0002c6e0       ??0?$Handle_Array@VGameObject@@@@QAE@H@Z 0042d6e0 f i Demo.obj
 0001:0002c710       ??1?$Handle_Array@VGameObject@@@@UAE@XZ 0042d710 f i Demo.obj
 0001:0002c730       ??_G?$Handle_Array@VGameObject@@@@UAEPAXI@Z 0042d730 f i Demo.obj
 0001:0002c730       ??_E?$Handle_Array@VGameObject@@@@UAEPAXI@Z 0042d730 f i Demo.obj
 0001:0002c770       ??0?$Unmanaged_Array@V?$SmartHandle@VDemoButton@@@@@@QAE@H@Z 0042d770 f i Demo.obj
 0001:0002cac0       ??1?$Unmanaged_Array@V?$SmartHandle@VDemoButton@@@@@@UAE@XZ 0042dac0 f i Demo.obj
 0001:0002caf0       ??_E?$Unmanaged_Array@V?$SmartHandle@VDemoButton@@@@@@UAEPAXI@Z 0042daf0 f i Demo.obj
 0001:0002caf0       ??_G?$Unmanaged_Array@V?$SmartHandle@VDemoButton@@@@@@UAEPAXI@Z 0042daf0 f i Demo.obj
 0001:0002cb30       ??0?$Handle_Array@VDemoButton@@@@QAE@H@Z 0042db30 f i Demo.obj
 0001:0002cb60       ??1?$Handle_Array@VDemoButton@@@@UAE@XZ 0042db60 f i Demo.obj
 0001:0002cb80       ??_G?$Handle_Array@VDemoButton@@@@UAEPAXI@Z 0042db80 f i Demo.obj
 0001:0002cb80       ??_E?$Handle_Array@VDemoButton@@@@UAEPAXI@Z 0042db80 f i Demo.obj
 0001:0002cbc0       ??0?$SmartHandle@VDemoButton@@@@QAE@XZ 0042dbc0 f i Demo.obj
 0001:0002cbf0       ??0?$SmartHandle@VDemoButton@@@@QAE@PAVDemoButton@@@Z 0042dbf0 f i Demo.obj
 0001:0002cc40       ??1?$SmartHandle@VDemoButton@@@@QAE@XZ 0042dc40 f i Demo.obj
 0001:0002cca0       ??C?$SmartHandle@VDemoButton@@@@QAEPAVDemoButton@@XZ 0042dca0 f i Demo.obj
 0001:0002cd10       ??4?$SmartHandle@VDemoButton@@@@QAEAAV0@ABV0@@Z 0042dd10 f i Demo.obj
 0001:0002cd50       ?init@?$SmartHandle@VDemoButton@@@@IAEXXZ 0042dd50 f i Demo.obj
 0001:0002cf10       ?WriteBarrier@?$SmartHandle@VDemoButton@@@@IAEXI@Z 0042df10 f i Demo.obj
 0001:0002cfc0       ?insertSelfIntoList@?$SmartHandle@VDemoButton@@@@IAEXPAXAAPAX@Z 0042dfc0 f i Demo.obj
 0001:0002d030       ?UnsetNurseryFlag@?$SmartHandle@VDemoButton@@@@IAEXXZ 0042e030 f i Demo.obj
 0001:0002d060       ?UnsetRootFlag@?$SmartHandle@VDemoButton@@@@IAEXXZ 0042e060 f i Demo.obj
 0001:0002d090       ?SetNurseryFlag@?$SmartHandle@VDemoButton@@@@IAEXXZ 0042e090 f i Demo.obj
 0001:0002d0c0       ?SetRootFlag@?$SmartHandle@VDemoButton@@@@IAEXXZ 0042e0c0 f i Demo.obj
 0001:0002d0f0       ??$?9V?$allocator@H@std@@V01@@std@@YA_NABU?$_Wrap_alloc@V?$allocator@H@std@@@0@0@Z 0042e0f0 f i Demo.obj
 0001:0002d130       ??0?$_Vector_const_iterator@V?$_Vector_val@U?$_Simple_types@H@std@@@std@@@std@@QAE@PAHPBU_Container_base0@1@@Z 0042e130 f i Demo.obj
 0001:0002d160       ??D?$_Vector_const_iterator@V?$_Vector_val@U?$_Simple_types@H@std@@@std@@@std@@QBEABHXZ 0042e160 f i Demo.obj
 0001:0002d180       ??E?$_Vector_const_iterator@V?$_Vector_val@U?$_Simple_types@H@std@@@std@@@std@@QAEAAV01@XZ 0042e180 f i Demo.obj
 0001:0002d1b0       ??Y?$_Vector_const_iterator@V?$_Vector_val@U?$_Simple_types@H@std@@@std@@@std@@QAEAAV01@H@Z 0042e1b0 f i Demo.obj
 0001:0002d1e0       ??G?$_Vector_const_iterator@V?$_Vector_val@U?$_Simple_types@H@std@@@std@@@std@@QBEHABV01@@Z 0042e1e0 f i Demo.obj
 0001:0002d210       ??8?$_Vector_const_iterator@V?$_Vector_val@U?$_Simple_types@H@std@@@std@@@std@@QBE_NABV01@@Z 0042e210 f i Demo.obj
 0001:0002d250       ??9?$_Vector_const_iterator@V?$_Vector_val@U?$_Simple_types@H@std@@@std@@@std@@QBE_NABV01@@Z 0042e250 f i Demo.obj
 0001:0002d290       ?_Compat@?$_Vector_const_iterator@V?$_Vector_val@U?$_Simple_types@H@std@@@std@@@std@@QBEXABV12@@Z 0042e290 f i Demo.obj
 0001:0002d2b0       ??0?$_Vector_iterator@V?$_Vector_val@U?$_Simple_types@H@std@@@std@@@std@@QAE@PAHPBU_Container_base0@1@@Z 0042e2b0 f i Demo.obj
 0001:0002d2e0       ??D?$_Vector_iterator@V?$_Vector_val@U?$_Simple_types@H@std@@@std@@@std@@QBEAAHXZ 0042e2e0 f i Demo.obj
 0001:0002d300       ??E?$_Vector_iterator@V?$_Vector_val@U?$_Simple_types@H@std@@@std@@@std@@QAEAAV01@XZ 0042e300 f i Demo.obj
 0001:0002d320       ??Y?$_Vector_iterator@V?$_Vector_val@U?$_Simple_types@H@std@@@std@@@std@@QAEAAV01@H@Z 0042e320 f i Demo.obj
 0001:0002d350       ??H?$_Vector_iterator@V?$_Vector_val@U?$_Simple_types@H@std@@@std@@@std@@QBE?AV01@H@Z 0042e350 f i Demo.obj
 0001:0002d390       ??G?$_Vector_iterator@V?$_Vector_val@U?$_Simple_types@H@std@@@std@@@std@@QBEHABV?$_Vector_const_iterator@V?$_Vector_val@U?$_Simple_types@H@std@@@std@@@1@@Z 0042e390 f i Demo.obj
 0001:0002d3c0       ??$make_move_iterator@V?$_Vector_iterator@V?$_Vector_val@U?$_Simple_types@H@std@@@std@@@std@@@std@@YA?AV?$move_iterator@V?$_Vector_iterator@V?$_Vector_val@U?$_Simple_types@H@std@@@std@@@std@@@0@V?$_Vector_iterator@V?$_Vector_val@U?$_Simple_types@H@std@@@std@@@0@@Z 0042e3c0 f i Demo.obj
 0001:0002d3e0       ??0?$move_iterator@V?$_Vector_iterator@V?$_Vector_val@U?$_Simple_types@H@std@@@std@@@std@@@std@@QAE@V?$_Vector_iterator@V?$_Vector_val@U?$_Simple_types@H@std@@@std@@@1@@Z 0042e3e0 f i Demo.obj
 0001:0002d400       ?base@?$move_iterator@V?$_Vector_iterator@V?$_Vector_val@U?$_Simple_types@H@std@@@std@@@std@@@std@@QBE?AV?$_Vector_iterator@V?$_Vector_val@U?$_Simple_types@H@std@@@std@@@2@XZ 0042e400 f i Demo.obj
 0001:0002d430       ??D?$move_iterator@V?$_Vector_iterator@V?$_Vector_val@U?$_Simple_types@H@std@@@std@@@std@@@std@@QBE$$QAHXZ 0042e430 f i Demo.obj
 0001:0002d460       ??E?$move_iterator@V?$_Vector_iterator@V?$_Vector_val@U?$_Simple_types@H@std@@@std@@@std@@@std@@QAEAAV01@XZ 0042e460 f i Demo.obj
 0001:0002d480       ??$assign@V?$move_iterator@V?$_Vector_iterator@V?$_Vector_val@U?$_Simple_types@H@std@@@std@@@std@@@std@@@?$vector@HV?$allocator@H@std@@@std@@QAEXV?$move_iterator@V?$_Vector_iterator@V?$_Vector_val@U?$_Simple_types@H@std@@@std@@@std@@@1@0@Z 0042e480 f i Demo.obj
 0001:0002d500       ??$forward@V?$vector@HV?$allocator@H@std@@@std@@@std@@YA$$QAV?$vector@HV?$allocator@H@std@@@0@AAV10@@Z 0042e500 f i Demo.obj
 0001:0002d520       ??$_Destroy_range@U?$_Wrap_alloc@V?$allocator@H@std@@@std@@@std@@YAXPAH0AAU?$_Wrap_alloc@V?$allocator@H@std@@@0@@Z 0042e520 f i Demo.obj
 0001:0002d560       ??$_Move@AAH@std@@YA$$QAHAAH@Z 0042e560 f i Demo.obj
 0001:0002d580       ??$DeregisterRootHandle@VSpriteBatch@@@GC@@CAXPAV?$SmartHandle@VSpriteBatch@@@@@Z 0042e580 f i Demo.obj
 0001:0002d630       ??$DeregisterRootHandle@V?$Unmanaged_Array@V?$SmartHandle@VGameObject@@@@@@@GC@@CAXPAV?$SmartHandle@V?$Unmanaged_Array@V?$SmartHandle@VGameObject@@@@@@@@@Z 0042e630 f i Demo.obj
 0001:0002d6e0       ??$DeregisterRootHandle@V?$Unmanaged_Array@V?$SmartHandle@VDemoButton@@@@@@@GC@@CAXPAV?$SmartHandle@V?$Unmanaged_Array@V?$SmartHandle@VDemoButton@@@@@@@@@Z 0042e6e0 f i Demo.obj
 0001:0002d790       ??$DeregisterRootHandle@VGameObject@@@GC@@CAXPAV?$SmartHandle@VGameObject@@@@@Z 0042e790 f i Demo.obj
 0001:0002d840       ??$DeregisterRootHandle@VDemoButton@@@GC@@CAXPAV?$SmartHandle@VDemoButton@@@@@Z 0042e840 f i Demo.obj
 0001:0002d8f0       ??$?8V?$allocator@H@std@@V01@@std@@YA_NABU?$_Wrap_alloc@V?$allocator@H@std@@@0@0@Z 0042e8f0 f i Demo.obj
 0001:0002d930       ??$?8HH@std@@YA_NABV?$allocator@H@0@0@Z 0042e930 f i Demo.obj
 0001:0002d950       ??$insert@V?$move_iterator@V?$_Vector_iterator@V?$_Vector_val@U?$_Simple_types@H@std@@@std@@@std@@@std@@@?$vector@HV?$allocator@H@std@@@std@@QAE?AV?$_Vector_iterator@V?$_Vector_val@U?$_Simple_types@H@std@@@std@@@1@V?$_Vector_const_iterator@V?$_Vector_val@U?$_Simple_types@H@std@@@std@@@1@V?$move_iterator@V?$_Vector_iterator@V?$_Vector_val@U?$_Simple_types@H@std@@@std@@@std@@@1@1@Z 0042e950 f i Demo.obj
 0001:0002d9c0       ??$_Ptr_cat@HH@std@@YA?AU_Scalar_ptr_iterator_tag@0@PAH0@Z 0042e9c0 f i Demo.obj
 0001:0002d9e0       ??$_Destroy_range@U?$_Wrap_alloc@V?$allocator@H@std@@@std@@@std@@YAXPAH0AAU?$_Wrap_alloc@V?$allocator@H@std@@@0@U_Scalar_ptr_iterator_tag@0@@Z 0042e9e0 f i Demo.obj
 0001:0002d9f0       ??$_Move@PAHPAH@std@@YAPAHPAH00@Z 0042e9f0 f i Demo.obj
 0001:0002da30       ??$RegisterHandle@VSpriteBatch@@@Managed_Object@@AAEXPAV?$SmartHandle@VSpriteBatch@@@@@Z 0042ea30 f i Demo.obj
 0001:0002dac0       ??$RegisterRootHandle@VSpriteBatch@@@GC@@CAXPAV?$SmartHandle@VSpriteBatch@@@@@Z 0042eac0 f i Demo.obj
 0001:0002db30       ??$RegisterHandle@V?$Unmanaged_Array@V?$SmartHandle@VGameObject@@@@@@@Managed_Object@@AAEXPAV?$SmartHandle@V?$Unmanaged_Array@V?$SmartHandle@VGameObject@@@@@@@@@Z 0042eb30 f i Demo.obj
 0001:0002dbc0       ??$RegisterRootHandle@V?$Unmanaged_Array@V?$SmartHandle@VGameObject@@@@@@@GC@@CAXPAV?$SmartHandle@V?$Unmanaged_Array@V?$SmartHandle@VGameObject@@@@@@@@@Z 0042ebc0 f i Demo.obj
 0001:0002dc30       ??$RegisterHandle@V?$Unmanaged_Array@V?$SmartHandle@VDemoButton@@@@@@@Managed_Object@@AAEXPAV?$SmartHandle@V?$Unmanaged_Array@V?$SmartHandle@VDemoButton@@@@@@@@@Z 0042ec30 f i Demo.obj
 0001:0002dcc0       ??$RegisterRootHandle@V?$Unmanaged_Array@V?$SmartHandle@VDemoButton@@@@@@@GC@@CAXPAV?$SmartHandle@V?$Unmanaged_Array@V?$SmartHandle@VDemoButton@@@@@@@@@Z 0042ecc0 f i Demo.obj
 0001:0002dd30       ??$RegisterHandle@VGameObject@@@Managed_Object@@AAEXPAV?$SmartHandle@VGameObject@@@@@Z 0042ed30 f i Demo.obj
 0001:0002ddc0       ??$RegisterRootHandle@VGameObject@@@GC@@CAXPAV?$SmartHandle@VGameObject@@@@@Z 0042edc0 f i Demo.obj
 0001:0002de30       ??$RegisterHandle@VDemoButton@@@Managed_Object@@AAEXPAV?$SmartHandle@VDemoButton@@@@@Z 0042ee30 f i Demo.obj
 0001:0002dec0       ??$RegisterRootHandle@VDemoButton@@@GC@@CAXPAV?$SmartHandle@VDemoButton@@@@@Z 0042eec0 f i Demo.obj
 0001:0002df30       ??$_Iter_cat@V?$move_iterator@V?$_Vector_iterator@V?$_Vector_val@U?$_Simple_types@H@std@@@std@@@std@@@std@@@std@@YA?AUrandom_access_iterator_tag@0@ABV?$move_iterator@V?$_Vector_iterator@V?$_Vector_val@U?$_Simple_types@H@std@@@std@@@std@@@0@@Z 0042ef30 f i Demo.obj
 0001:0002df50       ??$_Insert@V?$move_iterator@V?$_Vector_iterator@V?$_Vector_val@U?$_Simple_types@H@std@@@std@@@std@@@std@@@?$vector@HV?$allocator@H@std@@@std@@QAEXV?$_Vector_const_iterator@V?$_Vector_val@U?$_Simple_types@H@std@@@std@@@1@V?$move_iterator@V?$_Vector_iterator@V?$_Vector_val@U?$_Simple_types@H@std@@@std@@@std@@@1@1Uforward_iterator_tag@1@@Z 0042ef50 f i Demo.obj
 0001:0002e1b0       ??$_Move@PAHPAH@std@@YAPAHPAH00U_Scalar_ptr_iterator_tag@0@@Z 0042f1b0 f i Demo.obj
 0001:0002e1f0       ??$_Distance@V?$move_iterator@V?$_Vector_iterator@V?$_Vector_val@U?$_Simple_types@H@std@@@std@@@std@@@std@@I@std@@YAXV?$move_iterator@V?$_Vector_iterator@V?$_Vector_val@U?$_Simple_types@H@std@@@std@@@std@@@0@0AAI@Z 0042f1f0 f i Demo.obj
 0001:0002e230       ??$_Umove@PAH@?$vector@HV?$allocator@H@std@@@std@@IAEPAHPAH00@Z 0042f230 f i Demo.obj
 0001:0002e270       ??$_Ucopy@V?$move_iterator@V?$_Vector_iterator@V?$_Vector_val@U?$_Simple_types@H@std@@@std@@@std@@@std@@@?$vector@HV?$allocator@H@std@@@std@@IAEPAHV?$move_iterator@V?$_Vector_iterator@V?$_Vector_val@U?$_Simple_types@H@std@@@std@@@std@@@1@0PAH@Z 0042f270 f i Demo.obj
 0001:0002e2b0       ??$rotate@PAH@std@@YAPAHPAH00@Z 0042f2b0 f i Demo.obj
 0001:0002e340       ??$_Allocate@H@std@@YAPAHIPAH@Z 0042f340 f i Demo.obj
 0001:0002e390       ??$_Distance2@V?$move_iterator@V?$_Vector_iterator@V?$_Vector_val@U?$_Simple_types@H@std@@@std@@@std@@@std@@I@std@@YAXV?$move_iterator@V?$_Vector_iterator@V?$_Vector_val@U?$_Simple_types@H@std@@@std@@@std@@@0@0AAIUrandom_access_iterator_tag@0@@Z 0042f390 f i Demo.obj
 0001:0002e3c0       ??$_Uninitialized_move@PAHPAHU?$_Wrap_alloc@V?$allocator@H@std@@@std@@@std@@YAPAHPAH00AAU?$_Wrap_alloc@V?$allocator@H@std@@@0@@Z 0042f3c0 f i Demo.obj
 0001:0002e410       ??$_Uninitialized_copy@V?$move_iterator@V?$_Vector_iterator@V?$_Vector_val@U?$_Simple_types@H@std@@@std@@@std@@@std@@PAHU?$_Wrap_alloc@V?$allocator@H@std@@@2@@std@@YAPAHV?$move_iterator@V?$_Vector_iterator@V?$_Vector_val@U?$_Simple_types@H@std@@@std@@@std@@@0@0PAHAAU?$_Wrap_alloc@V?$allocator@H@std@@@0@@Z 0042f410 f i Demo.obj
 0001:0002e450       ??$_Unchecked@PAH@std@@YAPAHPAH@Z 0042f450 f i Demo.obj
 0001:0002e470       ??$_Iter_cat@PAH@std@@YA?AUrandom_access_iterator_tag@0@ABQAH@Z 0042f470 f i Demo.obj
 0001:0002e490       ??$_Rotate@PAH@std@@YAXPAH00Urandom_access_iterator_tag@0@@Z 0042f490 f i Demo.obj
 0001:0002e4d0       ??$distance@PAH@std@@YAHPAH0@Z 0042f4d0 f i Demo.obj
 0001:0002e520       ??$advance@PAHH@std@@YAXAAPAHH@Z 0042f520 f i Demo.obj
 0001:0002e560       ??$?GV?$_Vector_iterator@V?$_Vector_val@U?$_Simple_types@H@std@@@std@@@std@@V01@@std@@YAHAAV?$move_iterator@V?$_Vector_iterator@V?$_Vector_val@U?$_Simple_types@H@std@@@std@@@std@@@0@ABV10@@Z 0042f560 f i Demo.obj
 0001:0002e590       ??$_Val_type@PAH@std@@YAPAHPAH@Z 0042f590 f i Demo.obj
 0001:0002e5b0       ??$_Uninit_move@HHH@std@@YAPAHPAH00AAU?$_Wrap_alloc@V?$allocator@H@std@@@0@0U_Scalar_ptr_iterator_tag@0@@Z 0042f5b0 f i Demo.obj
 0001:0002e5f0       ??$_Ptr_cat@V?$move_iterator@V?$_Vector_iterator@V?$_Vector_val@U?$_Simple_types@H@std@@@std@@@std@@@std@@PAH@std@@YA?AU_Nonscalar_ptr_iterator_tag@0@AAV?$move_iterator@V?$_Vector_iterator@V?$_Vector_val@U?$_Simple_types@H@std@@@std@@@std@@@0@AAPAH@Z 0042f5f0 f i Demo.obj
 0001:0002e610       ??$_Uninit_copy@V?$move_iterator@V?$_Vector_iterator@V?$_Vector_val@U?$_Simple_types@H@std@@@std@@@std@@@std@@PAHV?$allocator@H@2@@std@@YAPAHV?$move_iterator@V?$_Vector_iterator@V?$_Vector_val@U?$_Simple_types@H@std@@@std@@@std@@@0@0PAHAAU?$_Wrap_alloc@V?$allocator@H@std@@@0@U_Nonscalar_ptr_iterator_tag@0@@Z 0042f610 f i Demo.obj
 0001:0002e6f0       ??$_Dist_type@PAH@std@@YAPAHPAH@Z 0042f6f0 f i Demo.obj
 0001:0002e710       ??$_Rotate@PAHHH@std@@YAXPAH0000@Z 0042f710 f i Demo.obj
 0001:0002e820       ??$_Distance2@PAHH@std@@YAXPAH0AAHUrandom_access_iterator_tag@0@@Z 0042f820 f i Demo.obj
 0001:0002e850       ??$_Advance@PAHH@std@@YAXAAPAHHUrandom_access_iterator_tag@0@@Z 0042f850 f i Demo.obj
 0001:0002e870       ??$?9V?$_Vector_iterator@V?$_Vector_val@U?$_Simple_types@H@std@@@std@@@std@@V01@@std@@YA_NABV?$move_iterator@V?$_Vector_iterator@V?$_Vector_val@U?$_Simple_types@H@std@@@std@@@std@@@0@0@Z 0042f870 f i Demo.obj
 0001:0002e8b0       ??$construct@HH@?$_Wrap_alloc@V?$allocator@H@std@@@std@@QAEXPAH$$QAH@Z 0042f8b0 f i Demo.obj
 0001:0002e8f0       ??$destroy@H@?$_Wrap_alloc@V?$allocator@H@std@@@std@@QAEXPAH@Z 0042f8f0 f i Demo.obj
 0001:0002e920       ??$iter_swap@PAHPAH@std@@YAXPAH0@Z 0042f920 f i Demo.obj
 0001:0002e940       ??$move@AAH@std@@YA$$QAHAAH@Z 0042f940 f i Demo.obj
 0001:0002e960       ??$?8V?$_Vector_iterator@V?$_Vector_val@U?$_Simple_types@H@std@@@std@@@std@@V01@@std@@YA_NABV?$move_iterator@V?$_Vector_iterator@V?$_Vector_val@U?$_Simple_types@H@std@@@std@@@std@@@0@0@Z 0042f960 f i Demo.obj
 0001:0002e980       ??$forward@H@std@@YA$$QAHAAH@Z 0042f980 f i Demo.obj
 0001:0002e9a0       ??$construct@HH@?$allocator_traits@V?$allocator@H@std@@@std@@SAXAAV?$allocator@H@1@PAH$$QAH@Z 0042f9a0 f i Demo.obj
 0001:0002e9d0       ??$destroy@H@?$allocator_traits@V?$allocator@H@std@@@std@@SAXAAV?$allocator@H@1@PAH@Z 0042f9d0 f i Demo.obj
 0001:0002e9f0       ??$_Equal@V?$_Vector_iterator@V?$_Vector_val@U?$_Simple_types@H@std@@@std@@@std@@@?$move_iterator@V?$_Vector_iterator@V?$_Vector_val@U?$_Simple_types@H@std@@@std@@@std@@@std@@QBE_NABV01@@Z 0042f9f0 f i Demo.obj
 0001:0002ea20       ??$construct@HH@?$allocator@H@std@@QAEXPAH$$QAH@Z 0042fa20 f i Demo.obj
 0001:0002eab0       ??$destroy@H@?$allocator@H@std@@QAEXPAH@Z 0042fab0 f i Demo.obj
 0001:0002ead0       ?X@DemoRectangle@@QAEAAHXZ 0042fad0 f i DemoButton.obj
 0001:0002eaf0       ?Y@DemoRectangle@@QAEAAHXZ 0042faf0 f i DemoButton.obj
 0001:0002eb10       ?Width@DemoRectangle@@QAEAAHXZ 0042fb10 f i DemoButton.obj
 0001:0002eb30       ?Height@DemoRectangle@@QAEAAHXZ 0042fb30 f i DemoButton.obj
 0001:0002eb50       ??0DemoButton@@QAE@VDemoRectangle@@V?$SmartHandle@VTexture2D@@@@VDemoColour@@@Z 0042fb50 f   DemoButton.obj
 0001:0002ec30       ??1DemoButton@@UAE@XZ      0042fc30 f   DemoButton.obj
 0001:0002ecd0       ?IsInBounds@DemoButton@@QAE_NMM@Z 0042fcd0 f   DemoButton.obj
 0001:0002ed70       ?Depress@DemoButton@@UAEXXZ 0042fd70 f i DemoButton.obj
 0001:0002ed90       ?Unpress@DemoButton@@UAEXXZ 0042fd90 f i DemoButton.obj
 0001:0002edb0       ??_GDemoButton@@UAEPAXI@Z  0042fdb0 f i DemoButton.obj
 0001:0002edb0       ??_EDemoButton@@UAEPAXI@Z  0042fdb0 f i DemoButton.obj
 0001:0002edf0       ??0DemoColour@@QAE@XZ      0042fdf0 f   DemoColour.obj
 0001:0002ee40       ??0DemoColour@@QAE@MMMM@Z  0042fe40 f   DemoColour.obj
 0001:0002eeb0       ??1DemoColour@@QAE@XZ      0042feb0 f   DemoColour.obj
 0001:0002eed0       ?GetWorldManifold@b2Contact@@QBEXPAUb2WorldManifold@@@Z 0042fed0 f i DemoContactListener.obj
 0001:0002ef60       ?construct@?$allocator@H@std@@QAEXPAHABH@Z 0042ff60 f i DemoContactListener.obj
 0001:0002efb0       ?push_back@?$vector@HV?$allocator@H@std@@@std@@QAEXABH@Z 0042ffb0 f i DemoContactListener.obj
 0001:0002f0c0       ?_Inside@?$vector@HV?$allocator@H@std@@@std@@IBE_NPBH@Z 004300c0 f i DemoContactListener.obj
 0001:0002f100       ?_Reallocate@?$vector@HV?$allocator@H@std@@@std@@IAEXI@Z 00430100 f i DemoContactListener.obj
 0001:0002f240       ?_Reserve@?$vector@HV?$allocator@H@std@@@std@@IAEXI@Z 00430240 f i DemoContactListener.obj
 0001:0002f2a0       ??0DemoContactListener@@QAE@PAVDemo@@@Z 004302a0 f   DemoContactListener.obj
 0001:0002f2e0       ?PreSolve@DemoContactListener@@UAEXPAVb2Contact@@PBUb2Manifold@@@Z 004302e0 f   DemoContactListener.obj
 0001:0002f430       ??1DemoContactListener@@UAE@XZ 00430430 f i DemoContactListener.obj
 0001:0002f450       ??_GDemoContactListener@@UAEPAXI@Z 00430450 f i DemoContactListener.obj
 0001:0002f450       ??_EDemoContactListener@@UAEPAXI@Z 00430450 f i DemoContactListener.obj
 0001:0002f490       ??$addressof@$$CBH@std@@YAPBHABH@Z 00430490 f i DemoContactListener.obj
 0001:0002f4b0       ??$construct@HAAH@?$_Wrap_alloc@V?$allocator@H@std@@@std@@QAEXPAHAAH@Z 004304b0 f i DemoContactListener.obj
 0001:0002f4f0       ??$construct@HABH@?$_Wrap_alloc@V?$allocator@H@std@@@std@@QAEXPAHABH@Z 004304f0 f i DemoContactListener.obj
 0001:0002f530       ??$forward@AAH@std@@YAAAHAAH@Z 00430530 f i DemoContactListener.obj
 0001:0002f550       ??$construct@HAAH@?$allocator_traits@V?$allocator@H@std@@@std@@SAXAAV?$allocator@H@1@PAHAAH@Z 00430550 f i DemoContactListener.obj
 0001:0002f580       ??$forward@ABH@std@@YAABHABH@Z 00430580 f i DemoContactListener.obj
 0001:0002f5a0       ??$construct@HABH@?$allocator_traits@V?$allocator@H@std@@@std@@SAXAAV?$allocator@H@1@PAHABH@Z 004305a0 f i DemoContactListener.obj
 0001:0002f5d0       ??$construct@HAAH@?$allocator@H@std@@QAEXPAHAAH@Z 004305d0 f i DemoContactListener.obj
 0001:0002f660       ?compare@?$char_traits@D@std@@SAHPBD0I@Z 00430660 f i DemoDebugInfo.obj
 0001:0002f6a0       ?eq@?$char_traits@D@std@@SA_NABD0@Z 004306a0 f i DemoDebugInfo.obj
 0001:0002f6e0       ?to_char_type@?$char_traits@D@std@@SADABH@Z 004306e0 f i DemoDebugInfo.obj
 0001:0002f700       ?to_int_type@?$char_traits@D@std@@SAHABD@Z 00430700 f i DemoDebugInfo.obj
 0001:0002f720       ?eq_int_type@?$char_traits@D@std@@SA_NABH0@Z 00430720 f i DemoDebugInfo.obj
 0001:0002f750       ?not_eof@?$char_traits@D@std@@SAHABH@Z 00430750 f i DemoDebugInfo.obj
 0001:0002f7a0       ?eof@?$char_traits@D@std@@SAHXZ 004307a0 f i DemoDebugInfo.obj
 0001:0002f7c0       ?select_on_container_copy_construction@?$allocator@D@std@@QBE?AV12@XZ 004307c0 f i DemoDebugInfo.obj
 0001:0002f7f0       ??0?$allocator@D@std@@QAE@ABV01@@Z 004307f0 f i DemoDebugInfo.obj
 0001:0002f810       ?select_on_container_copy_construction@?$allocator_traits@V?$allocator@D@std@@@std@@SA?AV?$allocator@D@2@ABV32@@Z 00430810 f i DemoDebugInfo.obj
 0001:0002f830       ?select_on_container_copy_construction@?$_Wrap_alloc@V?$allocator@D@std@@@std@@QBE?AU12@XZ 00430830 f i DemoDebugInfo.obj
 0001:0002f870       ??0?$_Wrap_alloc@V?$allocator@D@std@@@std@@QAE@ABV?$allocator@D@1@@Z 00430870 f i DemoDebugInfo.obj
 0001:0002f8a0       ?_Change_alloc@?$_String_alloc@$0A@U?$_String_base_types@DV?$allocator@D@std@@@std@@@std@@QAEXABU?$_Wrap_alloc@V?$allocator@D@std@@@2@@Z 004308a0 f i DemoDebugInfo.obj
 0001:0002f8c0       ??0?$basic_string@DU?$char_traits@D@std@@V?$allocator@D@2@@std@@QAE@ABV01@@Z 004308c0 f i DemoDebugInfo.obj
 0001:0002f920       ??0?$basic_string@DU?$char_traits@D@std@@V?$allocator@D@2@@std@@QAE@XZ 00430920 f i DemoDebugInfo.obj
 0001:0002f960       ??0?$basic_string@DU?$char_traits@D@std@@V?$allocator@D@2@@std@@QAE@PBDI@Z 00430960 f i DemoDebugInfo.obj
 0001:0002f9b0       ??0?$basic_string@DU?$char_traits@D@std@@V?$allocator@D@2@@std@@QAE@$$QAV01@@Z 004309b0 f i DemoDebugInfo.obj
 0001:0002fa00       ??4?$basic_string@DU?$char_traits@D@std@@V?$allocator@D@2@@std@@QAEAAV01@$$QAV01@@Z 00430a00 f i DemoDebugInfo.obj
 0001:0002fae0       ?_Assign_rv@?$basic_string@DU?$char_traits@D@std@@V?$allocator@D@2@@std@@QAEX$$QAV12@@Z 00430ae0 f i DemoDebugInfo.obj
 0001:0002fb70       ?replace@?$basic_string@DU?$char_traits@D@std@@V?$allocator@D@2@@std@@QAEAAV12@IIABV12@II@Z 00430b70 f i DemoDebugInfo.obj
 0001:0002fe30       ?replace@?$basic_string@DU?$char_traits@D@std@@V?$allocator@D@2@@std@@QAEAAV12@IIPBDI@Z 00430e30 f i DemoDebugInfo.obj
 0001:0002ffa0       ?replace@?$basic_string@DU?$char_traits@D@std@@V?$allocator@D@2@@std@@QAEAAV12@V?$_String_const_iterator@V?$_String_val@U?$_Simple_types@D@std@@@std@@@2@0V?$_String_iterator@V?$_String_val@U?$_Simple_types@D@std@@@std@@@2@1@Z 00430fa0 f i DemoDebugInfo.obj
 0001:00030060       ?begin@?$basic_string@DU?$char_traits@D@std@@V?$allocator@D@2@@std@@QAE?AV?$_String_iterator@V?$_String_val@U?$_Simple_types@D@std@@@std@@@2@XZ 00431060 f i DemoDebugInfo.obj
 0001:00030090       ?end@?$basic_string@DU?$char_traits@D@std@@V?$allocator@D@2@@std@@QAE?AV?$_String_iterator@V?$_String_val@U?$_Simple_types@D@std@@@std@@@2@XZ 00431090 f i DemoDebugInfo.obj
 0001:000300d0       ?compare@?$basic_string@DU?$char_traits@D@std@@V?$allocator@D@2@@std@@QBEHABV12@@Z 004310d0 f i DemoDebugInfo.obj
 0001:00030110       ?compare@?$basic_string@DU?$char_traits@D@std@@V?$allocator@D@2@@std@@QBEHIIPBDI@Z 00431110 f i DemoDebugInfo.obj
 0001:000301d0       ?_Pdif@?$basic_string@DU?$char_traits@D@std@@V?$allocator@D@2@@std@@SAIV?$_String_const_iterator@V?$_String_val@U?$_Simple_types@D@std@@@std@@@2@0@Z 004311d0 f i DemoDebugInfo.obj
 0001:00030210       ?fixed@std@@YAAAVios_base@1@AAV21@@Z 00431210 f i DemoDebugInfo.obj
 0001:00030240       ??0DemoDebugInfo@@QAE@PAUHDC__@@@Z 00431240 f   DemoDebugInfo.obj
 0001:00030330       ??1DemoDebugInfo@@QAE@XZ   00431330 f   DemoDebugInfo.obj
 0001:00030350       ?DrawInfoToScreen@DemoDebugInfo@@QAEXXZ 00431350 f   DemoDebugInfo.obj
 0001:000305e0       ?AddDebugInfo@DemoDebugInfo@@QAEXV?$basic_string@DU?$char_traits@D@std@@V?$allocator@D@2@@std@@N@Z 004315e0 f   DemoDebugInfo.obj
 0001:00030650       ?SetDebugInfo@DemoDebugInfo@@QAEXABV?$basic_string@DU?$char_traits@D@std@@V?$allocator@D@2@@std@@N@Z 00431650 f   DemoDebugInfo.obj
 0001:00030680       ?UpdateFrameRate@DemoDebugInfo@@QAEXN@Z 00431680 f   DemoDebugInfo.obj
 0001:000307b0       ??R?$less@V?$basic_string@DU?$char_traits@D@std@@V?$allocator@D@2@@std@@@std@@QBE_NABV?$basic_string@DU?$char_traits@D@std@@V?$allocator@D@2@@1@0@Z 004317b0 f i DemoDebugInfo.obj
 0001:000307e0       ??0?$allocator@U?$pair@$$CBV?$basic_string@DU?$char_traits@D@std@@V?$allocator@D@2@@std@@N@std@@@std@@QAE@XZ 004317e0 f i DemoDebugInfo.obj
 0001:00030800       ??0?$allocator@U?$_Tree_node@U?$pair@$$CBV?$basic_string@DU?$char_traits@D@std@@V?$allocator@D@2@@std@@N@std@@PAX@std@@@std@@QAE@XZ 00431800 f i DemoDebugInfo.obj
 0001:00030820       ?deallocate@?$allocator@U?$_Tree_node@U?$pair@$$CBV?$basic_string@DU?$char_traits@D@std@@V?$allocator@D@2@@std@@N@std@@PAX@std@@@std@@QAEXPAU?$_Tree_node@U?$pair@$$CBV?$basic_string@DU?$char_traits@D@std@@V?$allocator@D@2@@std@@N@std@@PAX@2@I@Z 00431820 f i DemoDebugInfo.obj
 0001:00030850       ?allocate@?$allocator@U?$_Tree_node@U?$pair@$$CBV?$basic_string@DU?$char_traits@D@std@@V?$allocator@D@2@@std@@N@std@@PAX@std@@@std@@QAEPAU?$_Tree_node@U?$pair@$$CBV?$basic_string@DU?$char_traits@D@std@@V?$allocator@D@2@@std@@N@std@@PAX@2@I@Z 00431850 f i DemoDebugInfo.obj
 0001:00030880       ?max_size@?$allocator@U?$_Tree_node@U?$pair@$$CBV?$basic_string@DU?$char_traits@D@std@@V?$allocator@D@2@@std@@N@std@@PAX@std@@@std@@QBEIXZ 00431880 f i DemoDebugInfo.obj
 0001:000308a0       ?max_size@?$allocator_traits@V?$allocator@U?$_Tree_node@U?$pair@$$CBV?$basic_string@DU?$char_traits@D@std@@V?$allocator@D@2@@std@@N@std@@PAX@std@@@std@@@std@@SAIABV?$allocator@U?$_Tree_node@U?$pair@$$CBV?$basic_string@DU?$char_traits@D@std@@V?$allocator@D@2@@std@@N@std@@PAX@std@@@2@@Z 004318a0 f i DemoDebugInfo.obj
 0001:000308c0       ??0?$_Wrap_alloc@V?$allocator@U?$_Tree_node@U?$pair@$$CBV?$basic_string@DU?$char_traits@D@std@@V?$allocator@D@2@@std@@N@std@@PAX@std@@@std@@@std@@QAE@XZ 004318c0 f i DemoDebugInfo.obj
 0001:000308e0       ?allocate@?$_Wrap_alloc@V?$allocator@U?$_Tree_node@U?$pair@$$CBV?$basic_string@DU?$char_traits@D@std@@V?$allocator@D@2@@std@@N@std@@PAX@std@@@std@@@std@@QAEPAU?$_Tree_node@U?$pair@$$CBV?$basic_string@DU?$char_traits@D@std@@V?$allocator@D@2@@std@@N@std@@PAX@2@I@Z 004318e0 f i DemoDebugInfo.obj
 0001:00030910       ?deallocate@?$_Wrap_alloc@V?$allocator@U?$_Tree_node@U?$pair@$$CBV?$basic_string@DU?$char_traits@D@std@@V?$allocator@D@2@@std@@N@std@@PAX@std@@@std@@@std@@QAEXPAU?$_Tree_node@U?$pair@$$CBV?$basic_string@DU?$char_traits@D@std@@V?$allocator@D@2@@std@@N@std@@PAX@2@I@Z 00431910 f i DemoDebugInfo.obj
 0001:00030940       ?max_size@?$_Wrap_alloc@V?$allocator@U?$_Tree_node@U?$pair@$$CBV?$basic_string@DU?$char_traits@D@std@@V?$allocator@D@2@@std@@N@std@@PAX@std@@@std@@@std@@QBEIXZ 00431940 f i DemoDebugInfo.obj
 0001:00030960       ??0?$_Tree_val@U?$_Tree_simple_types@U?$pair@$$CBV?$basic_string@DU?$char_traits@D@std@@V?$allocator@D@2@@std@@N@std@@@std@@@std@@QAE@XZ 00431960 f i DemoDebugInfo.obj
 0001:00030990       ?_Color@?$_Tree_val@U?$_Tree_simple_types@U?$pair@$$CBV?$basic_string@DU?$char_traits@D@std@@V?$allocator@D@2@@std@@N@std@@@std@@@std@@SAAADPAU?$_Tree_node@U?$pair@$$CBV?$basic_string@DU?$char_traits@D@std@@V?$allocator@D@2@@std@@N@std@@PAX@2@@Z 00431990 f i DemoDebugInfo.obj
 0001:000309b0       ?_Isnil@?$_Tree_val@U?$_Tree_simple_types@U?$pair@$$CBV?$basic_string@DU?$char_traits@D@std@@V?$allocator@D@2@@std@@N@std@@@std@@@std@@SAAADPAU?$_Tree_node@U?$pair@$$CBV?$basic_string@DU?$char_traits@D@std@@V?$allocator@D@2@@std@@N@std@@PAX@2@@Z 004319b0 f i DemoDebugInfo.obj
 0001:000309d0       ?_Left@?$_Tree_val@U?$_Tree_simple_types@U?$pair@$$CBV?$basic_string@DU?$char_traits@D@std@@V?$allocator@D@2@@std@@N@std@@@std@@@std@@SAAAPAU?$_Tree_node@U?$pair@$$CBV?$basic_string@DU?$char_traits@D@std@@V?$allocator@D@2@@std@@N@std@@PAX@2@PAU32@@Z 004319d0 f i DemoDebugInfo.obj
 0001:000309f0       ?_Parent@?$_Tree_val@U?$_Tree_simple_types@U?$pair@$$CBV?$basic_string@DU?$char_traits@D@std@@V?$allocator@D@2@@std@@N@std@@@std@@@std@@SAAAPAU?$_Tree_node@U?$pair@$$CBV?$basic_string@DU?$char_traits@D@std@@V?$allocator@D@2@@std@@N@std@@PAX@2@PAU32@@Z 004319f0 f i DemoDebugInfo.obj
 0001:00030a10       ?_Right@?$_Tree_val@U?$_Tree_simple_types@U?$pair@$$CBV?$basic_string@DU?$char_traits@D@std@@V?$allocator@D@2@@std@@N@std@@@std@@@std@@SAAAPAU?$_Tree_node@U?$pair@$$CBV?$basic_string@DU?$char_traits@D@std@@V?$allocator@D@2@@std@@N@std@@PAX@2@PAU32@@Z 00431a10 f i DemoDebugInfo.obj
 0001:00030a30       ?_Myval@?$_Tree_val@U?$_Tree_simple_types@U?$pair@$$CBV?$basic_string@DU?$char_traits@D@std@@V?$allocator@D@2@@std@@N@std@@@std@@@std@@SAAAU?$pair@$$CBV?$basic_string@DU?$char_traits@D@std@@V?$allocator@D@2@@std@@N@2@PAU?$_Tree_node@U?$pair@$$CBV?$basic_string@DU?$char_traits@D@std@@V?$allocator@D@2@@std@@N@std@@PAX@2@@Z 00431a30 f i DemoDebugInfo.obj
 0001:00030a50       ?_Max@?$_Tree_val@U?$_Tree_simple_types@U?$pair@$$CBV?$basic_string@DU?$char_traits@D@std@@V?$allocator@D@2@@std@@N@std@@@std@@@std@@SAPAU?$_Tree_node@U?$pair@$$CBV?$basic_string@DU?$char_traits@D@std@@V?$allocator@D@2@@std@@N@std@@PAX@2@PAU32@@Z 00431a50 f i DemoDebugInfo.obj
 0001:00030aa0       ?_Min@?$_Tree_val@U?$_Tree_simple_types@U?$pair@$$CBV?$basic_string@DU?$char_traits@D@std@@V?$allocator@D@2@@std@@N@std@@@std@@@std@@SAPAU?$_Tree_node@U?$pair@$$CBV?$basic_string@DU?$char_traits@D@std@@V?$allocator@D@2@@std@@N@std@@PAX@2@PAU32@@Z 00431aa0 f i DemoDebugInfo.obj
 0001:00030af0       ??0?$_Tree_alloc@$0A@U?$_Tree_base_types@U?$pair@$$CBV?$basic_string@DU?$char_traits@D@std@@V?$allocator@D@2@@std@@N@std@@V?$allocator@U?$pair@$$CBV?$basic_string@DU?$char_traits@D@std@@V?$allocator@D@2@@std@@N@std@@@2@@std@@@std@@QAE@ABV?$allocator@U?$pair@$$CBV?$basic_string@DU?$char_traits@D@std@@V?$allocator@D@2@@std@@N@std@@@1@@Z 00431af0 f i DemoDebugInfo.obj
 0001:00030b20       ??1?$_Tree_alloc@$0A@U?$_Tree_base_types@U?$pair@$$CBV?$basic_string@DU?$char_traits@D@std@@V?$allocator@D@2@@std@@N@std@@V?$allocator@U?$pair@$$CBV?$basic_string@DU?$char_traits@D@std@@V?$allocator@D@2@@std@@N@std@@@2@@std@@@std@@QAE@XZ 00431b20 f i DemoDebugInfo.obj
 0001:00030b50       ?_Buyheadnode@?$_Tree_alloc@$0A@U?$_Tree_base_types@U?$pair@$$CBV?$basic_string@DU?$char_traits@D@std@@V?$allocator@D@2@@std@@N@std@@V?$allocator@U?$pair@$$CBV?$basic_string@DU?$char_traits@D@std@@V?$allocator@D@2@@std@@N@std@@@2@@std@@@std@@QAEPAU?$_Tree_node@U?$pair@$$CBV?$basic_string@DU?$char_traits@D@std@@V?$allocator@D@2@@std@@N@std@@PAX@2@XZ 00431b50 f i DemoDebugInfo.obj
 0001:00030cd0       ?_Freeheadnode@?$_Tree_alloc@$0A@U?$_Tree_base_types@U?$pair@$$CBV?$basic_string@DU?$char_traits@D@std@@V?$allocator@D@2@@std@@N@std@@V?$allocator@U?$pair@$$CBV?$basic_string@DU?$char_traits@D@std@@V?$allocator@D@2@@std@@N@std@@@2@@std@@@std@@QAEXPAU?$_Tree_node@U?$pair@$$CBV?$basic_string@DU?$char_traits@D@std@@V?$allocator@D@2@@std@@N@std@@PAX@2@@Z 00431cd0 f i DemoDebugInfo.obj
 0001:00030d80       ?_Getal@?$_Tree_alloc@$0A@U?$_Tree_base_types@U?$pair@$$CBV?$basic_string@DU?$char_traits@D@std@@V?$allocator@D@2@@std@@N@std@@V?$allocator@U?$pair@$$CBV?$basic_string@DU?$char_traits@D@std@@V?$allocator@D@2@@std@@N@std@@@2@@std@@@std@@QBE?AU?$_Wrap_alloc@V?$allocator@U?$_Tree_node@U?$pair@$$CBV?$basic_string@DU?$char_traits@D@std@@V?$allocator@D@2@@std@@N@std@@PAX@std@@@std@@@2@XZ 00431d80 f i DemoDebugInfo.obj
 0001:00030da0       ??0?$_Tree_buy@U?$pair@$$CBV?$basic_string@DU?$char_traits@D@std@@V?$allocator@D@2@@std@@N@std@@V?$allocator@U?$pair@$$CBV?$basic_string@DU?$char_traits@D@std@@V?$allocator@D@2@@std@@N@std@@@2@@std@@QAE@ABV?$allocator@U?$pair@$$CBV?$basic_string@DU?$char_traits@D@std@@V?$allocator@D@2@@std@@N@std@@@1@@Z 00431da0 f i DemoDebugInfo.obj
 0001:00030dd0       ?_Buynode0@?$_Tree_buy@U?$pair@$$CBV?$basic_string@DU?$char_traits@D@std@@V?$allocator@D@2@@std@@N@std@@V?$allocator@U?$pair@$$CBV?$basic_string@DU?$char_traits@D@std@@V?$allocator@D@2@@std@@N@std@@@2@@std@@QAEPAU?$_Tree_node@U?$pair@$$CBV?$basic_string@DU?$char_traits@D@std@@V?$allocator@D@2@@std@@N@std@@PAX@2@XZ 00431dd0 f i DemoDebugInfo.obj
 0001:00030f30       ?_Freenode0@?$_Tree_buy@U?$pair@$$CBV?$basic_string@DU?$char_traits@D@std@@V?$allocator@D@2@@std@@N@std@@V?$allocator@U?$pair@$$CBV?$basic_string@DU?$char_traits@D@std@@V?$allocator@D@2@@std@@N@std@@@2@@std@@QAEXPAU?$_Tree_node@U?$pair@$$CBV?$basic_string@DU?$char_traits@D@std@@V?$allocator@D@2@@std@@N@std@@PAX@2@@Z 00431f30 f i DemoDebugInfo.obj
 0001:00030fe0       ??1?$_Tree_buy@U?$pair@$$CBV?$basic_string@DU?$char_traits@D@std@@V?$allocator@D@2@@std@@N@std@@V?$allocator@U?$pair@$$CBV?$basic_string@DU?$char_traits@D@std@@V?$allocator@D@2@@std@@N@std@@@2@@std@@QAE@XZ 00431fe0 f i DemoDebugInfo.obj
 0001:00031000       ??0?$_Tree_comp@$0A@V?$_Tmap_traits@V?$basic_string@DU?$char_traits@D@std@@V?$allocator@D@2@@std@@NU?$less@V?$basic_string@DU?$char_traits@D@std@@V?$allocator@D@2@@std@@@2@V?$allocator@U?$pair@$$CBV?$basic_string@DU?$char_traits@D@std@@V?$allocator@D@2@@std@@N@std@@@2@$0A@@std@@@std@@QAE@ABU?$less@V?$basic_string@DU?$char_traits@D@std@@V?$allocator@D@2@@std@@@1@ABV?$allocator@U?$pair@$$CBV?$basic_string@DU?$char_traits@D@std@@V?$allocator@D@2@@std@@N@std@@@1@@Z 00432000 f i DemoDebugInfo.obj
 0001:00031030       ?_Getcomp@?$_Tree_comp@$0A@V?$_Tmap_traits@V?$basic_string@DU?$char_traits@D@std@@V?$allocator@D@2@@std@@NU?$less@V?$basic_string@DU?$char_traits@D@std@@V?$allocator@D@2@@std@@@2@V?$allocator@U?$pair@$$CBV?$basic_string@DU?$char_traits@D@std@@V?$allocator@D@2@@std@@N@std@@@2@$0A@@std@@@std@@QBE?AU?$less@V?$basic_string@DU?$char_traits@D@std@@V?$allocator@D@2@@std@@@2@XZ 00432030 f i DemoDebugInfo.obj
 0001:00031050       ??1?$_Tree_comp@$0A@V?$_Tmap_traits@V?$basic_string@DU?$char_traits@D@std@@V?$allocator@D@2@@std@@NU?$less@V?$basic_string@DU?$char_traits@D@std@@V?$allocator@D@2@@std@@@2@V?$allocator@U?$pair@$$CBV?$basic_string@DU?$char_traits@D@std@@V?$allocator@D@2@@std@@N@std@@@2@$0A@@std@@@std@@QAE@XZ 00432050 f i DemoDebugInfo.obj
 0001:00031070       ??0?$_Tree@V?$_Tmap_traits@V?$basic_string@DU?$char_traits@D@std@@V?$allocator@D@2@@std@@NU?$less@V?$basic_string@DU?$char_traits@D@std@@V?$allocator@D@2@@std@@@2@V?$allocator@U?$pair@$$CBV?$basic_string@DU?$char_traits@D@std@@V?$allocator@D@2@@std@@N@std@@@2@$0A@@std@@@std@@QAE@ABU?$less@V?$basic_string@DU?$char_traits@D@std@@V?$allocator@D@2@@std@@@1@ABV?$allocator@U?$pair@$$CBV?$basic_string@DU?$char_traits@D@std@@V?$allocator@D@2@@std@@N@std@@@1@@Z 00432070 f i DemoDebugInfo.obj
 0001:000310a0       ??1?$_Tree@V?$_Tmap_traits@V?$basic_string@DU?$char_traits@D@std@@V?$allocator@D@2@@std@@NU?$less@V?$basic_string@DU?$char_traits@D@std@@V?$allocator@D@2@@std@@@2@V?$allocator@U?$pair@$$CBV?$basic_string@DU?$char_traits@D@std@@V?$allocator@D@2@@std@@N@std@@@2@$0A@@std@@@std@@QAE@XZ 004320a0 f i DemoDebugInfo.obj
 0001:00031100       ?begin@?$_Tree@V?$_Tmap_traits@V?$basic_string@DU?$char_traits@D@std@@V?$allocator@D@2@@std@@NU?$less@V?$basic_string@DU?$char_traits@D@std@@V?$allocator@D@2@@std@@@2@V?$allocator@U?$pair@$$CBV?$basic_string@DU?$char_traits@D@std@@V?$allocator@D@2@@std@@N@std@@@2@$0A@@std@@@std@@QAE?AV?$_Tree_iterator@V?$_Tree_val@U?$_Tree_simple_types@U?$pair@$$CBV?$basic_string@DU?$char_traits@D@std@@V?$allocator@D@2@@std@@N@std@@@std@@@std@@@2@XZ 00432100 f i DemoDebugInfo.obj
 0001:00031130       ?end@?$_Tree@V?$_Tmap_traits@V?$basic_string@DU?$char_traits@D@std@@V?$allocator@D@2@@std@@NU?$less@V?$basic_string@DU?$char_traits@D@std@@V?$allocator@D@2@@std@@@2@V?$allocator@U?$pair@$$CBV?$basic_string@DU?$char_traits@D@std@@V?$allocator@D@2@@std@@N@std@@@2@$0A@@std@@@std@@QAE?AV?$_Tree_iterator@V?$_Tree_val@U?$_Tree_simple_types@U?$pair@$$CBV?$basic_string@DU?$char_traits@D@std@@V?$allocator@D@2@@std@@N@std@@@std@@@std@@@2@XZ 00432130 f i DemoDebugInfo.obj
 0001:00031160       ?size@?$_Tree@V?$_Tmap_traits@V?$basic_string@DU?$char_traits@D@std@@V?$allocator@D@2@@std@@NU?$less@V?$basic_string@DU?$char_traits@D@std@@V?$allocator@D@2@@std@@@2@V?$allocator@U?$pair@$$CBV?$basic_string@DU?$char_traits@D@std@@V?$allocator@D@2@@std@@N@std@@@2@$0A@@std@@@std@@QBEIXZ 00432160 f i DemoDebugInfo.obj
 0001:00031180       ?max_size@?$_Tree@V?$_Tmap_traits@V?$basic_string@DU?$char_traits@D@std@@V?$allocator@D@2@@std@@NU?$less@V?$basic_string@DU?$char_traits@D@std@@V?$allocator@D@2@@std@@@2@V?$allocator@U?$pair@$$CBV?$basic_string@DU?$char_traits@D@std@@V?$allocator@D@2@@std@@N@std@@@2@$0A@@std@@@std@@QBEIXZ 00432180 f i DemoDebugInfo.obj
 0001:000311b0       ?erase@?$_Tree@V?$_Tmap_traits@V?$basic_string@DU?$char_traits@D@std@@V?$allocator@D@2@@std@@NU?$less@V?$basic_string@DU?$char_traits@D@std@@V?$allocator@D@2@@std@@@2@V?$allocator@U?$pair@$$CBV?$basic_string@DU?$char_traits@D@std@@V?$allocator@D@2@@std@@N@std@@@2@$0A@@std@@@std@@QAE?AV?$_Tree_iterator@V?$_Tree_val@U?$_Tree_simple_types@U?$pair@$$CBV?$basic_string@DU?$char_traits@D@std@@V?$allocator@D@2@@std@@N@std@@@std@@@std@@@2@V?$_Tree_const_iterator@V?$_Tree_val@U?$_Tree_simple_types@U?$pair@$$CBV?$basic_string@DU?$char_traits@D@std@@V?$allocator@D@2@@std@@N@std@@@std@@@std@@@2@@Z 004321b0 f i DemoDebugInfo.obj
 0001:00031950       ?erase@?$_Tree@V?$_Tmap_traits@V?$basic_string@DU?$char_traits@D@std@@V?$allocator@D@2@@std@@NU?$less@V?$basic_string@DU?$char_traits@D@std@@V?$allocator@D@2@@std@@@2@V?$allocator@U?$pair@$$CBV?$basic_string@DU?$char_traits@D@std@@V?$allocator@D@2@@std@@N@std@@@2@$0A@@std@@@std@@QAE?AV?$_Tree_iterator@V?$_Tree_val@U?$_Tree_simple_types@U?$pair@$$CBV?$basic_string@DU?$char_traits@D@std@@V?$allocator@D@2@@std@@N@std@@@std@@@std@@@2@V?$_Tree_const_iterator@V?$_Tree_val@U?$_Tree_simple_types@U?$pair@$$CBV?$basic_string@DU?$char_traits@D@std@@V?$allocator@D@2@@std@@N@std@@@std@@@std@@@2@0@Z 00432950 f i DemoDebugInfo.obj
 0001:00031a00       ?clear@?$_Tree@V?$_Tmap_traits@V?$basic_string@DU?$char_traits@D@std@@V?$allocator@D@2@@std@@NU?$less@V?$basic_string@DU?$char_traits@D@std@@V?$allocator@D@2@@std@@@2@V?$allocator@U?$pair@$$CBV?$basic_string@DU?$char_traits@D@std@@V?$allocator@D@2@@std@@N@std@@@2@$0A@@std@@@std@@QAEXXZ 00432a00 f i DemoDebugInfo.obj
 0001:00031a60       ?lower_bound@?$_Tree@V?$_Tmap_traits@V?$basic_string@DU?$char_traits@D@std@@V?$allocator@D@2@@std@@NU?$less@V?$basic_string@DU?$char_traits@D@std@@V?$allocator@D@2@@std@@@2@V?$allocator@U?$pair@$$CBV?$basic_string@DU?$char_traits@D@std@@V?$allocator@D@2@@std@@N@std@@@2@$0A@@std@@@std@@QAE?AV?$_Tree_iterator@V?$_Tree_val@U?$_Tree_simple_types@U?$pair@$$CBV?$basic_string@DU?$char_traits@D@std@@V?$allocator@D@2@@std@@N@std@@@std@@@std@@@2@ABV?$basic_string@DU?$char_traits@D@std@@V?$allocator@D@2@@2@@Z 00432a60 f i DemoDebugInfo.obj
 0001:00031aa0       ?_Destroy_if_not_nil@?$_Tree@V?$_Tmap_traits@V?$basic_string@DU?$char_traits@D@std@@V?$allocator@D@2@@std@@NU?$less@V?$basic_string@DU?$char_traits@D@std@@V?$allocator@D@2@@std@@@2@V?$allocator@U?$pair@$$CBV?$basic_string@DU?$char_traits@D@std@@V?$allocator@D@2@@std@@N@std@@@2@$0A@@std@@@std@@IAEXPAU?$_Tree_node@U?$pair@$$CBV?$basic_string@DU?$char_traits@D@std@@V?$allocator@D@2@@std@@N@std@@PAX@2@@Z 00432aa0 f i DemoDebugInfo.obj
 0001:00031b00       ?_Erase@?$_Tree@V?$_Tmap_traits@V?$basic_string@DU?$char_traits@D@std@@V?$allocator@D@2@@std@@NU?$less@V?$basic_string@DU?$char_traits@D@std@@V?$allocator@D@2@@std@@@2@V?$allocator@U?$pair@$$CBV?$basic_string@DU?$char_traits@D@std@@V?$allocator@D@2@@std@@N@std@@@2@$0A@@std@@@std@@IAEXPAU?$_Tree_node@U?$pair@$$CBV?$basic_string@DU?$char_traits@D@std@@V?$allocator@D@2@@std@@N@std@@PAX@2@@Z 00432b00 f i DemoDebugInfo.obj
 0001:00031bb0       ?_Lbound@?$_Tree@V?$_Tmap_traits@V?$basic_string@DU?$char_traits@D@std@@V?$allocator@D@2@@std@@NU?$less@V?$basic_string@DU?$char_traits@D@std@@V?$allocator@D@2@@std@@@2@V?$allocator@U?$pair@$$CBV?$basic_string@DU?$char_traits@D@std@@V?$allocator@D@2@@std@@N@std@@@2@$0A@@std@@@std@@IAEPAU?$_Tree_node@U?$pair@$$CBV?$basic_string@DU?$char_traits@D@std@@V?$allocator@D@2@@std@@N@std@@PAX@2@ABV?$basic_string@DU?$char_traits@D@std@@V?$allocator@D@2@@2@@Z 00432bb0 f i DemoDebugInfo.obj
 0001:00031c50       ?_Lmost@?$_Tree@V?$_Tmap_traits@V?$basic_string@DU?$char_traits@D@std@@V?$allocator@D@2@@std@@NU?$less@V?$basic_string@DU?$char_traits@D@std@@V?$allocator@D@2@@std@@@2@V?$allocator@U?$pair@$$CBV?$basic_string@DU?$char_traits@D@std@@V?$allocator@D@2@@std@@N@std@@@2@$0A@@std@@@std@@IBEAAPAU?$_Tree_node@U?$pair@$$CBV?$basic_string@DU?$char_traits@D@std@@V?$allocator@D@2@@std@@N@std@@PAX@2@XZ 00432c50 f i DemoDebugInfo.obj
 0001:00031c80       ?_Lrotate@?$_Tree@V?$_Tmap_traits@V?$basic_string@DU?$char_traits@D@std@@V?$allocator@D@2@@std@@NU?$less@V?$basic_string@DU?$char_traits@D@std@@V?$allocator@D@2@@std@@@2@V?$allocator@U?$pair@$$CBV?$basic_string@DU?$char_traits@D@std@@V?$allocator@D@2@@std@@N@std@@@2@$0A@@std@@@std@@IAEXPAU?$_Tree_node@U?$pair@$$CBV?$basic_string@DU?$char_traits@D@std@@V?$allocator@D@2@@std@@N@std@@PAX@2@@Z 00432c80 f i DemoDebugInfo.obj
 0001:00031dc0       ?_Rmost@?$_Tree@V?$_Tmap_traits@V?$basic_string@DU?$char_traits@D@std@@V?$allocator@D@2@@std@@NU?$less@V?$basic_string@DU?$char_traits@D@std@@V?$allocator@D@2@@std@@@2@V?$allocator@U?$pair@$$CBV?$basic_string@DU?$char_traits@D@std@@V?$allocator@D@2@@std@@N@std@@@2@$0A@@std@@@std@@IBEAAPAU?$_Tree_node@U?$pair@$$CBV?$basic_string@DU?$char_traits@D@std@@V?$allocator@D@2@@std@@N@std@@PAX@2@XZ 00432dc0 f i DemoDebugInfo.obj
 0001:00031df0       ?_Root@?$_Tree@V?$_Tmap_traits@V?$basic_string@DU?$char_traits@D@std@@V?$allocator@D@2@@std@@NU?$less@V?$basic_string@DU?$char_traits@D@std@@V?$allocator@D@2@@std@@@2@V?$allocator@U?$pair@$$CBV?$basic_string@DU?$char_traits@D@std@@V?$allocator@D@2@@std@@N@std@@@2@$0A@@std@@@std@@IBEAAPAU?$_Tree_node@U?$pair@$$CBV?$basic_string@DU?$char_traits@D@std@@V?$allocator@D@2@@std@@N@std@@PAX@2@XZ 00432df0 f i DemoDebugInfo.obj
 0001:00031e20       ?_Rrotate@?$_Tree@V?$_Tmap_traits@V?$basic_string@DU?$char_traits@D@std@@V?$allocator@D@2@@std@@NU?$less@V?$basic_string@DU?$char_traits@D@std@@V?$allocator@D@2@@std@@@2@V?$allocator@U?$pair@$$CBV?$basic_string@DU?$char_traits@D@std@@V?$allocator@D@2@@std@@N@std@@@2@$0A@@std@@@std@@IAEXPAU?$_Tree_node@U?$pair@$$CBV?$basic_string@DU?$char_traits@D@std@@V?$allocator@D@2@@std@@N@std@@PAX@2@@Z 00432e20 f i DemoDebugInfo.obj
 0001:00031f60       ?_Tidy@?$_Tree@V?$_Tmap_traits@V?$basic_string@DU?$char_traits@D@std@@V?$allocator@D@2@@std@@NU?$less@V?$basic_string@DU?$char_traits@D@std@@V?$allocator@D@2@@std@@@2@V?$allocator@U?$pair@$$CBV?$basic_string@DU?$char_traits@D@std@@V?$allocator@D@2@@std@@N@std@@@2@$0A@@std@@@std@@IAEXXZ 00432f60 f i DemoDebugInfo.obj
 0001:00031fb0       ?_Kfn@?$_Tree@V?$_Tmap_traits@V?$basic_string@DU?$char_traits@D@std@@V?$allocator@D@2@@std@@NU?$less@V?$basic_string@DU?$char_traits@D@std@@V?$allocator@D@2@@std@@@2@V?$allocator@U?$pair@$$CBV?$basic_string@DU?$char_traits@D@std@@V?$allocator@D@2@@std@@N@std@@@2@$0A@@std@@@std@@IBEABV?$basic_string@DU?$char_traits@D@std@@V?$allocator@D@2@@2@ABU?$pair@$$CBV?$basic_string@DU?$char_traits@D@std@@V?$allocator@D@2@@std@@N@2@@Z 00432fb0 f i DemoDebugInfo.obj
 0001:00031fe0       ?_Key@?$_Tree@V?$_Tmap_traits@V?$basic_string@DU?$char_traits@D@std@@V?$allocator@D@2@@std@@NU?$less@V?$basic_string@DU?$char_traits@D@std@@V?$allocator@D@2@@std@@@2@V?$allocator@U?$pair@$$CBV?$basic_string@DU?$char_traits@D@std@@V?$allocator@D@2@@std@@N@std@@@2@$0A@@std@@@std@@IBEABV?$basic_string@DU?$char_traits@D@std@@V?$allocator@D@2@@2@PAU?$_Tree_node@U?$pair@$$CBV?$basic_string@DU?$char_traits@D@std@@V?$allocator@D@2@@std@@N@std@@PAX@2@@Z 00432fe0 f i DemoDebugInfo.obj
 0001:00032010       ??0?$map@V?$basic_string@DU?$char_traits@D@std@@V?$allocator@D@2@@std@@NU?$less@V?$basic_string@DU?$char_traits@D@std@@V?$allocator@D@2@@std@@@2@V?$allocator@U?$pair@$$CBV?$basic_string@DU?$char_traits@D@std@@V?$allocator@D@2@@std@@N@std@@@2@@std@@QAE@XZ 00433010 f i DemoDebugInfo.obj
 0001:00032040       ??A?$map@V?$basic_string@DU?$char_traits@D@std@@V?$allocator@D@2@@std@@NU?$less@V?$basic_string@DU?$char_traits@D@std@@V?$allocator@D@2@@std@@@2@V?$allocator@U?$pair@$$CBV?$basic_string@DU?$char_traits@D@std@@V?$allocator@D@2@@std@@N@std@@@2@@std@@QAEAAN$$QAV?$basic_string@DU?$char_traits@D@std@@V?$allocator@D@2@@1@@Z 00433040 f i DemoDebugInfo.obj
 0001:00032180       ??A?$map@V?$basic_string@DU?$char_traits@D@std@@V?$allocator@D@2@@std@@NU?$less@V?$basic_string@DU?$char_traits@D@std@@V?$allocator@D@2@@std@@@2@V?$allocator@U?$pair@$$CBV?$basic_string@DU?$char_traits@D@std@@V?$allocator@D@2@@std@@N@std@@@2@@std@@QAEAANABV?$basic_string@DU?$char_traits@D@std@@V?$allocator@D@2@@1@@Z 00433180 f i DemoDebugInfo.obj
 0001:000322b0       ??1?$map@V?$basic_string@DU?$char_traits@D@std@@V?$allocator@D@2@@std@@NU?$less@V?$basic_string@DU?$char_traits@D@std@@V?$allocator@D@2@@std@@@2@V?$allocator@U?$pair@$$CBV?$basic_string@DU?$char_traits@D@std@@V?$allocator@D@2@@std@@N@std@@@2@@std@@QAE@XZ 004332b0 f i DemoDebugInfo.obj
 0001:000322d0       ??0?$basic_ostringstream@DU?$char_traits@D@std@@V?$allocator@D@2@@std@@QAE@H@Z 004332d0 f i DemoDebugInfo.obj
 0001:000323b0       ??1?$basic_ostringstream@DU?$char_traits@D@std@@V?$allocator@D@2@@std@@UAE@XZ 004333b0 f i DemoDebugInfo.obj
 0001:00032450       ?str@?$basic_ostringstream@DU?$char_traits@D@std@@V?$allocator@D@2@@std@@QBE?AV?$basic_string@DU?$char_traits@D@std@@V?$allocator@D@2@@2@XZ 00433450 f i DemoDebugInfo.obj
 0001:00032490       ?str@?$basic_ostringstream@DU?$char_traits@D@std@@V?$allocator@D@2@@std@@QAEXABV?$basic_string@DU?$char_traits@D@std@@V?$allocator@D@2@@2@@Z 00433490 f i DemoDebugInfo.obj
 0001:000324c0       ??0?$basic_stringbuf@DU?$char_traits@D@std@@V?$allocator@D@2@@std@@QAE@H@Z 004334c0 f i DemoDebugInfo.obj
 0001:00032550       ??1?$basic_stringbuf@DU?$char_traits@D@std@@V?$allocator@D@2@@std@@UAE@XZ 00433550 f i DemoDebugInfo.obj
 0001:000325c0       ?str@?$basic_stringbuf@DU?$char_traits@D@std@@V?$allocator@D@2@@std@@QBE?AV?$basic_string@DU?$char_traits@D@std@@V?$allocator@D@2@@2@XZ 004335c0 f i DemoDebugInfo.obj
 0001:00032780       ?str@?$basic_stringbuf@DU?$char_traits@D@std@@V?$allocator@D@2@@std@@QAEXABV?$basic_string@DU?$char_traits@D@std@@V?$allocator@D@2@@2@@Z 00433780 f i DemoDebugInfo.obj
 0001:000327c0       ?overflow@?$basic_stringbuf@DU?$char_traits@D@std@@V?$allocator@D@2@@std@@MAEHH@Z 004337c0 f i DemoDebugInfo.obj
 0001:00032ac0       ?pbackfail@?$basic_stringbuf@DU?$char_traits@D@std@@V?$allocator@D@2@@std@@MAEHH@Z 00433ac0 f i DemoDebugInfo.obj
 0001:00032bc0       ?underflow@?$basic_stringbuf@DU?$char_traits@D@std@@V?$allocator@D@2@@std@@MAEHXZ 00433bc0 f i DemoDebugInfo.obj
 0001:00032cd0       ?seekoff@?$basic_stringbuf@DU?$char_traits@D@std@@V?$allocator@D@2@@std@@MAE?AV?$fpos@H@2@_JHH@Z 00433cd0 f i DemoDebugInfo.obj
 0001:00032f90       ?seekpos@?$basic_stringbuf@DU?$char_traits@D@std@@V?$allocator@D@2@@std@@MAE?AV?$fpos@H@2@V32@H@Z 00433f90 f i DemoDebugInfo.obj
 0001:00033190       ?_Init@?$basic_stringbuf@DU?$char_traits@D@std@@V?$allocator@D@2@@std@@IAEXPBDIH@Z 00434190 f i DemoDebugInfo.obj
 0001:000332c0       ?_Tidy@?$basic_stringbuf@DU?$char_traits@D@std@@V?$allocator@D@2@@std@@IAEXXZ 004342c0 f i DemoDebugInfo.obj
 0001:00033360       ?_Getstate@?$basic_stringbuf@DU?$char_traits@D@std@@V?$allocator@D@2@@std@@AAEHH@Z 00434360 f i DemoDebugInfo.obj
 0001:000333d0       ??_E?$basic_stringbuf@DU?$char_traits@D@std@@V?$allocator@D@2@@std@@UAEPAXI@Z 004343d0 f i DemoDebugInfo.obj
 0001:000333d0       ??_G?$basic_stringbuf@DU?$char_traits@D@std@@V?$allocator@D@2@@std@@UAEPAXI@Z 004343d0 f i DemoDebugInfo.obj
 0001:00033410       ??_G?$basic_ostringstream@DU?$char_traits@D@std@@V?$allocator@D@2@@std@@UAEPAXI@Z 00434410 f i DemoDebugInfo.obj
 0001:00033410       ??_E?$basic_ostringstream@DU?$char_traits@D@std@@V?$allocator@D@2@@std@@UAEPAXI@Z 00434410 f i DemoDebugInfo.obj
 0001:00033450       ??_D?$basic_ostringstream@DU?$char_traits@D@std@@V?$allocator@D@2@@std@@QAEXXZ 00434450 f i DemoDebugInfo.obj
 0001:00033480       ??0?$_Tree_unchecked_const_iterator@V?$_Tree_val@U?$_Tree_simple_types@U?$pair@$$CBV?$basic_string@DU?$char_traits@D@std@@V?$allocator@D@2@@std@@N@std@@@std@@@std@@U_Iterator_base0@2@@std@@QAE@XZ 00434480 f i DemoDebugInfo.obj
 0001:000334a0       ??0?$_Tree_unchecked_const_iterator@V?$_Tree_val@U?$_Tree_simple_types@U?$pair@$$CBV?$basic_string@DU?$char_traits@D@std@@V?$allocator@D@2@@std@@N@std@@@std@@@std@@U_Iterator_base0@2@@std@@QAE@PAU?$_Tree_node@U?$pair@$$CBV?$basic_string@DU?$char_traits@D@std@@V?$allocator@D@2@@std@@N@std@@PAX@1@PBV?$_Tree_val@U?$_Tree_simple_types@U?$pair@$$CBV?$basic_string@DU?$char_traits@D@std@@V?$allocator@D@2@@std@@N@std@@@std@@@1@@Z 004344a0 f i DemoDebugInfo.obj
 0001:000334d0       ??E?$_Tree_unchecked_const_iterator@V?$_Tree_val@U?$_Tree_simple_types@U?$pair@$$CBV?$basic_string@DU?$char_traits@D@std@@V?$allocator@D@2@@std@@N@std@@@std@@@std@@U_Iterator_base0@2@@std@@QAEAAV01@XZ 004344d0 f i DemoDebugInfo.obj
 0001:00033590       ??F?$_Tree_unchecked_const_iterator@V?$_Tree_val@U?$_Tree_simple_types@U?$pair@$$CBV?$basic_string@DU?$char_traits@D@std@@V?$allocator@D@2@@std@@N@std@@@std@@@std@@U_Iterator_base0@2@@std@@QAEAAV01@XZ 00434590 f i DemoDebugInfo.obj
 0001:00033680       ?_Mynode@?$_Tree_unchecked_const_iterator@V?$_Tree_val@U?$_Tree_simple_types@U?$pair@$$CBV?$basic_string@DU?$char_traits@D@std@@V?$allocator@D@2@@std@@N@std@@@std@@@std@@U_Iterator_base0@2@@std@@QBEPAU?$_Tree_node@U?$pair@$$CBV?$basic_string@DU?$char_traits@D@std@@V?$allocator@D@2@@std@@N@std@@PAX@2@XZ 00434680 f i DemoDebugInfo.obj
 0001:000336a0       ??0?$_Tree_const_iterator@V?$_Tree_val@U?$_Tree_simple_types@U?$pair@$$CBV?$basic_string@DU?$char_traits@D@std@@V?$allocator@D@2@@std@@N@std@@@std@@@std@@@std@@QAE@XZ 004346a0 f i DemoDebugInfo.obj
 0001:000336c0       ??0?$_Tree_const_iterator@V?$_Tree_val@U?$_Tree_simple_types@U?$pair@$$CBV?$basic_string@DU?$char_traits@D@std@@V?$allocator@D@2@@std@@N@std@@@std@@@std@@@std@@QAE@PAU?$_Tree_node@U?$pair@$$CBV?$basic_string@DU?$char_traits@D@std@@V?$allocator@D@2@@std@@N@std@@PAX@1@PBV?$_Tree_val@U?$_Tree_simple_types@U?$pair@$$CBV?$basic_string@DU?$char_traits@D@std@@V?$allocator@D@2@@std@@N@std@@@std@@@1@@Z 004346c0 f i DemoDebugInfo.obj
 0001:000336f0       ??D?$_Tree_const_iterator@V?$_Tree_val@U?$_Tree_simple_types@U?$pair@$$CBV?$basic_string@DU?$char_traits@D@std@@V?$allocator@D@2@@std@@N@std@@@std@@@std@@@std@@QBEABU?$pair@$$CBV?$basic_string@DU?$char_traits@D@std@@V?$allocator@D@2@@std@@N@1@XZ 004346f0 f i DemoDebugInfo.obj
 0001:00033720       ??E?$_Tree_const_iterator@V?$_Tree_val@U?$_Tree_simple_types@U?$pair@$$CBV?$basic_string@DU?$char_traits@D@std@@V?$allocator@D@2@@std@@N@std@@@std@@@std@@@std@@QAEAAV01@XZ 00434720 f i DemoDebugInfo.obj
 0001:00033740       ??E?$_Tree_const_iterator@V?$_Tree_val@U?$_Tree_simple_types@U?$pair@$$CBV?$basic_string@DU?$char_traits@D@std@@V?$allocator@D@2@@std@@N@std@@@std@@@std@@@std@@QAE?AV01@H@Z 00434740 f i DemoDebugInfo.obj
 0001:00033770       ??F?$_Tree_const_iterator@V?$_Tree_val@U?$_Tree_simple_types@U?$pair@$$CBV?$basic_string@DU?$char_traits@D@std@@V?$allocator@D@2@@std@@N@std@@@std@@@std@@@std@@QAEAAV01@XZ 00434770 f i DemoDebugInfo.obj
 0001:00033790       ??8?$_Tree_const_iterator@V?$_Tree_val@U?$_Tree_simple_types@U?$pair@$$CBV?$basic_string@DU?$char_traits@D@std@@V?$allocator@D@2@@std@@N@std@@@std@@@std@@@std@@QBE_NABV01@@Z 00434790 f i DemoDebugInfo.obj
 0001:000337d0       ??9?$_Tree_const_iterator@V?$_Tree_val@U?$_Tree_simple_types@U?$pair@$$CBV?$basic_string@DU?$char_traits@D@std@@V?$allocator@D@2@@std@@N@std@@@std@@@std@@@std@@QBE_NABV01@@Z 004347d0 f i DemoDebugInfo.obj
 0001:00033810       ??0?$_Tree_iterator@V?$_Tree_val@U?$_Tree_simple_types@U?$pair@$$CBV?$basic_string@DU?$char_traits@D@std@@V?$allocator@D@2@@std@@N@std@@@std@@@std@@@std@@QAE@PAU?$_Tree_node@U?$pair@$$CBV?$basic_string@DU?$char_traits@D@std@@V?$allocator@D@2@@std@@N@std@@PAX@1@PBV?$_Tree_val@U?$_Tree_simple_types@U?$pair@$$CBV?$basic_string@DU?$char_traits@D@std@@V?$allocator@D@2@@std@@N@std@@@std@@@1@@Z 00434810 f i DemoDebugInfo.obj
 0001:00033840       ??D?$_Tree_iterator@V?$_Tree_val@U?$_Tree_simple_types@U?$pair@$$CBV?$basic_string@DU?$char_traits@D@std@@V?$allocator@D@2@@std@@N@std@@@std@@@std@@@std@@QBEAAU?$pair@$$CBV?$basic_string@DU?$char_traits@D@std@@V?$allocator@D@2@@std@@N@1@XZ 00434840 f i DemoDebugInfo.obj
 0001:00033860       ??C?$_Tree_iterator@V?$_Tree_val@U?$_Tree_simple_types@U?$pair@$$CBV?$basic_string@DU?$char_traits@D@std@@V?$allocator@D@2@@std@@N@std@@@std@@@std@@@std@@QBEPAU?$pair@$$CBV?$basic_string@DU?$char_traits@D@std@@V?$allocator@D@2@@std@@N@1@XZ 00434860 f i DemoDebugInfo.obj
 0001:00033890       ??E?$_Tree_iterator@V?$_Tree_val@U?$_Tree_simple_types@U?$pair@$$CBV?$basic_string@DU?$char_traits@D@std@@V?$allocator@D@2@@std@@N@std@@@std@@@std@@@std@@QAEAAV01@XZ 00434890 f i DemoDebugInfo.obj
 0001:000338b0       ??F?$_Tree_iterator@V?$_Tree_val@U?$_Tree_simple_types@U?$pair@$$CBV?$basic_string@DU?$char_traits@D@std@@V?$allocator@D@2@@std@@N@std@@@std@@@std@@@std@@QAEAAV01@XZ 004348b0 f i DemoDebugInfo.obj
 0001:000338d0       ??1?$pair@$$CBV?$basic_string@DU?$char_traits@D@std@@V?$allocator@D@2@@std@@N@std@@QAE@XZ 004348d0 f i DemoDebugInfo.obj
 0001:000338f0       ??_G?$pair@$$CBV?$basic_string@DU?$char_traits@D@std@@V?$allocator@D@2@@std@@N@std@@QAEPAXI@Z 004348f0 f i DemoDebugInfo.obj
 0001:00033930       ??$?6DU?$char_traits@D@std@@V?$allocator@D@1@@std@@YAAAV?$basic_ostream@DU?$char_traits@D@std@@@0@AAV10@ABV?$basic_string@DU?$char_traits@D@std@@V?$allocator@D@2@@0@@Z 00434930 f i DemoDebugInfo.obj
 0001:00033c90       ??$?6U?$char_traits@D@std@@@std@@YAAAV?$basic_ostream@DU?$char_traits@D@std@@@0@AAV10@PBD@Z 00434c90 f i DemoDebugInfo.obj
 0001:00034070       ??$?6DU?$char_traits@D@std@@_J@std@@YAAAV?$basic_ostream@DU?$char_traits@D@std@@@0@AAV10@ABU?$_Smanip@_J@0@@Z 00435070 f i DemoDebugInfo.obj
 0001:000340c0       ??$forward@V?$basic_string@DU?$char_traits@D@std@@V?$allocator@D@2@@std@@@std@@YA$$QAV?$basic_string@DU?$char_traits@D@std@@V?$allocator@D@2@@0@AAV10@@Z 004350c0 f i DemoDebugInfo.obj
 0001:000340e0       ??$?9V?$allocator@D@std@@V01@@std@@YA_NABU?$_Wrap_alloc@V?$allocator@D@std@@@0@0@Z 004350e0 f i DemoDebugInfo.obj
 0001:00034120       ??0?$_String_const_iterator@V?$_String_val@U?$_Simple_types@D@std@@@std@@@std@@QAE@PBDPBU_Container_base0@1@@Z 00435120 f i DemoDebugInfo.obj
 0001:00034150       ??D?$_String_const_iterator@V?$_String_val@U?$_Simple_types@D@std@@@std@@@std@@QBEABDXZ 00435150 f i DemoDebugInfo.obj
 0001:00034170       ??G?$_String_const_iterator@V?$_String_val@U?$_Simple_types@D@std@@@std@@@std@@QBEHABV01@@Z 00435170 f i DemoDebugInfo.obj
 0001:000341a0       ??8?$_String_const_iterator@V?$_String_val@U?$_Simple_types@D@std@@@std@@@std@@QBE_NABV01@@Z 004351a0 f i DemoDebugInfo.obj
 0001:000341e0       ?_Compat@?$_String_const_iterator@V?$_String_val@U?$_Simple_types@D@std@@@std@@@std@@QBEXABV12@@Z 004351e0 f i DemoDebugInfo.obj
 0001:00034200       ??0?$_String_iterator@V?$_String_val@U?$_Simple_types@D@std@@@std@@@std@@QAE@PADPBU_Container_base0@1@@Z 00435200 f i DemoDebugInfo.obj
 0001:00034230       ??D?$_String_iterator@V?$_String_val@U?$_Simple_types@D@std@@@std@@@std@@QBEAADXZ 00435230 f i DemoDebugInfo.obj
 0001:00034250       ??G?$_String_iterator@V?$_String_val@U?$_Simple_types@D@std@@@std@@@std@@QBEHABV?$_String_const_iterator@V?$_String_val@U?$_Simple_types@D@std@@@std@@@1@@Z 00435250 f i DemoDebugInfo.obj
 0001:00034280       ??$assign@V?$_String_iterator@V?$_String_val@U?$_Simple_types@D@std@@@std@@@std@@@?$basic_string@DU?$char_traits@D@std@@V?$allocator@D@2@@std@@QAEAAV01@V?$_String_iterator@V?$_String_val@U?$_Simple_types@D@std@@@std@@@1@0@Z 00435280 f i DemoDebugInfo.obj
 0001:000342d0       ??0?$fpos@H@std@@QAE@_J@Z  004352d0 f i DemoDebugInfo.obj
 0001:00034320       ??B?$fpos@H@std@@QBE_JXZ   00435320 f i DemoDebugInfo.obj
 0001:00034350       ??0_Sentry_base@?$basic_ostream@DU?$char_traits@D@std@@@std@@QAE@AAV12@@Z 00435350 f i DemoDebugInfo.obj
 0001:000343c0       ??1_Sentry_base@?$basic_ostream@DU?$char_traits@D@std@@@std@@QAE@XZ 004353c0 f i DemoDebugInfo.obj
 0001:00034420       ??0sentry@?$basic_ostream@DU?$char_traits@D@std@@@std@@QAE@AAV12@@Z 00435420 f i DemoDebugInfo.obj
 0001:000344f0       ??1sentry@?$basic_ostream@DU?$char_traits@D@std@@@std@@QAE@XZ 004354f0 f i DemoDebugInfo.obj
 0001:00034560       ??Bsentry@?$basic_ostream@DU?$char_traits@D@std@@@std@@QBEPQ?$_Bool_struct@V?$basic_ostream@DU?$char_traits@D@std@@@std@@@2@HXZ 00435560 f i DemoDebugInfo.obj
 0001:000345a0       ??$move@AAV?$basic_string@DU?$char_traits@D@std@@V?$allocator@D@2@@std@@@std@@YA$$QAV?$basic_string@DU?$char_traits@D@std@@V?$allocator@D@2@@0@AAV10@@Z 004355a0 f i DemoDebugInfo.obj
 0001:000345c0       ??1?$pair@V?$basic_string@DU?$char_traits@D@std@@V?$allocator@D@2@@std@@N@std@@QAE@XZ 004355c0 f i DemoDebugInfo.obj
 0001:000345e0       ??$?0V?$basic_string@DU?$char_traits@D@std@@V?$allocator@D@2@@std@@N@?$pair@V?$basic_string@DU?$char_traits@D@std@@V?$allocator@D@2@@std@@N@std@@QAE@$$QAV?$basic_string@DU?$char_traits@D@std@@V?$allocator@D@2@@1@$$QANPAPAX@Z 004355e0 f i DemoDebugInfo.obj
 0001:00034660       ??$?0V?$basic_string@DU?$char_traits@D@std@@V?$allocator@D@2@@std@@N@?$pair@$$CBV?$basic_string@DU?$char_traits@D@std@@V?$allocator@D@2@@std@@N@std@@QAE@$$QAU?$pair@V?$basic_string@DU?$char_traits@D@std@@V?$allocator@D@2@@std@@N@1@@Z 00435660 f i DemoDebugInfo.obj
 0001:000346e0       ??$insert@U?$pair@V?$basic_string@DU?$char_traits@D@std@@V?$allocator@D@2@@std@@N@std@@@?$_Tree@V?$_Tmap_traits@V?$basic_string@DU?$char_traits@D@std@@V?$allocator@D@2@@std@@NU?$less@V?$basic_string@DU?$char_traits@D@std@@V?$allocator@D@2@@std@@@2@V?$allocator@U?$pair@$$CBV?$basic_string@DU?$char_traits@D@std@@V?$allocator@D@2@@std@@N@std@@@2@$0A@@std@@@std@@QAE?AV?$_Tree_iterator@V?$_Tree_val@U?$_Tree_simple_types@U?$pair@$$CBV?$basic_string@DU?$char_traits@D@std@@V?$allocator@D@2@@std@@N@std@@@std@@@std@@@1@V?$_Tree_const_iterator@V?$_Tree_val@U?$_Tree_simple_types@U?$pair@$$CBV?$basic_string@DU?$char_traits@D@std@@V?$allocator@D@2@@std@@N@std@@@std@@@std@@@1@$$QAU?$pair@V?$basic_string@DU?$char_traits@D@std@@V?$allocator@D@2@@std@@N@1@@Z 004356e0 f i DemoDebugInfo.obj
 0001:00034740       ??$?0ABV?$basic_string@DU?$char_traits@D@std@@V?$allocator@D@2@@std@@N@?$pair@V?$basic_string@DU?$char_traits@D@std@@V?$allocator@D@2@@std@@N@std@@QAE@ABV?$basic_string@DU?$char_traits@D@std@@V?$allocator@D@2@@1@$$QANPAPAX@Z 00435740 f i DemoDebugInfo.obj
 0001:000347c0       ?pointer_to@?$pointer_traits@PAU?$pair@$$CBV?$basic_string@DU?$char_traits@D@std@@V?$allocator@D@2@@std@@N@std@@@std@@SAPAU?$pair@$$CBV?$basic_string@DU?$char_traits@D@std@@V?$allocator@D@2@@std@@N@2@AAU32@@Z 004357c0 f i DemoDebugInfo.obj
 0001:000347e0       ??$?MDU?$char_traits@D@std@@V?$allocator@D@1@@std@@YA_NABV?$basic_string@DU?$char_traits@D@std@@V?$allocator@D@2@@0@0@Z 004357e0 f i DemoDebugInfo.obj
 0001:00034820       ??$addressof@U?$pair@$$CBV?$basic_string@DU?$char_traits@D@std@@V?$allocator@D@2@@std@@N@std@@@std@@YAPAU?$pair@$$CBV?$basic_string@DU?$char_traits@D@std@@V?$allocator@D@2@@std@@N@0@AAU10@@Z 00435820 f i DemoDebugInfo.obj
 0001:00034840       ??$_Kfn@$$CBV?$basic_string@DU?$char_traits@D@std@@V?$allocator@D@2@@std@@N@?$_Tmap_traits@V?$basic_string@DU?$char_traits@D@std@@V?$allocator@D@2@@std@@NU?$less@V?$basic_string@DU?$char_traits@D@std@@V?$allocator@D@2@@std@@@2@V?$allocator@U?$pair@$$CBV?$basic_string@DU?$char_traits@D@std@@V?$allocator@D@2@@std@@N@std@@@2@$0A@@std@@SAABV?$basic_string@DU?$char_traits@D@std@@V?$allocator@D@2@@1@ABU?$pair@$$CBV?$basic_string@DU?$char_traits@D@std@@V?$allocator@D@2@@std@@N@1@@Z 00435840 f i DemoDebugInfo.obj
 0001:00034860       ??$addressof@PAU?$_Tree_node@U?$pair@$$CBV?$basic_string@DU?$char_traits@D@std@@V?$allocator@D@2@@std@@N@std@@PAX@std@@@std@@YAPAPAU?$_Tree_node@U?$pair@$$CBV?$basic_string@DU?$char_traits@D@std@@V?$allocator@D@2@@std@@N@std@@PAX@0@AAPAU10@@Z 00435860 f i DemoDebugInfo.obj
 0001:00034880       ??$destroy@PAU?$_Tree_node@U?$pair@$$CBV?$basic_string@DU?$char_traits@D@std@@V?$allocator@D@2@@std@@N@std@@PAX@std@@@?$_Wrap_alloc@V?$allocator@U?$_Tree_node@U?$pair@$$CBV?$basic_string@DU?$char_traits@D@std@@V?$allocator@D@2@@std@@N@std@@PAX@std@@@std@@@std@@QAEXPAPAU?$_Tree_node@U?$pair@$$CBV?$basic_string@DU?$char_traits@D@std@@V?$allocator@D@2@@std@@N@std@@PAX@1@@Z 00435880 f i DemoDebugInfo.obj
 0001:000348b0       ??$swap@D@std@@YAXAAD0@Z   004358b0 f i DemoDebugInfo.obj
 0001:00034900       ??$destroy@U?$pair@$$CBV?$basic_string@DU?$char_traits@D@std@@V?$allocator@D@2@@std@@N@std@@@?$_Wrap_alloc@V?$allocator@U?$_Tree_node@U?$pair@$$CBV?$basic_string@DU?$char_traits@D@std@@V?$allocator@D@2@@std@@N@std@@PAX@std@@@std@@@std@@QAEXPAU?$pair@$$CBV?$basic_string@DU?$char_traits@D@std@@V?$allocator@D@2@@std@@N@1@@Z 00435900 f i DemoDebugInfo.obj
 0001:00034930       ??$construct@PAU?$_Tree_node@U?$pair@$$CBV?$basic_string@DU?$char_traits@D@std@@V?$allocator@D@2@@std@@N@std@@PAX@std@@AAPAU12@@?$_Wrap_alloc@V?$allocator@U?$_Tree_node@U?$pair@$$CBV?$basic_string@DU?$char_traits@D@std@@V?$allocator@D@2@@std@@N@std@@PAX@std@@@std@@@std@@QAEXPAPAU?$_Tree_node@U?$pair@$$CBV?$basic_string@DU?$char_traits@D@std@@V?$allocator@D@2@@std@@N@std@@PAX@1@AAPAU21@@Z 00435930 f i DemoDebugInfo.obj
 0001:00034970       ??$_Allocate@U?$_Tree_node@U?$pair@$$CBV?$basic_string@DU?$char_traits@D@std@@V?$allocator@D@2@@std@@N@std@@PAX@std@@@std@@YAPAU?$_Tree_node@U?$pair@$$CBV?$basic_string@DU?$char_traits@D@std@@V?$allocator@D@2@@std@@N@std@@PAX@0@IPAU10@@Z 00435970 f i DemoDebugInfo.obj
 0001:000349c0       ??$?8V?$allocator@D@std@@V01@@std@@YA_NABU?$_Wrap_alloc@V?$allocator@D@std@@@0@0@Z 004359c0 f i DemoDebugInfo.obj
 0001:00034a00       ??$?8DD@std@@YA_NABV?$allocator@D@0@0@Z 00435a00 f i DemoDebugInfo.obj
 0001:00034a20       ??$forward@N@std@@YA$$QANAAN@Z 00435a20 f i DemoDebugInfo.obj
 0001:00034a40       ??$forward@U?$pair@V?$basic_string@DU?$char_traits@D@std@@V?$allocator@D@2@@std@@N@std@@@std@@YA$$QAU?$pair@V?$basic_string@DU?$char_traits@D@std@@V?$allocator@D@2@@std@@N@0@AAU10@@Z 00435a40 f i DemoDebugInfo.obj
 0001:00034a60       ??$_Buynode@U?$pair@V?$basic_string@DU?$char_traits@D@std@@V?$allocator@D@2@@std@@N@std@@@?$_Tree_buy@U?$pair@$$CBV?$basic_string@DU?$char_traits@D@std@@V?$allocator@D@2@@std@@N@std@@V?$allocator@U?$pair@$$CBV?$basic_string@DU?$char_traits@D@std@@V?$allocator@D@2@@std@@N@std@@@2@@std@@QAEPAU?$_Tree_node@U?$pair@$$CBV?$basic_string@DU?$char_traits@D@std@@V?$allocator@D@2@@std@@N@std@@PAX@1@$$QAU?$pair@V?$basic_string@DU?$char_traits@D@std@@V?$allocator@D@2@@std@@N@1@@Z 00435a60 f i DemoDebugInfo.obj
 0001:00034b50       ??$_Insert_hint@AAU?$pair@$$CBV?$basic_string@DU?$char_traits@D@std@@V?$allocator@D@2@@std@@N@std@@PAU?$_Tree_node@U?$pair@$$CBV?$basic_string@DU?$char_traits@D@std@@V?$allocator@D@2@@std@@N@std@@PAX@2@@?$_Tree@V?$_Tmap_traits@V?$basic_string@DU?$char_traits@D@std@@V?$allocator@D@2@@std@@NU?$less@V?$basic_string@DU?$char_traits@D@std@@V?$allocator@D@2@@std@@@2@V?$allocator@U?$pair@$$CBV?$basic_string@DU?$char_traits@D@std@@V?$allocator@D@2@@std@@N@std@@@2@$0A@@std@@@std@@IAE?AV?$_Tree_iterator@V?$_Tree_val@U?$_Tree_simple_types@U?$pair@$$CBV?$basic_string@DU?$char_traits@D@std@@V?$allocator@D@2@@std@@N@std@@@std@@@std@@@1@V?$_Tree_const_iterator@V?$_Tree_val@U?$_Tree_simple_types@U?$pair@$$CBV?$basic_string@DU?$char_traits@D@std@@V?$allocator@D@2@@std@@N@std@@@std@@@std@@@1@AAU?$pair@$$CBV?$basic_string@DU?$char_traits@D@std@@V?$allocator@D@2@@std@@N@1@PAU?$_Tree_node@U?$pair@$$CBV?$basic_string@DU?$char_traits@D@std@@V?$allocator@D@2@@std@@N@std@@PAX@1@@Z 00435b50 f i DemoDebugInfo.obj
 0001:00035840       ??$forward@ABV?$basic_string@DU?$char_traits@D@std@@V?$allocator@D@2@@std@@@std@@YAABV?$basic_string@DU?$char_traits@D@std@@V?$allocator@D@2@@0@ABV10@@Z 00436840 f i DemoDebugInfo.obj
 0001:00035860       ??$destroy@PAU?$_Tree_node@U?$pair@$$CBV?$basic_string@DU?$char_traits@D@std@@V?$allocator@D@2@@std@@N@std@@PAX@std@@@?$allocator_traits@V?$allocator@U?$_Tree_node@U?$pair@$$CBV?$basic_string@DU?$char_traits@D@std@@V?$allocator@D@2@@std@@N@std@@PAX@std@@@std@@@std@@SAXAAV?$allocator@U?$_Tree_node@U?$pair@$$CBV?$basic_string@DU?$char_traits@D@std@@V?$allocator@D@2@@std@@N@std@@PAX@std@@@1@PAPAU?$_Tree_node@U?$pair@$$CBV?$basic_string@DU?$char_traits@D@std@@V?$allocator@D@2@@std@@N@std@@PAX@1@@Z 00436860 f i DemoDebugInfo.obj
 0001:00035880       ??$_Move@AAD@std@@YA$$QADAAD@Z 00436880 f i DemoDebugInfo.obj
 0001:000358a0       ??$destroy@U?$pair@$$CBV?$basic_string@DU?$char_traits@D@std@@V?$allocator@D@2@@std@@N@std@@@?$allocator_traits@V?$allocator@U?$_Tree_node@U?$pair@$$CBV?$basic_string@DU?$char_traits@D@std@@V?$allocator@D@2@@std@@N@std@@PAX@std@@@std@@@std@@SAXAAV?$allocator@U?$_Tree_node@U?$pair@$$CBV?$basic_string@DU?$char_traits@D@std@@V?$allocator@D@2@@std@@N@std@@PAX@std@@@1@PAU?$pair@$$CBV?$basic_string@DU?$char_traits@D@std@@V?$allocator@D@2@@std@@N@1@@Z 004368a0 f i DemoDebugInfo.obj
 0001:000358c0       ??$forward@AAPAU?$_Tree_node@U?$pair@$$CBV?$basic_string@DU?$char_traits@D@std@@V?$allocator@D@2@@std@@N@std@@PAX@std@@@std@@YAAAPAU?$_Tree_node@U?$pair@$$CBV?$basic_string@DU?$char_traits@D@std@@V?$allocator@D@2@@std@@N@std@@PAX@0@AAPAU10@@Z 004368c0 f i DemoDebugInfo.obj
 0001:000358e0       ??$construct@PAU?$_Tree_node@U?$pair@$$CBV?$basic_string@DU?$char_traits@D@std@@V?$allocator@D@2@@std@@N@std@@PAX@std@@AAPAU12@@?$allocator_traits@V?$allocator@U?$_Tree_node@U?$pair@$$CBV?$basic_string@DU?$char_traits@D@std@@V?$allocator@D@2@@std@@N@std@@PAX@std@@@std@@@std@@SAXAAV?$allocator@U?$_Tree_node@U?$pair@$$CBV?$basic_string@DU?$char_traits@D@std@@V?$allocator@D@2@@std@@N@std@@PAX@std@@@1@PAPAU?$_Tree_node@U?$pair@$$CBV?$basic_string@DU?$char_traits@D@std@@V?$allocator@D@2@@std@@N@std@@PAX@1@AAPAU31@@Z 004368e0 f i DemoDebugInfo.obj
 0001:00035910       ??$construct@U?$pair@$$CBV?$basic_string@DU?$char_traits@D@std@@V?$allocator@D@2@@std@@N@std@@U?$pair@V?$basic_string@DU?$char_traits@D@std@@V?$allocator@D@2@@std@@N@2@@?$_Wrap_alloc@V?$allocator@U?$_Tree_node@U?$pair@$$CBV?$basic_string@DU?$char_traits@D@std@@V?$allocator@D@2@@std@@N@std@@PAX@std@@@std@@@std@@QAEXPAU?$pair@$$CBV?$basic_string@DU?$char_traits@D@std@@V?$allocator@D@2@@std@@N@1@$$QAU?$pair@V?$basic_string@DU?$char_traits@D@std@@V?$allocator@D@2@@std@@N@1@@Z 00436910 f i DemoDebugInfo.obj
 0001:00035950       ??$forward@AAU?$pair@$$CBV?$basic_string@DU?$char_traits@D@std@@V?$allocator@D@2@@std@@N@std@@@std@@YAAAU?$pair@$$CBV?$basic_string@DU?$char_traits@D@std@@V?$allocator@D@2@@std@@N@0@AAU10@@Z 00436950 f i DemoDebugInfo.obj
 0001:00035970       ??$_Insert_at@AAU?$pair@$$CBV?$basic_string@DU?$char_traits@D@std@@V?$allocator@D@2@@std@@N@std@@PAU?$_Tree_node@U?$pair@$$CBV?$basic_string@DU?$char_traits@D@std@@V?$allocator@D@2@@std@@N@std@@PAX@2@@?$_Tree@V?$_Tmap_traits@V?$basic_string@DU?$char_traits@D@std@@V?$allocator@D@2@@std@@NU?$less@V?$basic_string@DU?$char_traits@D@std@@V?$allocator@D@2@@std@@@2@V?$allocator@U?$pair@$$CBV?$basic_string@DU?$char_traits@D@std@@V?$allocator@D@2@@std@@N@std@@@2@$0A@@std@@@std@@IAE?AV?$_Tree_iterator@V?$_Tree_val@U?$_Tree_simple_types@U?$pair@$$CBV?$basic_string@DU?$char_traits@D@std@@V?$allocator@D@2@@std@@N@std@@@std@@@std@@@1@_NPAU?$_Tree_node@U?$pair@$$CBV?$basic_string@DU?$char_traits@D@std@@V?$allocator@D@2@@std@@N@std@@PAX@1@AAU?$pair@$$CBV?$basic_string@DU?$char_traits@D@std@@V?$allocator@D@2@@std@@N@1@1@Z 00436970 f i DemoDebugInfo.obj
 0001:00035da0       ??$_Insert_nohint@AAU?$pair@$$CBV?$basic_string@DU?$char_traits@D@std@@V?$allocator@D@2@@std@@N@std@@PAU?$_Tree_node@U?$pair@$$CBV?$basic_string@DU?$char_traits@D@std@@V?$allocator@D@2@@std@@N@std@@PAX@2@@?$_Tree@V?$_Tmap_traits@V?$basic_string@DU?$char_traits@D@std@@V?$allocator@D@2@@std@@NU?$less@V?$basic_string@DU?$char_traits@D@std@@V?$allocator@D@2@@std@@@2@V?$allocator@U?$pair@$$CBV?$basic_string@DU?$char_traits@D@std@@V?$allocator@D@2@@std@@N@std@@@2@$0A@@std@@@std@@IAE?AU?$pair@V?$_Tree_iterator@V?$_Tree_val@U?$_Tree_simple_types@U?$pair@$$CBV?$basic_string@DU?$char_traits@D@std@@V?$allocator@D@2@@std@@N@std@@@std@@@std@@@std@@_N@1@_NAAU?$pair@$$CBV?$basic_string@DU?$char_traits@D@std@@V?$allocator@D@2@@std@@N@1@PAU?$_Tree_node@U?$pair@$$CBV?$basic_string@DU?$char_traits@D@std@@V?$allocator@D@2@@std@@N@std@@PAX@1@@Z 00436da0 f i DemoDebugInfo.obj
 0001:000361c0       ??$destroy@PAU?$_Tree_node@U?$pair@$$CBV?$basic_string@DU?$char_traits@D@std@@V?$allocator@D@2@@std@@N@std@@PAX@std@@@?$allocator@U?$_Tree_node@U?$pair@$$CBV?$basic_string@DU?$char_traits@D@std@@V?$allocator@D@2@@std@@N@std@@PAX@std@@@std@@QAEXPAPAU?$_Tree_node@U?$pair@$$CBV?$basic_string@DU?$char_traits@D@std@@V?$allocator@D@2@@std@@N@std@@PAX@1@@Z 004371c0 f i DemoDebugInfo.obj
 0001:000361e0       ??$destroy@U?$pair@$$CBV?$basic_string@DU?$char_traits@D@std@@V?$allocator@D@2@@std@@N@std@@@?$allocator@U?$_Tree_node@U?$pair@$$CBV?$basic_string@DU?$char_traits@D@std@@V?$allocator@D@2@@std@@N@std@@PAX@std@@@std@@QAEXPAU?$pair@$$CBV?$basic_string@DU?$char_traits@D@std@@V?$allocator@D@2@@std@@N@1@@Z 004371e0 f i DemoDebugInfo.obj
 0001:00036200       ??$construct@PAU?$_Tree_node@U?$pair@$$CBV?$basic_string@DU?$char_traits@D@std@@V?$allocator@D@2@@std@@N@std@@PAX@std@@AAPAU12@@?$allocator@U?$_Tree_node@U?$pair@$$CBV?$basic_string@DU?$char_traits@D@std@@V?$allocator@D@2@@std@@N@std@@PAX@std@@@std@@QAEXPAPAU?$_Tree_node@U?$pair@$$CBV?$basic_string@DU?$char_traits@D@std@@V?$allocator@D@2@@std@@N@std@@PAX@1@AAPAU21@@Z 00437200 f i DemoDebugInfo.obj
 0001:00036290       ??$construct@U?$pair@$$CBV?$basic_string@DU?$char_traits@D@std@@V?$allocator@D@2@@std@@N@std@@U?$pair@V?$basic_string@DU?$char_traits@D@std@@V?$allocator@D@2@@std@@N@2@@?$allocator_traits@V?$allocator@U?$_Tree_node@U?$pair@$$CBV?$basic_string@DU?$char_traits@D@std@@V?$allocator@D@2@@std@@N@std@@PAX@std@@@std@@@std@@SAXAAV?$allocator@U?$_Tree_node@U?$pair@$$CBV?$basic_string@DU?$char_traits@D@std@@V?$allocator@D@2@@std@@N@std@@PAX@std@@@1@PAU?$pair@$$CBV?$basic_string@DU?$char_traits@D@std@@V?$allocator@D@2@@std@@N@1@$$QAU?$pair@V?$basic_string@DU?$char_traits@D@std@@V?$allocator@D@2@@std@@N@1@@Z 00437290 f i DemoDebugInfo.obj
 0001:000362c0       ??$_Buynode_if_nil@AAU?$pair@$$CBV?$basic_string@DU?$char_traits@D@std@@V?$allocator@D@2@@std@@N@std@@@?$_Tree@V?$_Tmap_traits@V?$basic_string@DU?$char_traits@D@std@@V?$allocator@D@2@@std@@NU?$less@V?$basic_string@DU?$char_traits@D@std@@V?$allocator@D@2@@std@@@2@V?$allocator@U?$pair@$$CBV?$basic_string@DU?$char_traits@D@std@@V?$allocator@D@2@@std@@N@std@@@2@$0A@@std@@@std@@IAEPAU?$_Tree_node@U?$pair@$$CBV?$basic_string@DU?$char_traits@D@std@@V?$allocator@D@2@@std@@N@std@@PAX@1@PAU21@AAU?$pair@$$CBV?$basic_string@DU?$char_traits@D@std@@V?$allocator@D@2@@std@@N@1@@Z 004372c0 f i DemoDebugInfo.obj
 0001:000362e0       ??$?0V?$_Tree_iterator@V?$_Tree_val@U?$_Tree_simple_types@U?$pair@$$CBV?$basic_string@DU?$char_traits@D@std@@V?$allocator@D@2@@std@@N@std@@@std@@@std@@@std@@_N@?$pair@V?$_Tree_iterator@V?$_Tree_val@U?$_Tree_simple_types@U?$pair@$$CBV?$basic_string@DU?$char_traits@D@std@@V?$allocator@D@2@@std@@N@std@@@std@@@std@@@std@@_N@std@@QAE@$$QAV?$_Tree_iterator@V?$_Tree_val@U?$_Tree_simple_types@U?$pair@$$CBV?$basic_string@DU?$char_traits@D@std@@V?$allocator@D@2@@std@@N@std@@@std@@@std@@@1@$$QA_NPAPAX@Z 004372e0 f i DemoDebugInfo.obj
 0001:00036320       ??$?0AAV?$_Tree_iterator@V?$_Tree_val@U?$_Tree_simple_types@U?$pair@$$CBV?$basic_string@DU?$char_traits@D@std@@V?$allocator@D@2@@std@@N@std@@@std@@@std@@@std@@_N@?$pair@V?$_Tree_iterator@V?$_Tree_val@U?$_Tree_simple_types@U?$pair@$$CBV?$basic_string@DU?$char_traits@D@std@@V?$allocator@D@2@@std@@N@std@@@std@@@std@@@std@@_N@std@@QAE@AAV?$_Tree_iterator@V?$_Tree_val@U?$_Tree_simple_types@U?$pair@$$CBV?$basic_string@DU?$char_traits@D@std@@V?$allocator@D@2@@std@@N@std@@@std@@@std@@@1@$$QA_NPAPAX@Z 00437320 f i DemoDebugInfo.obj
 0001:00036360       ??$construct@U?$pair@$$CBV?$basic_string@DU?$char_traits@D@std@@V?$allocator@D@2@@std@@N@std@@U?$pair@V?$basic_string@DU?$char_traits@D@std@@V?$allocator@D@2@@std@@N@2@@?$allocator@U?$_Tree_node@U?$pair@$$CBV?$basic_string@DU?$char_traits@D@std@@V?$allocator@D@2@@std@@N@std@@PAX@std@@@std@@QAEXPAU?$pair@$$CBV?$basic_string@DU?$char_traits@D@std@@V?$allocator@D@2@@std@@N@1@$$QAU?$pair@V?$basic_string@DU?$char_traits@D@std@@V?$allocator@D@2@@std@@N@1@@Z 00437360 f i DemoDebugInfo.obj
 0001:000363f0       ??$forward@V?$_Tree_iterator@V?$_Tree_val@U?$_Tree_simple_types@U?$pair@$$CBV?$basic_string@DU?$char_traits@D@std@@V?$allocator@D@2@@std@@N@std@@@std@@@std@@@std@@@std@@YA$$QAV?$_Tree_iterator@V?$_Tree_val@U?$_Tree_simple_types@U?$pair@$$CBV?$basic_string@DU?$char_traits@D@std@@V?$allocator@D@2@@std@@N@std@@@std@@@std@@@0@AAV10@@Z 004373f0 f i DemoDebugInfo.obj
 0001:00036410       ??$forward@_N@std@@YA$$QA_NAA_N@Z 00437410 f i DemoDebugInfo.obj
 0001:00036430       ??$forward@AAV?$_Tree_iterator@V?$_Tree_val@U?$_Tree_simple_types@U?$pair@$$CBV?$basic_string@DU?$char_traits@D@std@@V?$allocator@D@2@@std@@N@std@@@std@@@std@@@std@@@std@@YAAAV?$_Tree_iterator@V?$_Tree_val@U?$_Tree_simple_types@U?$pair@$$CBV?$basic_string@DU?$char_traits@D@std@@V?$allocator@D@2@@std@@N@std@@@std@@@std@@@0@AAV10@@Z 00437430 f i DemoDebugInfo.obj
 0001:00036443       ??_E?$basic_ostringstream@DU?$char_traits@D@std@@V?$allocator@D@2@@std@@$4PPPPPPPM@A@AEPAXI@Z 00437443 f i DemoDebugInfo.obj
 0001:0003644b       ?_Add_vtordisp2@?$basic_ostream@DU?$char_traits@D@std@@@std@@$4PPPPPPPM@EI@AEXXZ 0043744b f i DemoDebugInfo.obj
 0001:00036460       ?GetRandNormalized@DemoRand@@SANXZ 00437460 f   DemoRand.obj
 0001:000364d0       ??0DemoRectangle@@QAE@XZ   004374d0 f   DemoRectangle.obj
 0001:00036510       ??0DemoRectangle@@QAE@HHHH@Z 00437510 f   DemoRectangle.obj
 0001:00036550       ??1DemoRectangle@@QAE@XZ   00437550 f   DemoRectangle.obj
 0001:00036570       ??0Game@@QAE@PAUHDC__@@@Z  00437570 f   Game.obj
 0001:000365c0       ??1Game@@UAE@XZ            004375c0 f   Game.obj
 0001:000365f0       ?Run@Game@@QAE_NXZ         004375f0 f   Game.obj
 0001:00036730       ?Update@Game@@UAEXN@Z      00437730 f   Game.obj
 0001:00036750       ?Draw@Game@@UAEXN@Z        00437750 f   Game.obj
 0001:00036780       ?Initialize@Game@@UAEXXZ   00437780 f   Game.obj
 0001:000368b0       ?LoadContent@Game@@UAEXXZ  004378b0 f   Game.obj
 0001:000368d0       ?Resize@Game@@QAEXHH@Z     004378d0 f   Game.obj
 0001:000369a0       ?Exit@Game@@QAEXXZ         004379a0 f   Game.obj
 0001:000369c0       ??0?$SmartHandle@VContentManager@@@@QAE@XZ 004379c0 f i Game.obj
 0001:000369f0       ??0?$SmartHandle@VContentManager@@@@QAE@PAVContentManager@@@Z 004379f0 f i Game.obj
 0001:00036a40       ??1?$SmartHandle@VContentManager@@@@QAE@XZ 00437a40 f i Game.obj
 0001:00036aa0       ??4?$SmartHandle@VContentManager@@@@QAEAAV0@ABV0@@Z 00437aa0 f i Game.obj
 0001:00036ae0       ?init@?$SmartHandle@VContentManager@@@@IAEXXZ 00437ae0 f i Game.obj
 0001:00036ca0       ?WriteBarrier@?$SmartHandle@VContentManager@@@@IAEXI@Z 00437ca0 f i Game.obj
 0001:00036d50       ?insertSelfIntoList@?$SmartHandle@VContentManager@@@@IAEXPAXAAPAX@Z 00437d50 f i Game.obj
 0001:00036dc0       ?UnsetNurseryFlag@?$SmartHandle@VContentManager@@@@IAEXXZ 00437dc0 f i Game.obj
 0001:00036df0       ?UnsetRootFlag@?$SmartHandle@VContentManager@@@@IAEXXZ 00437df0 f i Game.obj
 0001:00036e20       ?SetNurseryFlag@?$SmartHandle@VContentManager@@@@IAEXXZ 00437e20 f i Game.obj
 0001:00036e50       ?SetRootFlag@?$SmartHandle@VContentManager@@@@IAEXXZ 00437e50 f i Game.obj
 0001:00036e80       ??_GGame@@UAEPAXI@Z        00437e80 f i Game.obj
 0001:00036e80       ??_EGame@@UAEPAXI@Z        00437e80 f i Game.obj
 0001:00036ec0       ??$DeregisterRootHandle@VContentManager@@@GC@@CAXPAV?$SmartHandle@VContentManager@@@@@Z 00437ec0 f i Game.obj
 0001:00036f70       ??$RegisterHandle@VContentManager@@@Managed_Object@@AAEXPAV?$SmartHandle@VContentManager@@@@@Z 00437f70 f i Game.obj
 0001:00037000       ??$RegisterRootHandle@VContentManager@@@GC@@CAXPAV?$SmartHandle@VContentManager@@@@@Z 00438000 f i Game.obj
 0001:00037070       ??0GameObject@@QAE@XZ      00438070 f   GameObject.obj
 0001:00037270       ??1GameObject@@UAE@XZ      00438270 f   GameObject.obj
 0001:00037300       ??_GGameObject@@UAEPAXI@Z  00438300 f i GameObject.obj
 0001:00037300       ??_EGameObject@@UAEPAXI@Z  00438300 f i GameObject.obj
 0001:00037340       ??0InputManager@@QAE@XZ    00438340 f   InputManager.obj
 0001:00037360       ??1InputManager@@QAE@XZ    00438360 f   InputManager.obj
 0001:00037380       _WinMain@16                00438380 f   ManagedDemo.obj
 0001:000375f0       ?SetupPixelFormat@@YAXPAUHDC__@@@Z 004385f0 f   ManagedDemo.obj
 0001:000376c0       ?MainWindowProc@@YGJPAUHWND__@@IIJ@Z 004386c0 f   ManagedDemo.obj
 0001:000377f0       ??0PushButton@@QAE@VDemoRectangle@@PAVTexture2D@@VDemoColour@@@Z 004387f0 f   PushButton.obj
 0001:000378c0       ??1PushButton@@UAE@XZ      004388c0 f   PushButton.obj
 0001:000378f0       ?Depress@PushButton@@UAEXXZ 004388f0 f   PushButton.obj
 0001:00037920       ?Unpress@PushButton@@UAEXXZ 00438920 f   PushButton.obj
 0001:00037940       ??_EPushButton@@UAEPAXI@Z  00438940 f i PushButton.obj
 0001:00037940       ??_GPushButton@@UAEPAXI@Z  00438940 f i PushButton.obj
 0001:00037980       ?cos@@YAMM@Z               00438980 f i SpriteBatch.obj
 0001:000379b0       ?sin@@YAMM@Z               004389b0 f i SpriteBatch.obj
 0001:000379e0       ??0SpriteBatch@@QAE@XZ     004389e0 f   SpriteBatch.obj
 0001:00037a80       ??1SpriteBatch@@UAE@XZ     00438a80 f   SpriteBatch.obj
 0001:00037af0       ?Begin@SpriteBatch@@QAEXXZ 00438af0 f   SpriteBatch.obj
 0001:00037b10       ?Draw@SpriteBatch@@QAEXV?$SmartHandle@VTexture2D@@@@VDemoRectangle@@VDemoColour@@@Z 00438b10 f   SpriteBatch.obj
 0001:00037c30       ?Draw@SpriteBatch@@QAEXV?$SmartHandle@VTexture2D@@@@PAMPAVDemoRectangle@@VDemoColour@@M11@Z 00438c30 f   SpriteBatch.obj
 0001:00037d40       ?End@SpriteBatch@@QAEXXZ   00438d40 f   SpriteBatch.obj
 0001:00038390       ??0Sprite@SpriteBatch@@QAE@V?$SmartHandle@VTexture2D@@@@VDemoRectangle@@VDemoColour@@@Z 00439390 f i SpriteBatch.obj
 0001:00038650       ??0Sprite@SpriteBatch@@QAE@V?$SmartHandle@VTexture2D@@@@PAMPAVDemoRectangle@@VDemoColour@@M11@Z 00439650 f i SpriteBatch.obj
 0001:00038c70       ??1Sprite@SpriteBatch@@QAE@XZ 00439c70 f i SpriteBatch.obj
 0001:00038cd0       ??0Sprite@SpriteBatch@@QAE@ABU01@@Z 00439cd0 f i SpriteBatch.obj
 0001:00038d40       ??4Sprite@SpriteBatch@@QAEAAU01@ABU01@@Z 00439d40 f i SpriteBatch.obj
 0001:00038df0       ??_GSprite@SpriteBatch@@QAEPAXI@Z 00439df0 f i SpriteBatch.obj
 0001:00038e30       ??0?$allocator@USprite@SpriteBatch@@@std@@QAE@XZ 00439e30 f i SpriteBatch.obj
 0001:00038e50       ??0?$allocator@USprite@SpriteBatch@@@std@@QAE@ABV01@@Z 00439e50 f i SpriteBatch.obj
 0001:00038e70       ?deallocate@?$allocator@USprite@SpriteBatch@@@std@@QAEXPAUSprite@SpriteBatch@@I@Z 00439e70 f i SpriteBatch.obj
 0001:00038ea0       ?allocate@?$allocator@USprite@SpriteBatch@@@std@@QAEPAUSprite@SpriteBatch@@I@Z 00439ea0 f i SpriteBatch.obj
 0001:00038ed0       ?max_size@?$allocator@USprite@SpriteBatch@@@std@@QBEIXZ 00439ed0 f i SpriteBatch.obj
 0001:00038ef0       ?max_size@?$allocator_traits@V?$allocator@USprite@SpriteBatch@@@std@@@std@@SAIABV?$allocator@USprite@SpriteBatch@@@2@@Z 00439ef0 f i SpriteBatch.obj
 0001:00038f10       ??0?$_Wrap_alloc@V?$allocator@USprite@SpriteBatch@@@std@@@std@@QAE@XZ 00439f10 f i SpriteBatch.obj
 0001:00038f30       ?allocate@?$_Wrap_alloc@V?$allocator@USprite@SpriteBatch@@@std@@@std@@QAEPAUSprite@SpriteBatch@@I@Z 00439f30 f i SpriteBatch.obj
 0001:00038f60       ?deallocate@?$_Wrap_alloc@V?$allocator@USprite@SpriteBatch@@@std@@@std@@QAEXPAUSprite@SpriteBatch@@I@Z 00439f60 f i SpriteBatch.obj
 0001:00038f90       ?max_size@?$_Wrap_alloc@V?$allocator@USprite@SpriteBatch@@@std@@@std@@QBEIXZ 00439f90 f i SpriteBatch.obj
 0001:00038fb0       ??0?$_Vector_val@U?$_Simple_types@USprite@SpriteBatch@@@std@@@std@@QAE@XZ 00439fb0 f i SpriteBatch.obj
 0001:00038ff0       ??0?$_Vector_alloc@$0A@U?$_Vec_base_types@USprite@SpriteBatch@@V?$allocator@USprite@SpriteBatch@@@std@@@std@@@std@@QAE@ABV?$allocator@USprite@SpriteBatch@@@1@@Z 00439ff0 f i SpriteBatch.obj
 0001:00039010       ?_Change_alloc@?$_Vector_alloc@$0A@U?$_Vec_base_types@USprite@SpriteBatch@@V?$allocator@USprite@SpriteBatch@@@std@@@std@@@std@@QAEXABU?$_Wrap_alloc@V?$allocator@USprite@SpriteBatch@@@std@@@2@@Z 0043a010 f i SpriteBatch.obj
 0001:00039030       ?_Getal@?$_Vector_alloc@$0A@U?$_Vec_base_types@USprite@SpriteBatch@@V?$allocator@USprite@SpriteBatch@@@std@@@std@@@std@@QBE?AU?$_Wrap_alloc@V?$allocator@USprite@SpriteBatch@@@std@@@2@XZ 0043a030 f i SpriteBatch.obj
 0001:00039050       ??0?$vector@USprite@SpriteBatch@@V?$allocator@USprite@SpriteBatch@@@std@@@std@@QAE@XZ 0043a050 f i SpriteBatch.obj
 0001:00039080       ??4?$vector@USprite@SpriteBatch@@V?$allocator@USprite@SpriteBatch@@@std@@@std@@QAEAAV01@$$QAV01@@Z 0043a080 f i SpriteBatch.obj
 0001:00039180       ?_Assign_rv@?$vector@USprite@SpriteBatch@@V?$allocator@USprite@SpriteBatch@@@std@@@std@@QAEX$$QAV12@@Z 0043a180 f i SpriteBatch.obj
 0001:000391f0       ?push_back@?$vector@USprite@SpriteBatch@@V?$allocator@USprite@SpriteBatch@@@std@@@std@@QAEX$$QAUSprite@SpriteBatch@@@Z 0043a1f0 f i SpriteBatch.obj
 0001:00039320       ??1?$vector@USprite@SpriteBatch@@V?$allocator@USprite@SpriteBatch@@@std@@@std@@QAE@XZ 0043a320 f i SpriteBatch.obj
 0001:00039340       ?capacity@?$vector@USprite@SpriteBatch@@V?$allocator@USprite@SpriteBatch@@@std@@@std@@QBEIXZ 0043a340 f i SpriteBatch.obj
 0001:00039370       ?_Unused_capacity@?$vector@USprite@SpriteBatch@@V?$allocator@USprite@SpriteBatch@@@std@@@std@@QBEIXZ 0043a370 f i SpriteBatch.obj
 0001:000393a0       ?begin@?$vector@USprite@SpriteBatch@@V?$allocator@USprite@SpriteBatch@@@std@@@std@@QAE?AV?$_Vector_iterator@V?$_Vector_val@U?$_Simple_types@USprite@SpriteBatch@@@std@@@std@@@2@XZ 0043a3a0 f i SpriteBatch.obj
 0001:000393d0       ?end@?$vector@USprite@SpriteBatch@@V?$allocator@USprite@SpriteBatch@@@std@@@std@@QAE?AV?$_Vector_iterator@V?$_Vector_val@U?$_Simple_types@USprite@SpriteBatch@@@std@@@std@@@2@XZ 0043a3d0 f i SpriteBatch.obj
 0001:00039400       ?_Make_iter@?$vector@USprite@SpriteBatch@@V?$allocator@USprite@SpriteBatch@@@std@@@std@@QBE?AV?$_Vector_iterator@V?$_Vector_val@U?$_Simple_types@USprite@SpriteBatch@@@std@@@std@@@2@V?$_Vector_const_iterator@V?$_Vector_val@U?$_Simple_types@USprite@SpriteBatch@@@std@@@std@@@2@@Z 0043a400 f i SpriteBatch.obj
 0001:00039430       ?size@?$vector@USprite@SpriteBatch@@V?$allocator@USprite@SpriteBatch@@@std@@@std@@QBEIXZ 0043a430 f i SpriteBatch.obj
 0001:00039460       ?max_size@?$vector@USprite@SpriteBatch@@V?$allocator@USprite@SpriteBatch@@@std@@@std@@QBEIXZ 0043a460 f i SpriteBatch.obj
 0001:00039490       ??A?$vector@USprite@SpriteBatch@@V?$allocator@USprite@SpriteBatch@@@std@@@std@@QAEAAUSprite@SpriteBatch@@I@Z 0043a490 f i SpriteBatch.obj
 0001:000394b0       ?erase@?$vector@USprite@SpriteBatch@@V?$allocator@USprite@SpriteBatch@@@std@@@std@@QAE?AV?$_Vector_iterator@V?$_Vector_val@U?$_Simple_types@USprite@SpriteBatch@@@std@@@std@@@2@V?$_Vector_const_iterator@V?$_Vector_val@U?$_Simple_types@USprite@SpriteBatch@@@std@@@std@@@2@0@Z 0043a4b0 f i SpriteBatch.obj
 0001:000395a0       ?clear@?$vector@USprite@SpriteBatch@@V?$allocator@USprite@SpriteBatch@@@std@@@std@@QAEXXZ 0043a5a0 f i SpriteBatch.obj
 0001:000395e0       ?_Destroy@?$vector@USprite@SpriteBatch@@V?$allocator@USprite@SpriteBatch@@@std@@@std@@IAEXPAUSprite@SpriteBatch@@0@Z 0043a5e0 f i SpriteBatch.obj
 0001:00039620       ?_Grow_to@?$vector@USprite@SpriteBatch@@V?$allocator@USprite@SpriteBatch@@@std@@@std@@IBEII@Z 0043a620 f i SpriteBatch.obj
 0001:00039680       ?_Inside@?$vector@USprite@SpriteBatch@@V?$allocator@USprite@SpriteBatch@@@std@@@std@@IBE_NPBUSprite@SpriteBatch@@@Z 0043a680 f i SpriteBatch.obj
 0001:000396c0       ?_Reallocate@?$vector@USprite@SpriteBatch@@V?$allocator@USprite@SpriteBatch@@@std@@@std@@IAEXI@Z 0043a6c0 f i SpriteBatch.obj
 0001:00039800       ?_Reserve@?$vector@USprite@SpriteBatch@@V?$allocator@USprite@SpriteBatch@@@std@@@std@@IAEXI@Z 0043a800 f i SpriteBatch.obj
 0001:00039860       ?_Tidy@?$vector@USprite@SpriteBatch@@V?$allocator@USprite@SpriteBatch@@@std@@@std@@IAEXXZ 0043a860 f i SpriteBatch.obj
 0001:000398f0       ?_Xlen@?$vector@USprite@SpriteBatch@@V?$allocator@USprite@SpriteBatch@@@std@@@std@@IBEXXZ 0043a8f0 f i SpriteBatch.obj
 0001:00039910       ?_Orphan_range@?$vector@USprite@SpriteBatch@@V?$allocator@USprite@SpriteBatch@@@std@@@std@@IBEXPAUSprite@SpriteBatch@@0@Z 0043a910 f i SpriteBatch.obj
 0001:00039930       ??_GSpriteBatch@@UAEPAXI@Z 0043a930 f i SpriteBatch.obj
 0001:00039930       ??_ESpriteBatch@@UAEPAXI@Z 0043a930 f i SpriteBatch.obj
 0001:00039970       ??$?9V?$allocator@USprite@SpriteBatch@@@std@@V01@@std@@YA_NABU?$_Wrap_alloc@V?$allocator@USprite@SpriteBatch@@@std@@@0@0@Z 0043a970 f i SpriteBatch.obj
 0001:000399b0       ??0?$_Vector_const_iterator@V?$_Vector_val@U?$_Simple_types@USprite@SpriteBatch@@@std@@@std@@@std@@QAE@PAUSprite@SpriteBatch@@PBU_Container_base0@1@@Z 0043a9b0 f i SpriteBatch.obj
 0001:000399e0       ??D?$_Vector_const_iterator@V?$_Vector_val@U?$_Simple_types@USprite@SpriteBatch@@@std@@@std@@@std@@QBEABUSprite@SpriteBatch@@XZ 0043a9e0 f i SpriteBatch.obj
 0001:00039a00       ??E?$_Vector_const_iterator@V?$_Vector_val@U?$_Simple_types@USprite@SpriteBatch@@@std@@@std@@@std@@QAEAAV01@XZ 0043aa00 f i SpriteBatch.obj
 0001:00039a30       ??Y?$_Vector_const_iterator@V?$_Vector_val@U?$_Simple_types@USprite@SpriteBatch@@@std@@@std@@@std@@QAEAAV01@H@Z 0043aa30 f i SpriteBatch.obj
 0001:00039a60       ??G?$_Vector_const_iterator@V?$_Vector_val@U?$_Simple_types@USprite@SpriteBatch@@@std@@@std@@@std@@QBEHABV01@@Z 0043aa60 f i SpriteBatch.obj
 0001:00039aa0       ??8?$_Vector_const_iterator@V?$_Vector_val@U?$_Simple_types@USprite@SpriteBatch@@@std@@@std@@@std@@QBE_NABV01@@Z 0043aaa0 f i SpriteBatch.obj
 0001:00039ae0       ??9?$_Vector_const_iterator@V?$_Vector_val@U?$_Simple_types@USprite@SpriteBatch@@@std@@@std@@@std@@QBE_NABV01@@Z 0043aae0 f i SpriteBatch.obj
 0001:00039b20       ?_Compat@?$_Vector_const_iterator@V?$_Vector_val@U?$_Simple_types@USprite@SpriteBatch@@@std@@@std@@@std@@QBEXABV12@@Z 0043ab20 f i SpriteBatch.obj
 0001:00039b40       ??0?$_Vector_iterator@V?$_Vector_val@U?$_Simple_types@USprite@SpriteBatch@@@std@@@std@@@std@@QAE@PAUSprite@SpriteBatch@@PBU_Container_base0@1@@Z 0043ab40 f i SpriteBatch.obj
 0001:00039b70       ??D?$_Vector_iterator@V?$_Vector_val@U?$_Simple_types@USprite@SpriteBatch@@@std@@@std@@@std@@QBEAAUSprite@SpriteBatch@@XZ 0043ab70 f i SpriteBatch.obj
 0001:00039b90       ??E?$_Vector_iterator@V?$_Vector_val@U?$_Simple_types@USprite@SpriteBatch@@@std@@@std@@@std@@QAEAAV01@XZ 0043ab90 f i SpriteBatch.obj
 0001:00039bb0       ??Y?$_Vector_iterator@V?$_Vector_val@U?$_Simple_types@USprite@SpriteBatch@@@std@@@std@@@std@@QAEAAV01@H@Z 0043abb0 f i SpriteBatch.obj
 0001:00039be0       ??H?$_Vector_iterator@V?$_Vector_val@U?$_Simple_types@USprite@SpriteBatch@@@std@@@std@@@std@@QBE?AV01@H@Z 0043abe0 f i SpriteBatch.obj
 0001:00039c20       ??G?$_Vector_iterator@V?$_Vector_val@U?$_Simple_types@USprite@SpriteBatch@@@std@@@std@@@std@@QBEHABV?$_Vector_const_iterator@V?$_Vector_val@U?$_Simple_types@USprite@SpriteBatch@@@std@@@std@@@1@@Z 0043ac20 f i SpriteBatch.obj
 0001:00039c50       ??$make_move_iterator@V?$_Vector_iterator@V?$_Vector_val@U?$_Simple_types@USprite@SpriteBatch@@@std@@@std@@@std@@@std@@YA?AV?$move_iterator@V?$_Vector_iterator@V?$_Vector_val@U?$_Simple_types@USprite@SpriteBatch@@@std@@@std@@@std@@@0@V?$_Vector_iterator@V?$_Vector_val@U?$_Simple_types@USprite@SpriteBatch@@@std@@@std@@@0@@Z 0043ac50 f i SpriteBatch.obj
 0001:00039c70       ??0?$move_iterator@V?$_Vector_iterator@V?$_Vector_val@U?$_Simple_types@USprite@SpriteBatch@@@std@@@std@@@std@@@std@@QAE@V?$_Vector_iterator@V?$_Vector_val@U?$_Simple_types@USprite@SpriteBatch@@@std@@@std@@@1@@Z 0043ac70 f i SpriteBatch.obj
 0001:00039c90       ?base@?$move_iterator@V?$_Vector_iterator@V?$_Vector_val@U?$_Simple_types@USprite@SpriteBatch@@@std@@@std@@@std@@@std@@QBE?AV?$_Vector_iterator@V?$_Vector_val@U?$_Simple_types@USprite@SpriteBatch@@@std@@@std@@@2@XZ 0043ac90 f i SpriteBatch.obj
 0001:00039cc0       ??D?$move_iterator@V?$_Vector_iterator@V?$_Vector_val@U?$_Simple_types@USprite@SpriteBatch@@@std@@@std@@@std@@@std@@QBE$$QAUSprite@SpriteBatch@@XZ 0043acc0 f i SpriteBatch.obj
 0001:00039cf0       ??E?$move_iterator@V?$_Vector_iterator@V?$_Vector_val@U?$_Simple_types@USprite@SpriteBatch@@@std@@@std@@@std@@@std@@QAEAAV01@XZ 0043acf0 f i SpriteBatch.obj
 0001:00039d10       ??$assign@V?$move_iterator@V?$_Vector_iterator@V?$_Vector_val@U?$_Simple_types@USprite@SpriteBatch@@@std@@@std@@@std@@@std@@@?$vector@USprite@SpriteBatch@@V?$allocator@USprite@SpriteBatch@@@std@@@std@@QAEXV?$move_iterator@V?$_Vector_iterator@V?$_Vector_val@U?$_Simple_types@USprite@SpriteBatch@@@std@@@std@@@std@@@1@0@Z 0043ad10 f i SpriteBatch.obj
 0001:00039d90       ??$forward@V?$vector@USprite@SpriteBatch@@V?$allocator@USprite@SpriteBatch@@@std@@@std@@@std@@YA$$QAV?$vector@USprite@SpriteBatch@@V?$allocator@USprite@SpriteBatch@@@std@@@0@AAV10@@Z 0043ad90 f i SpriteBatch.obj
 0001:00039db0       ??$addressof@USprite@SpriteBatch@@@std@@YAPAUSprite@SpriteBatch@@AAU12@@Z 0043adb0 f i SpriteBatch.obj
 0001:00039dd0       ??$forward@USprite@SpriteBatch@@@std@@YA$$QAUSprite@SpriteBatch@@AAU12@@Z 0043add0 f i SpriteBatch.obj
 0001:00039df0       ??$construct@USprite@SpriteBatch@@U12@@?$_Wrap_alloc@V?$allocator@USprite@SpriteBatch@@@std@@@std@@QAEXPAUSprite@SpriteBatch@@$$QAU23@@Z 0043adf0 f i SpriteBatch.obj
 0001:00039e30       ??$_Destroy_range@U?$_Wrap_alloc@V?$allocator@USprite@SpriteBatch@@@std@@@std@@@std@@YAXPAUSprite@SpriteBatch@@0AAU?$_Wrap_alloc@V?$allocator@USprite@SpriteBatch@@@std@@@0@@Z 0043ae30 f i SpriteBatch.obj
 0001:00039e70       ??$_Umove@PAUSprite@SpriteBatch@@@?$vector@USprite@SpriteBatch@@V?$allocator@USprite@SpriteBatch@@@std@@@std@@IAEPAUSprite@SpriteBatch@@PAU23@00@Z 0043ae70 f i SpriteBatch.obj
 0001:00039eb0       ??$_Allocate@USprite@SpriteBatch@@@std@@YAPAUSprite@SpriteBatch@@IPAU12@@Z 0043aeb0 f i SpriteBatch.obj
 0001:00039f00       ??$?8V?$allocator@USprite@SpriteBatch@@@std@@V01@@std@@YA_NABU?$_Wrap_alloc@V?$allocator@USprite@SpriteBatch@@@std@@@0@0@Z 0043af00 f i SpriteBatch.obj
 0001:00039f40       ??$?8USprite@SpriteBatch@@U01@@std@@YA_NABV?$allocator@USprite@SpriteBatch@@@0@0@Z 0043af40 f i SpriteBatch.obj
 0001:00039f60       ??$insert@V?$move_iterator@V?$_Vector_iterator@V?$_Vector_val@U?$_Simple_types@USprite@SpriteBatch@@@std@@@std@@@std@@@std@@@?$vector@USprite@SpriteBatch@@V?$allocator@USprite@SpriteBatch@@@std@@@std@@QAE?AV?$_Vector_iterator@V?$_Vector_val@U?$_Simple_types@USprite@SpriteBatch@@@std@@@std@@@1@V?$_Vector_const_iterator@V?$_Vector_val@U?$_Simple_types@USprite@SpriteBatch@@@std@@@std@@@1@V?$move_iterator@V?$_Vector_iterator@V?$_Vector_val@U?$_Simple_types@USprite@SpriteBatch@@@std@@@std@@@std@@@1@1@Z 0043af60 f i SpriteBatch.obj
 0001:00039fe0       ??$construct@USprite@SpriteBatch@@U12@@?$allocator_traits@V?$allocator@USprite@SpriteBatch@@@std@@@std@@SAXAAV?$allocator@USprite@SpriteBatch@@@1@PAUSprite@SpriteBatch@@$$QAU34@@Z 0043afe0 f i SpriteBatch.obj
 0001:0003a010       ??$_Ptr_cat@USprite@SpriteBatch@@U12@@std@@YA?AU_Nonscalar_ptr_iterator_tag@0@PAUSprite@SpriteBatch@@0@Z 0043b010 f i SpriteBatch.obj
 0001:0003a030       ??$_Destroy_range@U?$_Wrap_alloc@V?$allocator@USprite@SpriteBatch@@@std@@@std@@@std@@YAXPAUSprite@SpriteBatch@@0AAU?$_Wrap_alloc@V?$allocator@USprite@SpriteBatch@@@std@@@0@U_Nonscalar_ptr_iterator_tag@0@@Z 0043b030 f i SpriteBatch.obj
 0001:0003a070       ??$_Uninitialized_move@PAUSprite@SpriteBatch@@PAU12@U?$_Wrap_alloc@V?$allocator@USprite@SpriteBatch@@@std@@@std@@@std@@YAPAUSprite@SpriteBatch@@PAU12@00AAU?$_Wrap_alloc@V?$allocator@USprite@SpriteBatch@@@std@@@0@@Z 0043b070 f i SpriteBatch.obj
 0001:0003a0c0       ??$_Move@PAUSprite@SpriteBatch@@PAU12@@std@@YAPAUSprite@SpriteBatch@@PAU12@00@Z 0043b0c0 f i SpriteBatch.obj
 0001:0003a100       ??$_Iter_cat@V?$move_iterator@V?$_Vector_iterator@V?$_Vector_val@U?$_Simple_types@USprite@SpriteBatch@@@std@@@std@@@std@@@std@@@std@@YA?AUrandom_access_iterator_tag@0@ABV?$move_iterator@V?$_Vector_iterator@V?$_Vector_val@U?$_Simple_types@USprite@SpriteBatch@@@std@@@std@@@std@@@0@@Z 0043b100 f i SpriteBatch.obj
 0001:0003a120       ??$_Insert@V?$move_iterator@V?$_Vector_iterator@V?$_Vector_val@U?$_Simple_types@USprite@SpriteBatch@@@std@@@std@@@std@@@std@@@?$vector@USprite@SpriteBatch@@V?$allocator@USprite@SpriteBatch@@@std@@@std@@QAEXV?$_Vector_const_iterator@V?$_Vector_val@U?$_Simple_types@USprite@SpriteBatch@@@std@@@std@@@1@V?$move_iterator@V?$_Vector_iterator@V?$_Vector_val@U?$_Simple_types@USprite@SpriteBatch@@@std@@@std@@@std@@@1@1Uforward_iterator_tag@1@@Z 0043b120 f i SpriteBatch.obj
 0001:0003a380       ??$construct@USprite@SpriteBatch@@U12@@?$allocator@USprite@SpriteBatch@@@std@@QAEXPAUSprite@SpriteBatch@@$$QAU23@@Z 0043b380 f i SpriteBatch.obj
 0001:0003a410       ??$destroy@USprite@SpriteBatch@@@?$_Wrap_alloc@V?$allocator@USprite@SpriteBatch@@@std@@@std@@QAEXPAUSprite@SpriteBatch@@@Z 0043b410 f i SpriteBatch.obj
 0001:0003a440       ??$_Val_type@PAUSprite@SpriteBatch@@@std@@YAPAUSprite@SpriteBatch@@PAU12@@Z 0043b440 f i SpriteBatch.obj
 0001:0003a460       ??$_Uninit_move@PAUSprite@SpriteBatch@@PAU12@V?$allocator@USprite@SpriteBatch@@@std@@U12@@std@@YAPAUSprite@SpriteBatch@@PAU12@00AAU?$_Wrap_alloc@V?$allocator@USprite@SpriteBatch@@@std@@@0@0U_Nonscalar_ptr_iterator_tag@0@@Z 0043b460 f i SpriteBatch.obj
 0001:0003a520       ??$_Move@PAUSprite@SpriteBatch@@PAU12@@std@@YAPAUSprite@SpriteBatch@@PAU12@00U_Nonscalar_ptr_iterator_tag@0@@Z 0043b520 f i SpriteBatch.obj
 0001:0003a570       ??$_Distance@V?$move_iterator@V?$_Vector_iterator@V?$_Vector_val@U?$_Simple_types@USprite@SpriteBatch@@@std@@@std@@@std@@@std@@I@std@@YAXV?$move_iterator@V?$_Vector_iterator@V?$_Vector_val@U?$_Simple_types@USprite@SpriteBatch@@@std@@@std@@@std@@@0@0AAI@Z 0043b570 f i SpriteBatch.obj
 0001:0003a5b0       ??$_Ucopy@V?$move_iterator@V?$_Vector_iterator@V?$_Vector_val@U?$_Simple_types@USprite@SpriteBatch@@@std@@@std@@@std@@@std@@@?$vector@USprite@SpriteBatch@@V?$allocator@USprite@SpriteBatch@@@std@@@std@@IAEPAUSprite@SpriteBatch@@V?$move_iterator@V?$_Vector_iterator@V?$_Vector_val@U?$_Simple_types@USprite@SpriteBatch@@@std@@@std@@@std@@@1@0PAU23@@Z 0043b5b0 f i SpriteBatch.obj
 0001:0003a5f0       ??$rotate@PAUSprite@SpriteBatch@@@std@@YAPAUSprite@SpriteBatch@@PAU12@00@Z 0043b5f0 f i SpriteBatch.obj
 0001:0003a680       ??$destroy@USprite@SpriteBatch@@@?$allocator_traits@V?$allocator@USprite@SpriteBatch@@@std@@@std@@SAXAAV?$allocator@USprite@SpriteBatch@@@1@PAUSprite@SpriteBatch@@@Z 0043b680 f i SpriteBatch.obj
 0001:0003a6a0       ??$move@AAUSprite@SpriteBatch@@@std@@YA$$QAUSprite@SpriteBatch@@AAU12@@Z 0043b6a0 f i SpriteBatch.obj
 0001:0003a6c0       ??$_Distance2@V?$move_iterator@V?$_Vector_iterator@V?$_Vector_val@U?$_Simple_types@USprite@SpriteBatch@@@std@@@std@@@std@@@std@@I@std@@YAXV?$move_iterator@V?$_Vector_iterator@V?$_Vector_val@U?$_Simple_types@USprite@SpriteBatch@@@std@@@std@@@std@@@0@0AAIUrandom_access_iterator_tag@0@@Z 0043b6c0 f i SpriteBatch.obj
 0001:0003a6f0       ??$_Uninitialized_copy@V?$move_iterator@V?$_Vector_iterator@V?$_Vector_val@U?$_Simple_types@USprite@SpriteBatch@@@std@@@std@@@std@@@std@@PAUSprite@SpriteBatch@@U?$_Wrap_alloc@V?$allocator@USprite@SpriteBatch@@@std@@@2@@std@@YAPAUSprite@SpriteBatch@@V?$move_iterator@V?$_Vector_iterator@V?$_Vector_val@U?$_Simple_types@USprite@SpriteBatch@@@std@@@std@@@std@@@0@0PAU12@AAU?$_Wrap_alloc@V?$allocator@USprite@SpriteBatch@@@std@@@0@@Z 0043b6f0 f i SpriteBatch.obj
 0001:0003a730       ??$_Unchecked@PAUSprite@SpriteBatch@@@std@@YAPAUSprite@SpriteBatch@@PAU12@@Z 0043b730 f i SpriteBatch.obj
 0001:0003a750       ??$_Iter_cat@PAUSprite@SpriteBatch@@@std@@YA?AUrandom_access_iterator_tag@0@ABQAUSprite@SpriteBatch@@@Z 0043b750 f i SpriteBatch.obj
 0001:0003a770       ??$_Rotate@PAUSprite@SpriteBatch@@@std@@YAXPAUSprite@SpriteBatch@@00Urandom_access_iterator_tag@0@@Z 0043b770 f i SpriteBatch.obj
 0001:0003a7b0       ??$distance@PAUSprite@SpriteBatch@@@std@@YAHPAUSprite@SpriteBatch@@0@Z 0043b7b0 f i SpriteBatch.obj
 0001:0003a800       ??$advance@PAUSprite@SpriteBatch@@H@std@@YAXAAPAUSprite@SpriteBatch@@H@Z 0043b800 f i SpriteBatch.obj
 0001:0003a840       ??$destroy@USprite@SpriteBatch@@@?$allocator@USprite@SpriteBatch@@@std@@QAEXPAUSprite@SpriteBatch@@@Z 0043b840 f i SpriteBatch.obj
 0001:0003a860       ??$?GV?$_Vector_iterator@V?$_Vector_val@U?$_Simple_types@USprite@SpriteBatch@@@std@@@std@@@std@@V01@@std@@YAHAAV?$move_iterator@V?$_Vector_iterator@V?$_Vector_val@U?$_Simple_types@USprite@SpriteBatch@@@std@@@std@@@std@@@0@ABV10@@Z 0043b860 f i SpriteBatch.obj
 0001:0003a890       ??$_Ptr_cat@V?$move_iterator@V?$_Vector_iterator@V?$_Vector_val@U?$_Simple_types@USprite@SpriteBatch@@@std@@@std@@@std@@@std@@PAUSprite@SpriteBatch@@@std@@YA?AU_Nonscalar_ptr_iterator_tag@0@AAV?$move_iterator@V?$_Vector_iterator@V?$_Vector_val@U?$_Simple_types@USprite@SpriteBatch@@@std@@@std@@@std@@@0@AAPAUSprite@SpriteBatch@@@Z 0043b890 f i SpriteBatch.obj
 0001:0003a8b0       ??$_Uninit_copy@V?$move_iterator@V?$_Vector_iterator@V?$_Vector_val@U?$_Simple_types@USprite@SpriteBatch@@@std@@@std@@@std@@@std@@PAUSprite@SpriteBatch@@V?$allocator@USprite@SpriteBatch@@@2@@std@@YAPAUSprite@SpriteBatch@@V?$move_iterator@V?$_Vector_iterator@V?$_Vector_val@U?$_Simple_types@USprite@SpriteBatch@@@std@@@std@@@std@@@0@0PAU12@AAU?$_Wrap_alloc@V?$allocator@USprite@SpriteBatch@@@std@@@0@U_Nonscalar_ptr_iterator_tag@0@@Z 0043b8b0 f i SpriteBatch.obj
 0001:0003a990       ??$_Dist_type@PAUSprite@SpriteBatch@@@std@@YAPAHPAUSprite@SpriteBatch@@@Z 0043b990 f i SpriteBatch.obj
 0001:0003a9b0       ??$_Rotate@PAUSprite@SpriteBatch@@HU12@@std@@YAXPAUSprite@SpriteBatch@@00PAH0@Z 0043b9b0 f i SpriteBatch.obj
 0001:0003aae0       ??$_Distance2@PAUSprite@SpriteBatch@@H@std@@YAXPAUSprite@SpriteBatch@@0AAHUrandom_access_iterator_tag@0@@Z 0043bae0 f i SpriteBatch.obj
 0001:0003ab10       ??$_Advance@PAUSprite@SpriteBatch@@H@std@@YAXAAPAUSprite@SpriteBatch@@HUrandom_access_iterator_tag@0@@Z 0043bb10 f i SpriteBatch.obj
 0001:0003ab30       ??$?9V?$_Vector_iterator@V?$_Vector_val@U?$_Simple_types@USprite@SpriteBatch@@@std@@@std@@@std@@V01@@std@@YA_NABV?$move_iterator@V?$_Vector_iterator@V?$_Vector_val@U?$_Simple_types@USprite@SpriteBatch@@@std@@@std@@@std@@@0@0@Z 0043bb30 f i SpriteBatch.obj
 0001:0003ab70       ??$iter_swap@PAUSprite@SpriteBatch@@PAU12@@std@@YAXPAUSprite@SpriteBatch@@0@Z 0043bb70 f i SpriteBatch.obj
 0001:0003ab90       ??$?8V?$_Vector_iterator@V?$_Vector_val@U?$_Simple_types@USprite@SpriteBatch@@@std@@@std@@@std@@V01@@std@@YA_NABV?$move_iterator@V?$_Vector_iterator@V?$_Vector_val@U?$_Simple_types@USprite@SpriteBatch@@@std@@@std@@@std@@@0@0@Z 0043bb90 f i SpriteBatch.obj
 0001:0003abb0       ??$swap@USprite@SpriteBatch@@@std@@YAXAAUSprite@SpriteBatch@@0@Z 0043bbb0 f i SpriteBatch.obj
 0001:0003ac50       ??$_Equal@V?$_Vector_iterator@V?$_Vector_val@U?$_Simple_types@USprite@SpriteBatch@@@std@@@std@@@std@@@?$move_iterator@V?$_Vector_iterator@V?$_Vector_val@U?$_Simple_types@USprite@SpriteBatch@@@std@@@std@@@std@@@std@@QBE_NABV01@@Z 0043bc50 f i SpriteBatch.obj
 0001:0003ac80       ??$_Move@AAUSprite@SpriteBatch@@@std@@YA$$QAUSprite@SpriteBatch@@AAU12@@Z 0043bc80 f i SpriteBatch.obj
 0001:0003aca0       ??0Texture2D@@QAE@XZ       0043bca0 f   Texture2D.obj
 0001:0003acd0       ??1Texture2D@@UAE@XZ       0043bcd0 f   Texture2D.obj
 0001:0003ad40       ?Load@Texture2D@@QAE_NPBD@Z 0043bd40 f   Texture2D.obj
 0001:0003b150       ?Release@Texture2D@@QAEXXZ 0043c150 f   Texture2D.obj
 0001:0003b190       ?FlipVertical@Texture2D@@QAE_NXZ 0043c190 f   Texture2D.obj
 0001:0003b3c0       ?ConvertRGBAToRGB@Texture2D@@QAE_NXZ 0043c3c0 f   Texture2D.obj
 0001:0003b4f0       ?ConvertRGBToRGBA@Texture2D@@QAE_NE@Z 0043c4f0 f   Texture2D.obj
 0001:0003b630       ?SwapRedBlue@Texture2D@@AAEXXZ 0043c630 f   Texture2D.obj
 0001:0003b730       ??_GTexture2D@@UAEPAXI@Z   0043c730 f i Texture2D.obj
 0001:0003b730       ??_ETexture2D@@UAEPAXI@Z   0043c730 f i Texture2D.obj
 0001:0003b770       ??0ToggleButton@@QAE@VDemoRectangle@@PAVTexture2D@@VDemoColour@@@Z 0043c770 f   ToggleButton.obj
 0001:0003b840       ??1ToggleButton@@UAE@XZ    0043c840 f   ToggleButton.obj
 0001:0003b870       ?Depress@ToggleButton@@UAEXXZ 0043c870 f   ToggleButton.obj
 0001:0003b8d0       ?Unpress@ToggleButton@@UAEXXZ 0043c8d0 f   ToggleButton.obj
 0001:0003b8f0       ??_GToggleButton@@UAEPAXI@Z 0043c8f0 f i ToggleButton.obj
 0001:0003b8f0       ??_EToggleButton@@UAEPAXI@Z 0043c8f0 f i ToggleButton.obj
 0001:0003b930       ??0WindowsInputManager@@QAE@PAUHWND__@@@Z 0043c930 f   WindowsInputManager.obj
 0001:0003b970       ??1WindowsInputManager@@QAE@XZ 0043c970 f   WindowsInputManager.obj
 0001:0003b9a0       ?GetMousePosition@WindowsInputManager@@UAEXAAM0@Z 0043c9a0 f   WindowsInputManager.obj
 0001:0003ba10       ?IsLeftMouseButtonDown@WindowsInputManager@@UAE_NXZ 0043ca10 f   WindowsInputManager.obj
 0001:0003ba46       _glBindTexture@8           0043ca46 f   OpenGL32:OPENGL32.dll
 0001:0003ba4c       _glGenTextures@8           0043ca4c f   OpenGL32:OPENGL32.dll
 0001:0003ba52       _glTexParameteri@12        0043ca52 f   OpenGL32:OPENGL32.dll
 0001:0003ba58       _wglGetProcAddress@4       0043ca58 f   OpenGL32:OPENGL32.dll
 0001:0003ba5e       _glClear@4                 0043ca5e f   OpenGL32:OPENGL32.dll
 0001:0003ba64       _glClearColor@16           0043ca64 f   OpenGL32:OPENGL32.dll
 0001:0003ba6a       _glGetString@4             0043ca6a f   OpenGL32:OPENGL32.dll
 0001:0003ba70       _wglUseFontBitmapsW@16     0043ca70 f   OpenGL32:OPENGL32.dll
 0001:0003ba76       _glCallLists@12            0043ca76 f   OpenGL32:OPENGL32.dll
 0001:0003ba7c       _glListBase@4              0043ca7c f   OpenGL32:OPENGL32.dll
 0001:0003ba82       _glPopMatrix@0             0043ca82 f   OpenGL32:OPENGL32.dll
 0001:0003ba88       _glPushMatrix@0            0043ca88 f   OpenGL32:OPENGL32.dll
 0001:0003ba8e       _glRasterPos2d@16          0043ca8e f   OpenGL32:OPENGL32.dll
 0001:0003ba94       _glEnable@4                0043ca94 f   OpenGL32:OPENGL32.dll
 0001:0003ba9a       _glEnableClientState@4     0043ca9a f   OpenGL32:OPENGL32.dll
 0001:0003baa0       _glLoadIdentity@0          0043caa0 f   OpenGL32:OPENGL32.dll
 0001:0003baa6       _glMatrixMode@4            0043caa6 f   OpenGL32:OPENGL32.dll
 0001:0003baac       _glOrtho@48                0043caac f   OpenGL32:OPENGL32.dll
 0001:0003bab2       _glViewport@16             0043cab2 f   OpenGL32:OPENGL32.dll
 0001:0003bab8       _wglCreateContext@4        0043cab8 f   OpenGL32:OPENGL32.dll
 0001:0003babe       _wglDeleteContext@4        0043cabe f   OpenGL32:OPENGL32.dll
 0001:0003bac4       _wglMakeCurrent@8          0043cac4 f   OpenGL32:OPENGL32.dll
 0001:0003baca       _glColorPointer@16         0043caca f   OpenGL32:OPENGL32.dll
 0001:0003bad0       _glDrawArrays@12           0043cad0 f   OpenGL32:OPENGL32.dll
 0001:0003bad6       _glTexCoordPointer@16      0043cad6 f   OpenGL32:OPENGL32.dll
 0001:0003badc       _glVertexPointer@16        0043cadc f   OpenGL32:OPENGL32.dll
 0001:0003bae2       _gluBuild2DMipmaps@28      0043cae2 f   GLU32:GLU32.dll
 0001:0003bae8       _WindowFromDC@4            0043cae8 f   user32:USER32.dll
 0001:0003baee       _GetMessageW@16            0043caee f   user32:USER32.dll
 0001:0003baf4       _TranslateMessage@4        0043caf4 f   user32:USER32.dll
 0001:0003bafa       _DispatchMessageW@4        0043cafa f   user32:USER32.dll
 0001:0003bb00       _PeekMessageW@20           0043cb00 f   user32:USER32.dll
 0001:0003bb06       _DefWindowProcW@16         0043cb06 f   user32:USER32.dll
 0001:0003bb0c       _PostQuitMessage@4         0043cb0c f   user32:USER32.dll
 0001:0003bb12       _RegisterClassExW@4        0043cb12 f   user32:USER32.dll
 0001:0003bb18       _CreateWindowExW@48        0043cb18 f   user32:USER32.dll
 0001:0003bb1e       _ShowWindow@8              0043cb1e f   user32:USER32.dll
 0001:0003bb24       _UpdateWindow@4            0043cb24 f   user32:USER32.dll
 0001:0003bb2a       _GetDC@4                   0043cb2a f   user32:USER32.dll
 0001:0003bb30       _AdjustWindowRectEx@16     0043cb30 f   user32:USER32.dll
 0001:0003bb36       _LoadCursorW@8             0043cb36 f   user32:USER32.dll
 0001:0003bb3c       _LoadIconW@8               0043cb3c f   user32:USER32.dll
 0001:0003bb42       _GetKeyState@4             0043cb42 f   user32:USER32.dll
 0001:0003bb48       _GetCursorPos@4            0043cb48 f   user32:USER32.dll
 0001:0003bb4e       _ScreenToClient@8          0043cb4e f   user32:USER32.dll
 0001:0003bb54       _SwapBuffers@4             0043cb54 f   gdi32:GDI32.dll
 0001:0003bb5a       _ChoosePixelFormat@8       0043cb5a f   gdi32:GDI32.dll
 0001:0003bb60       _SetPixelFormat@12         0043cb60 f   gdi32:GDI32.dll
 0001:0003bb66       ?_Xbad_alloc@std@@YAXXZ    0043cb66 f   msvcprt:MSVCP110.dll
 0001:0003bb6c       ?_Xlength_error@std@@YAXPBD@Z 0043cb6c f   msvcprt:MSVCP110.dll
 0001:0003bb72       ?_Xout_of_range@std@@YAXPBD@Z 0043cb72 f   msvcprt:MSVCP110.dll
 0001:0003bb78       ??0id@locale@std@@QAE@I@Z  0043cb78 f   msvcprt:MSVCP110.dll
 0001:0003bb7e       ?_Syserror_map@std@@YAPBDH@Z 0043cb7e f   msvcprt:MSVCP110.dll
 0001:0003bb84       ?_Winerror_map@std@@YAPBDH@Z 0043cb84 f   msvcprt:MSVCP110.dll
 0001:0003bb8a       ?_Orphan_all@_Container_base0@std@@QAEXXZ 0043cb8a f   msvcprt:MSVCP110.dll
 0001:0003bb90       ?_Swap_all@_Container_base0@std@@QAEXAAU12@@Z 0043cb90 f   msvcprt:MSVCP110.dll
 0001:0003bb96       ?uncaught_exception@std@@YA_NXZ 0043cb96 f   msvcprt:MSVCP110.dll
 0001:0003bb9c       ?good@ios_base@std@@QBE_NXZ 0043cb9c f   msvcprt:MSVCP110.dll
 0001:0003bba2       ?flags@ios_base@std@@QBEHXZ 0043cba2 f   msvcprt:MSVCP110.dll
 0001:0003bba8       ?setf@ios_base@std@@QAEHHH@Z 0043cba8 f   msvcprt:MSVCP110.dll
 0001:0003bbae       ?width@ios_base@std@@QBE_JXZ 0043cbae f   msvcprt:MSVCP110.dll
 0001:0003bbb4       ?width@ios_base@std@@QAE_J_J@Z 0043cbb4 f   msvcprt:MSVCP110.dll
 0001:0003bbba       ??0?$basic_streambuf@DU?$char_traits@D@std@@@std@@IAE@XZ 0043cbba f   msvcprt:MSVCP110.dll
 0001:0003bbc0       ??1?$basic_streambuf@DU?$char_traits@D@std@@@std@@UAE@XZ 0043cbc0 f   msvcprt:MSVCP110.dll
 0001:0003bbc6       ?sputc@?$basic_streambuf@DU?$char_traits@D@std@@@std@@QAEHD@Z 0043cbc6 f   msvcprt:MSVCP110.dll
 0001:0003bbcc       ?sputn@?$basic_streambuf@DU?$char_traits@D@std@@@std@@QAE_JPBD_J@Z 0043cbcc f   msvcprt:MSVCP110.dll
 0001:0003bbd2       ?eback@?$basic_streambuf@DU?$char_traits@D@std@@@std@@IBEPADXZ 0043cbd2 f   msvcprt:MSVCP110.dll
 0001:0003bbd8       ?gptr@?$basic_streambuf@DU?$char_traits@D@std@@@std@@IBEPADXZ 0043cbd8 f   msvcprt:MSVCP110.dll
 0001:0003bbde       ?pbase@?$basic_streambuf@DU?$char_traits@D@std@@@std@@IBEPADXZ 0043cbde f   msvcprt:MSVCP110.dll
 0001:0003bbe4       ?pptr@?$basic_streambuf@DU?$char_traits@D@std@@@std@@IBEPADXZ 0043cbe4 f   msvcprt:MSVCP110.dll
 0001:0003bbea       ?egptr@?$basic_streambuf@DU?$char_traits@D@std@@@std@@IBEPADXZ 0043cbea f   msvcprt:MSVCP110.dll
 0001:0003bbf0       ?gbump@?$basic_streambuf@DU?$char_traits@D@std@@@std@@IAEXH@Z 0043cbf0 f   msvcprt:MSVCP110.dll
 0001:0003bbf6       ?setg@?$basic_streambuf@DU?$char_traits@D@std@@@std@@IAEXPAD00@Z 0043cbf6 f   msvcprt:MSVCP110.dll
 0001:0003bbfc       ?epptr@?$basic_streambuf@DU?$char_traits@D@std@@@std@@IBEPADXZ 0043cbfc f   msvcprt:MSVCP110.dll
 0001:0003bc02       ?pbump@?$basic_streambuf@DU?$char_traits@D@std@@@std@@IAEXH@Z 0043cc02 f   msvcprt:MSVCP110.dll
 0001:0003bc08       ?setp@?$basic_streambuf@DU?$char_traits@D@std@@@std@@IAEXPAD0@Z 0043cc08 f   msvcprt:MSVCP110.dll
 0001:0003bc0e       ?setp@?$basic_streambuf@DU?$char_traits@D@std@@@std@@IAEXPAD00@Z 0043cc0e f   msvcprt:MSVCP110.dll
 0001:0003bc14       ?_Pninc@?$basic_streambuf@DU?$char_traits@D@std@@@std@@IAEPADXZ 0043cc14 f   msvcprt:MSVCP110.dll
 0001:0003bc1a       ??1?$basic_ios@DU?$char_traits@D@std@@@std@@UAE@XZ 0043cc1a f   msvcprt:MSVCP110.dll
 0001:0003bc20       ?setstate@?$basic_ios@DU?$char_traits@D@std@@@std@@QAEXH_N@Z 0043cc20 f   msvcprt:MSVCP110.dll
 0001:0003bc26       ?tie@?$basic_ios@DU?$char_traits@D@std@@@std@@QBEPAV?$basic_ostream@DU?$char_traits@D@std@@@2@XZ 0043cc26 f   msvcprt:MSVCP110.dll
 0001:0003bc2c       ?rdbuf@?$basic_ios@DU?$char_traits@D@std@@@std@@QBEPAV?$basic_streambuf@DU?$char_traits@D@std@@@2@XZ 0043cc2c f   msvcprt:MSVCP110.dll
 0001:0003bc32       ?fill@?$basic_ios@DU?$char_traits@D@std@@@std@@QBEDXZ 0043cc32 f   msvcprt:MSVCP110.dll
 0001:0003bc38       ??0?$basic_ios@DU?$char_traits@D@std@@@std@@IAE@XZ 0043cc38 f   msvcprt:MSVCP110.dll
 0001:0003bc3e       ??0?$basic_ostream@DU?$char_traits@D@std@@@std@@QAE@PAV?$basic_streambuf@DU?$char_traits@D@std@@@1@_N@Z 0043cc3e f   msvcprt:MSVCP110.dll
 0001:0003bc44       ??1?$basic_ostream@DU?$char_traits@D@std@@@std@@UAE@XZ 0043cc44 f   msvcprt:MSVCP110.dll
 0001:0003bc4a       ?_Add_vtordisp2@?$basic_ostream@DU?$char_traits@D@std@@@std@@UAEXXZ 0043cc4a f   msvcprt:MSVCP110.dll
 0001:0003bc50       ?_Osfx@?$basic_ostream@DU?$char_traits@D@std@@@std@@QAEXXZ 0043cc50 f   msvcprt:MSVCP110.dll
 0001:0003bc56       ??6?$basic_ostream@DU?$char_traits@D@std@@@std@@QAEAAV01@P6AAAVios_base@1@AAV21@@Z@Z 0043cc56 f   msvcprt:MSVCP110.dll
 0001:0003bc5c       ??6?$basic_ostream@DU?$char_traits@D@std@@@std@@QAEAAV01@N@Z 0043cc5c f   msvcprt:MSVCP110.dll
 0001:0003bc62       ?flush@?$basic_ostream@DU?$char_traits@D@std@@@std@@QAEAAV12@XZ 0043cc62 f   msvcprt:MSVCP110.dll
 0001:0003bc68       ?setprecision@std@@YA?AU?$_Smanip@_J@1@_J@Z 0043cc68 f   msvcprt:MSVCP110.dll
 0001:0003bc6e       ?_Add_vtordisp1@?$basic_ios@DU?$char_traits@D@std@@@std@@UAEXXZ 0043cc6e f   msvcprt:MSVCP110.dll
 0001:0003bc74       ?_Lock@?$basic_streambuf@DU?$char_traits@D@std@@@std@@UAEXXZ 0043cc74 f   msvcprt:MSVCP110.dll
 0001:0003bc7a       ?_Unlock@?$basic_streambuf@DU?$char_traits@D@std@@@std@@UAEXXZ 0043cc7a f   msvcprt:MSVCP110.dll
 0001:0003bc80       ?imbue@?$basic_streambuf@DU?$char_traits@D@std@@@std@@MAEXABVlocale@2@@Z 0043cc80 f   msvcprt:MSVCP110.dll
 0001:0003bc86       ?setbuf@?$basic_streambuf@DU?$char_traits@D@std@@@std@@MAEPAV12@PAD_J@Z 0043cc86 f   msvcprt:MSVCP110.dll
 0001:0003bc8c       ?showmanyc@?$basic_streambuf@DU?$char_traits@D@std@@@std@@MAE_JXZ 0043cc8c f   msvcprt:MSVCP110.dll
 0001:0003bc92       ?sync@?$basic_streambuf@DU?$char_traits@D@std@@@std@@MAEHXZ 0043cc92 f   msvcprt:MSVCP110.dll
 0001:0003bc98       ?uflow@?$basic_streambuf@DU?$char_traits@D@std@@@std@@MAEHXZ 0043cc98 f   msvcprt:MSVCP110.dll
 0001:0003bc9e       ?xsgetn@?$basic_streambuf@DU?$char_traits@D@std@@@std@@MAE_JPAD_J@Z 0043cc9e f   msvcprt:MSVCP110.dll
 0001:0003bca4       ?xsputn@?$basic_streambuf@DU?$char_traits@D@std@@@std@@MAE_JPBD_J@Z 0043cca4 f   msvcprt:MSVCP110.dll
 0001:0003bcaa       ??_U@YAPAXI@Z              0043ccaa f   msvcprt:newaop_s.obj
 0001:0003bcb4       __purecall                 0043ccb4 f   MSVCRT:MSVCR110.dll
 0001:0003bcba       ??2@YAPAXI@Z               0043ccba f   MSVCRT:MSVCR110.dll
 0001:0003bcc0       ??3@YAXPAX@Z               0043ccc0 f   MSVCRT:MSVCR110.dll
 0001:0003bcc6       ___atonexitinit            0043ccc6 f   MSVCRT:atonexit.obj
 0001:0003bd02       _atexit                    0043cd02 f   MSVCRT:atonexit.obj
 0001:0003bd17       __onexit                   0043cd17 f   MSVCRT:atonexit.obj
 0001:0003bdbc       _memmove                   0043cdbc f   MSVCRT:MSVCR110.dll
 0001:0003bdc2       ??0exception@std@@QAE@ABQBD@Z 0043cdc2 f   MSVCRT:MSVCR110.dll
 0001:0003bdc8       ??0exception@std@@QAE@ABV01@@Z 0043cdc8 f   MSVCRT:MSVCR110.dll
 0001:0003bdce       ??1exception@std@@UAE@XZ   0043cdce f   MSVCRT:MSVCR110.dll
 0001:0003bdd4       @__security_check_cookie@4 0043cdd4 f   MSVCRT:secchk.obj
 0001:0003bde4       __CxxThrowException@8      0043cde4 f   MSVCRT:MSVCR110.dll
 0001:0003bdea       ___CxxFrameHandler3        0043cdea f   MSVCRT:MSVCR110.dll
 0001:0003bdf0       _memcpy                    0043cdf0 f   MSVCRT:MSVCR110.dll
 0001:0003bdf6       ??0type_info@@AAE@ABV0@@Z  0043cdf6 f   MSVCRT:ti_inst.obj
 0001:0003be01       ??4type_info@@AAEAAV0@ABV0@@Z 0043ce01 f   MSVCRT:ti_inst.obj
 0001:0003be06       ??_Etype_info@@UAEPAXI@Z   0043ce06 f i MSVCRT:ti_inst.obj
 0001:0003be50       _strstr                    0043ce50 f   MSVCRT:MSVCR110.dll
 0001:0003be56       _malloc                    0043ce56 f   MSVCRT:MSVCR110.dll
 0001:0003be5c       ??0exception@std@@QAE@ABQBDH@Z 0043ce5c f   MSVCRT:MSVCR110.dll
 0001:0003be62       ?what@exception@std@@UBEPBDXZ 0043ce62 f   MSVCRT:MSVCR110.dll
 0001:0003be70       _memcmp                    0043ce70 f   MSVCRT:MSVCR110.dll
 0001:0003be76       _rand                      0043ce76 f   MSVCRT:MSVCR110.dll
 0001:0003be7c       _srand                     0043ce7c f   MSVCRT:MSVCR110.dll
 0001:0003be82       _cos                       0043ce82 f   MSVCRT:MSVCR110.dll
 0001:0003be88       _sin                       0043ce88 f   MSVCRT:MSVCR110.dll
 0001:0003be8e       ??_V@YAXPAX@Z              0043ce8e f   MSVCRT:MSVCR110.dll
 0001:0003be94       _fclose                    0043ce94 f   MSVCRT:MSVCR110.dll
 0001:0003be9a       _fgetc                     0043ce9a f   MSVCRT:MSVCR110.dll
 0001:0003bea0       _fopen                     0043cea0 f   MSVCRT:MSVCR110.dll
 0001:0003bea6       _fread                     0043cea6 f   MSVCRT:MSVCR110.dll
 0001:0003beac       _fseek                     0043ceac f   MSVCRT:MSVCR110.dll
 0001:0003bfb6       _NtCurrentTeb              0043cfb6 f i MSVCRT:crtexew.obj
 0001:0003c1b3       _WinMainCRTStartup         0043d1b3 f   MSVCRT:crtexew.obj
 0001:0003c1be       _vprintf                   0043d1be f   MSVCRT:MSVCR110.dll
 0001:0003c1c4       _free                      0043d1c4 f   MSVCRT:MSVCR110.dll
 0001:0003c1ca       __lock                     0043d1ca f   MSVCRT:MSVCR110.dll
 0001:0003c1d0       __unlock                   0043d1d0 f   MSVCRT:MSVCR110.dll
 0001:0003c1d6       __calloc_crt               0043d1d6 f   MSVCRT:MSVCR110.dll
 0001:0003c1dc       ___dllonexit               0043d1dc f   MSVCRT:MSVCR110.dll
 0001:0003c1f0       __SEH_prolog4              0043d1f0 f   MSVCRT:sehprolg4.obj
 0001:0003c235       __SEH_epilog4              0043d235 f   MSVCRT:sehprolg4.obj
 0001:0003c249       __except_handler4          0043d249 f   MSVCRT:chandler4gs.obj
 0001:0003c26c       ___report_securityfailure  0043d26c f   MSVCRT:gs_report.obj
 0001:0003c33a       ___report_securityfailureEx 0043d33a f   MSVCRT:gs_report.obj
 0001:0003c44e       ___report_rangecheckfailure 0043d44e f   MSVCRT:gs_report.obj
 0001:0003c45a       ___raise_securityfailure   0043d45a f   MSVCRT:gs_report.obj
 0001:0003c497       ___report_gsfailure        0043d497 f   MSVCRT:gs_report.obj
 0001:0003c590       ??_M@YGXPAXIHP6EX0@Z@Z     0043d590 f   MSVCRT:ehvecdtr.obj
 0001:0003c5ff       ?__ArrayUnwind@@YGXPAXIHP6EX0@Z@Z 0043d5ff f   MSVCRT:ehvecdtr.obj
 0001:0003c676       ??1type_info@@UAE@XZ       0043d676 f   MSVCRT:MSVCR110.dll
 0001:0003c67c       ?__CxxUnhandledExceptionFilter@@YGJPAU_EXCEPTION_POINTERS@@@Z 0043d67c f   MSVCRT:unhandld.obj
 0001:0003c6bd       ___CxxSetUnhandledExceptionFilter 0043d6bd f   MSVCRT:unhandld.obj
 0001:0003c6cc       __XcptFilter               0043d6cc f   MSVCRT:MSVCR110.dll
 0001:0003c6d2       ___crtGetShowWindowMode    0043d6d2 f   MSVCRT:MSVCR110.dll
 0001:0003c6d8       __amsg_exit                0043d6d8 f   MSVCRT:MSVCR110.dll
 0001:0003c6de       __setargv                  0043d6de f   MSVCRT:dllargv.obj
 0001:0003c6e2       ___getmainargs             0043d6e2 f   MSVCRT:MSVCR110.dll
 0001:0003c6e8       ___set_app_type            0043d6e8 f   MSVCRT:MSVCR110.dll
 0001:0003c6f0       __ValidateImageBase        0043d6f0 f   MSVCRT:pesect.obj
 0001:0003c730       __FindPESection            0043d730 f   MSVCRT:pesect.obj
 0001:0003c780       __IsNonwritableInCurrentImage 0043d780 f   MSVCRT:pesect.obj
 0001:0003c83a       _exit                      0043d83a f   MSVCRT:MSVCR110.dll
 0001:0003c840       __exit                     0043d840 f   MSVCRT:MSVCR110.dll
 0001:0003c846       __cexit                    0043d846 f   MSVCRT:MSVCR110.dll
 0001:0003c84c       ___security_init_cookie    0043d84c f   MSVCRT:gs_support.obj
 0001:0003c8e6       __matherr                  0043d8e6 f   MSVCRT:merr.obj
 0001:0003c8ea       __ismbblead                0043d8ea f   MSVCRT:MSVCR110.dll
 0001:0003c8f0       __RTC_Initialize           0043d8f0 f   MSVCRT:initsect.obj
 0001:0003c910       __RTC_Terminate            0043d910 f   MSVCRT:initsect.obj
 0001:0003c930       __configthreadlocale       0043d930 f   MSVCRT:MSVCR110.dll
 0001:0003c936       __invoke_watson_if_error   0043d936 f i MSVCRT:fp8.obj
 0001:0003c956       __setdefaultprecision      0043d956 f   MSVCRT:fp8.obj
 0001:0003c97e       ___setusermatherr          0043d97e f   MSVCRT:MSVCR110.dll
 0001:0003c984       __initterm_e               0043d984 f   MSVCRT:MSVCR110.dll
 0001:0003c98a       __initterm                 0043d98a f   MSVCRT:MSVCR110.dll
 0001:0003c990       __except_handler4_common   0043d990 f   MSVCRT:MSVCR110.dll
 0001:0003c996       __crt_debugger_hook        0043d996 f   MSVCRT:MSVCR110.dll
 0001:0003c99c       ___crtUnhandledException   0043d99c f   MSVCRT:MSVCR110.dll
 0001:0003c9a2       ___crtTerminateProcess     0043d9a2 f   MSVCRT:MSVCR110.dll
 0001:0003c9a8       ?terminate@@YAXXZ          0043d9a8 f   MSVCRT:MSVCR110.dll
 0001:0003c9ae       ___crtSetUnhandledExceptionFilter 0043d9ae f   MSVCRT:MSVCR110.dll
 0001:0003c9b4       __invoke_watson            0043d9b4 f   MSVCRT:MSVCR110.dll
 0001:0003c9ba       __controlfp_s              0043d9ba f   MSVCRT:MSVCR110.dll
 0001:0003c9c0       _QueryPerformanceCounter@4 0043d9c0 f   kernel32:KERNEL32.dll
 0001:0003c9c6       _QueryPerformanceFrequency@4 0043d9c6 f   kernel32:KERNEL32.dll
 0001:0003c9cc       _EncodePointer@4           0043d9cc f   kernel32:KERNEL32.dll
 0001:0003c9d2       _DecodePointer@4           0043d9d2 f   kernel32:KERNEL32.dll
 0001:0003c9d8       _IsDebuggerPresent@0       0043d9d8 f   kernel32:KERNEL32.dll
 0001:0003c9de       _IsProcessorFeaturePresent@4 0043d9de f   kernel32:KERNEL32.dll
 0001:0003c9e4       _GetCurrentThreadId@0      0043d9e4 f   kernel32:KERNEL32.dll
 0001:0003c9ea       _GetSystemTimeAsFileTime@4 0043d9ea f   kernel32:KERNEL32.dll
 0001:0003c9f0       _GetTickCount64@0          0043d9f0 f   kernel32:KERNEL32.dll
 0001:0003c9f6       __libm_sse2_cos_precise    0043d9f6 f   MSVCRT:MSVCR110.dll
 0001:0003c9fc       __libm_sse2_sin_precise    0043d9fc f   MSVCRT:MSVCR110.dll
 0001:0003ca02       __libm_sse2_sqrt_precise   0043da02 f   MSVCRT:MSVCR110.dll
 0001:0003ca08       _floor                     0043da08 f   MSVCRT:MSVCR110.dll
 0001:0003ca0e       _memset                    0043da0e f   MSVCRT:MSVCR110.dll
 0002:00000000       __imp__ChoosePixelFormat@8 00441000     gdi32:GDI32.dll
 0002:00000004       __imp__SwapBuffers@4       00441004     gdi32:GDI32.dll
 0002:00000008       __imp__SetPixelFormat@12   00441008     gdi32:GDI32.dll
 0002:0000000c       \177GDI32_NULL_THUNK_DATA  0044100c     gdi32:GDI32.dll
 0002:00000010       __imp__gluBuild2DMipmaps@28 00441010     GLU32:GLU32.dll
 0002:00000014       \177GLU32_NULL_THUNK_DATA  00441014     GLU32:GLU32.dll
 0002:00000018       __imp__GetTickCount64@0    00441018     kernel32:KERNEL32.dll
 0002:0000001c       __imp__GetSystemTimeAsFileTime@4 0044101c     kernel32:KERNEL32.dll
 0002:00000020       __imp__GetCurrentThreadId@0 00441020     kernel32:KERNEL32.dll
 0002:00000024       __imp__IsProcessorFeaturePresent@4 00441024     kernel32:KERNEL32.dll
 0002:00000028       __imp__IsDebuggerPresent@0 00441028     kernel32:KERNEL32.dll
 0002:0000002c       __imp__DecodePointer@4     0044102c     kernel32:KERNEL32.dll
 0002:00000030       __imp__EncodePointer@4     00441030     kernel32:KERNEL32.dll
 0002:00000034       __imp__QueryPerformanceFrequency@4 00441034     kernel32:KERNEL32.dll
 0002:00000038       __imp__QueryPerformanceCounter@4 00441038     kernel32:KERNEL32.dll
 0002:0000003c       \177KERNEL32_NULL_THUNK_DATA 0044103c     kernel32:KERNEL32.dll
 0002:00000040       __imp_?sync@?$basic_streambuf@DU?$char_traits@D@std@@@std@@MAEHXZ 00441040     msvcprt:MSVCP110.dll
 0002:00000044       __imp_?setbuf@?$basic_streambuf@DU?$char_traits@D@std@@@std@@MAEPAV12@PAD_J@Z 00441044     msvcprt:MSVCP110.dll
 0002:00000048       __imp_?imbue@?$basic_streambuf@DU?$char_traits@D@std@@@std@@MAEXABVlocale@2@@Z 00441048     msvcprt:MSVCP110.dll
 0002:0000004c       __imp_?_Unlock@?$basic_streambuf@DU?$char_traits@D@std@@@std@@UAEXXZ 0044104c     msvcprt:MSVCP110.dll
 0002:00000050       __imp_?_Lock@?$basic_streambuf@DU?$char_traits@D@std@@@std@@UAEXXZ 00441050     msvcprt:MSVCP110.dll
 0002:00000054       __imp_?_Add_vtordisp1@?$basic_ios@DU?$char_traits@D@std@@@std@@UAEXXZ 00441054     msvcprt:MSVCP110.dll
 0002:00000058       __imp_?setprecision@std@@YA?AU?$_Smanip@_J@1@_J@Z 00441058     msvcprt:MSVCP110.dll
 0002:0000005c       __imp_?flush@?$basic_ostream@DU?$char_traits@D@std@@@std@@QAEAAV12@XZ 0044105c     msvcprt:MSVCP110.dll
 0002:00000060       __imp_??6?$basic_ostream@DU?$char_traits@D@std@@@std@@QAEAAV01@N@Z 00441060     msvcprt:MSVCP110.dll
 0002:00000064       __imp_?xsgetn@?$basic_streambuf@DU?$char_traits@D@std@@@std@@MAE_JPAD_J@Z 00441064     msvcprt:MSVCP110.dll
 0002:00000068       __imp_?_Osfx@?$basic_ostream@DU?$char_traits@D@std@@@std@@QAEXXZ 00441068     msvcprt:MSVCP110.dll
 0002:0000006c       __imp_?uflow@?$basic_streambuf@DU?$char_traits@D@std@@@std@@MAEHXZ 0044106c     msvcprt:MSVCP110.dll
 0002:00000070       __imp_?showmanyc@?$basic_streambuf@DU?$char_traits@D@std@@@std@@MAE_JXZ 00441070     msvcprt:MSVCP110.dll
 0002:00000074       __imp_??1?$basic_ostream@DU?$char_traits@D@std@@@std@@UAE@XZ 00441074     msvcprt:MSVCP110.dll
 0002:00000078       __imp_??0?$basic_ostream@DU?$char_traits@D@std@@@std@@QAE@PAV?$basic_streambuf@DU?$char_traits@D@std@@@1@_N@Z 00441078     msvcprt:MSVCP110.dll
 0002:0000007c       __imp_??0?$basic_ios@DU?$char_traits@D@std@@@std@@IAE@XZ 0044107c     msvcprt:MSVCP110.dll
 0002:00000080       __imp_?fill@?$basic_ios@DU?$char_traits@D@std@@@std@@QBEDXZ 00441080     msvcprt:MSVCP110.dll
 0002:00000084       __imp_?rdbuf@?$basic_ios@DU?$char_traits@D@std@@@std@@QBEPAV?$basic_streambuf@DU?$char_traits@D@std@@@2@XZ 00441084     msvcprt:MSVCP110.dll
 0002:00000088       __imp_?tie@?$basic_ios@DU?$char_traits@D@std@@@std@@QBEPAV?$basic_ostream@DU?$char_traits@D@std@@@2@XZ 00441088     msvcprt:MSVCP110.dll
 0002:0000008c       __imp_?setstate@?$basic_ios@DU?$char_traits@D@std@@@std@@QAEXH_N@Z 0044108c     msvcprt:MSVCP110.dll
 0002:00000090       __imp_??1?$basic_ios@DU?$char_traits@D@std@@@std@@UAE@XZ 00441090     msvcprt:MSVCP110.dll
 0002:00000094       __imp_?_Pninc@?$basic_streambuf@DU?$char_traits@D@std@@@std@@IAEPADXZ 00441094     msvcprt:MSVCP110.dll
 0002:00000098       __imp_?setp@?$basic_streambuf@DU?$char_traits@D@std@@@std@@IAEXPAD00@Z 00441098     msvcprt:MSVCP110.dll
 0002:0000009c       __imp_?setp@?$basic_streambuf@DU?$char_traits@D@std@@@std@@IAEXPAD0@Z 0044109c     msvcprt:MSVCP110.dll
 0002:000000a0       __imp_?pbump@?$basic_streambuf@DU?$char_traits@D@std@@@std@@IAEXH@Z 004410a0     msvcprt:MSVCP110.dll
 0002:000000a4       __imp_?epptr@?$basic_streambuf@DU?$char_traits@D@std@@@std@@IBEPADXZ 004410a4     msvcprt:MSVCP110.dll
 0002:000000a8       __imp_?setg@?$basic_streambuf@DU?$char_traits@D@std@@@std@@IAEXPAD00@Z 004410a8     msvcprt:MSVCP110.dll
 0002:000000ac       __imp_?gbump@?$basic_streambuf@DU?$char_traits@D@std@@@std@@IAEXH@Z 004410ac     msvcprt:MSVCP110.dll
 0002:000000b0       __imp_?egptr@?$basic_streambuf@DU?$char_traits@D@std@@@std@@IBEPADXZ 004410b0     msvcprt:MSVCP110.dll
 0002:000000b4       __imp_?pptr@?$basic_streambuf@DU?$char_traits@D@std@@@std@@IBEPADXZ 004410b4     msvcprt:MSVCP110.dll
 0002:000000b8       __imp_?pbase@?$basic_streambuf@DU?$char_traits@D@std@@@std@@IBEPADXZ 004410b8     msvcprt:MSVCP110.dll
 0002:000000bc       __imp_?gptr@?$basic_streambuf@DU?$char_traits@D@std@@@std@@IBEPADXZ 004410bc     msvcprt:MSVCP110.dll
 0002:000000c0       __imp_?xsputn@?$basic_streambuf@DU?$char_traits@D@std@@@std@@MAE_JPBD_J@Z 004410c0     msvcprt:MSVCP110.dll
 0002:000000c4       __imp_?_BADOFF@std@@3_JB   004410c4     msvcprt:MSVCP110.dll
 0002:000000c8       __imp_??6?$basic_ostream@DU?$char_traits@D@std@@@std@@QAEAAV01@P6AAAVios_base@1@AAV21@@Z@Z 004410c8     msvcprt:MSVCP110.dll
 0002:000000cc       __imp_?_Add_vtordisp2@?$basic_ostream@DU?$char_traits@D@std@@@std@@UAEXXZ 004410cc     msvcprt:MSVCP110.dll
 0002:000000d0       __imp_?_Xbad_alloc@std@@YAXXZ 004410d0     msvcprt:MSVCP110.dll
 0002:000000d4       __imp_?_Xlength_error@std@@YAXPBD@Z 004410d4     msvcprt:MSVCP110.dll
 0002:000000d8       __imp_?_Xout_of_range@std@@YAXPBD@Z 004410d8     msvcprt:MSVCP110.dll
 0002:000000dc       __imp_??0id@locale@std@@QAE@I@Z 004410dc     msvcprt:MSVCP110.dll
 0002:000000e0       __imp_?_Syserror_map@std@@YAPBDH@Z 004410e0     msvcprt:MSVCP110.dll
 0002:000000e4       __imp_?_Winerror_map@std@@YAPBDH@Z 004410e4     msvcprt:MSVCP110.dll
 0002:000000e8       __imp_?_Orphan_all@_Container_base0@std@@QAEXXZ 004410e8     msvcprt:MSVCP110.dll
 0002:000000ec       __imp_?_Swap_all@_Container_base0@std@@QAEXAAU12@@Z 004410ec     msvcprt:MSVCP110.dll
 0002:000000f0       __imp_?uncaught_exception@std@@YA_NXZ 004410f0     msvcprt:MSVCP110.dll
 0002:000000f4       __imp_?good@ios_base@std@@QBE_NXZ 004410f4     msvcprt:MSVCP110.dll
 0002:000000f8       __imp_?flags@ios_base@std@@QBEHXZ 004410f8     msvcprt:MSVCP110.dll
 0002:000000fc       __imp_?setf@ios_base@std@@QAEHHH@Z 004410fc     msvcprt:MSVCP110.dll
 0002:00000100       __imp_?width@ios_base@std@@QBE_JXZ 00441100     msvcprt:MSVCP110.dll
 0002:00000104       __imp_?width@ios_base@std@@QAE_J_J@Z 00441104     msvcprt:MSVCP110.dll
 0002:00000108       __imp_??0?$basic_streambuf@DU?$char_traits@D@std@@@std@@IAE@XZ 00441108     msvcprt:MSVCP110.dll
 0002:0000010c       __imp_??1?$basic_streambuf@DU?$char_traits@D@std@@@std@@UAE@XZ 0044110c     msvcprt:MSVCP110.dll
 0002:00000110       __imp_?sputc@?$basic_streambuf@DU?$char_traits@D@std@@@std@@QAEHD@Z 00441110     msvcprt:MSVCP110.dll
 0002:00000114       __imp_?sputn@?$basic_streambuf@DU?$char_traits@D@std@@@std@@QAE_JPBD_J@Z 00441114     msvcprt:MSVCP110.dll
 0002:00000118       __imp_?eback@?$basic_streambuf@DU?$char_traits@D@std@@@std@@IBEPADXZ 00441118     msvcprt:MSVCP110.dll
 0002:0000011c       \177MSVCP110_NULL_THUNK_DATA 0044111c     msvcprt:MSVCP110.dll
 0002:00000120       __imp___unlock             00441120     MSVCRT:MSVCR110.dll
 0002:00000124       __imp___calloc_crt         00441124     MSVCRT:MSVCR110.dll
 0002:00000128       __imp____dllonexit         00441128     MSVCRT:MSVCR110.dll
 0002:0000012c       __imp___onexit             0044112c     MSVCRT:MSVCR110.dll
 0002:00000130       __imp_??1type_info@@UAE@XZ 00441130     MSVCRT:MSVCR110.dll
 0002:00000134       __imp___XcptFilter         00441134     MSVCRT:MSVCR110.dll
 0002:00000138       __imp____crtGetShowWindowMode 00441138     MSVCRT:MSVCR110.dll
 0002:0000013c       __imp___amsg_exit          0044113c     MSVCRT:MSVCR110.dll
 0002:00000140       __imp____getmainargs       00441140     MSVCRT:MSVCR110.dll
 0002:00000144       __imp____set_app_type      00441144     MSVCRT:MSVCR110.dll
 0002:00000148       __imp__exit                00441148     MSVCRT:MSVCR110.dll
 0002:0000014c       __imp___exit               0044114c     MSVCRT:MSVCR110.dll
 0002:00000150       __imp___cexit              00441150     MSVCRT:MSVCR110.dll
 0002:00000154       __imp___ismbblead          00441154     MSVCRT:MSVCR110.dll
 0002:00000158       __imp___configthreadlocale 00441158     MSVCRT:MSVCR110.dll
 0002:0000015c       __imp____setusermatherr    0044115c     MSVCRT:MSVCR110.dll
 0002:00000160       __imp___initterm_e         00441160     MSVCRT:MSVCR110.dll
 0002:00000164       __imp___initterm           00441164     MSVCRT:MSVCR110.dll
 0002:00000168       __imp__memset              00441168     MSVCRT:MSVCR110.dll
 0002:0000016c       __imp___acmdln             0044116c     MSVCRT:MSVCR110.dll
 0002:00000170       __imp___fmode              00441170     MSVCRT:MSVCR110.dll
 0002:00000174       __imp___commode            00441174     MSVCRT:MSVCR110.dll
 0002:00000178       __imp___except_handler4_common 00441178     MSVCRT:MSVCR110.dll
 0002:0000017c       __imp___crt_debugger_hook  0044117c     MSVCRT:MSVCR110.dll
 0002:00000180       __imp____crtUnhandledException 00441180     MSVCRT:MSVCR110.dll
 0002:00000184       __imp____crtTerminateProcess 00441184     MSVCRT:MSVCR110.dll
 0002:00000188       __imp_?terminate@@YAXXZ    00441188     MSVCRT:MSVCR110.dll
 0002:0000018c       __imp____crtSetUnhandledExceptionFilter 0044118c     MSVCRT:MSVCR110.dll
 0002:00000190       __imp___invoke_watson      00441190     MSVCRT:MSVCR110.dll
 0002:00000194       __imp___controlfp_s        00441194     MSVCRT:MSVCR110.dll
 0002:00000198       __imp___libm_sse2_cos_precise 00441198     MSVCRT:MSVCR110.dll
 0002:0000019c       __imp___libm_sse2_sin_precise 0044119c     MSVCRT:MSVCR110.dll
 0002:000001a0       __imp___libm_sse2_sqrt_precise 004411a0     MSVCRT:MSVCR110.dll
 0002:000001a4       __imp__floor               004411a4     MSVCRT:MSVCR110.dll
 0002:000001a8       __imp___lock               004411a8     MSVCRT:MSVCR110.dll
 0002:000001ac       __imp___purecall           004411ac     MSVCRT:MSVCR110.dll
 0002:000001b0       __imp_??2@YAPAXI@Z         004411b0     MSVCRT:MSVCR110.dll
 0002:000001b4       __imp_??3@YAXPAX@Z         004411b4     MSVCRT:MSVCR110.dll
 0002:000001b8       __imp__memmove             004411b8     MSVCRT:MSVCR110.dll
 0002:000001bc       __imp_??0exception@std@@QAE@ABQBD@Z 004411bc     MSVCRT:MSVCR110.dll
 0002:000001c0       __imp_??0exception@std@@QAE@ABV01@@Z 004411c0     MSVCRT:MSVCR110.dll
 0002:000001c4       __imp_??1exception@std@@UAE@XZ 004411c4     MSVCRT:MSVCR110.dll
 0002:000001c8       __imp___CxxThrowException@8 004411c8     MSVCRT:MSVCR110.dll
 0002:000001cc       __imp____CxxFrameHandler3  004411cc     MSVCRT:MSVCR110.dll
 0002:000001d0       __imp__memcpy              004411d0     MSVCRT:MSVCR110.dll
 0002:000001d4       __imp__strstr              004411d4     MSVCRT:MSVCR110.dll
 0002:000001d8       __imp__malloc              004411d8     MSVCRT:MSVCR110.dll
 0002:000001dc       __imp_??0exception@std@@QAE@ABQBDH@Z 004411dc     MSVCRT:MSVCR110.dll
 0002:000001e0       __imp_?what@exception@std@@UBEPBDXZ 004411e0     MSVCRT:MSVCR110.dll
 0002:000001e4       __imp__memcmp              004411e4     MSVCRT:MSVCR110.dll
 0002:000001e8       __imp__rand                004411e8     MSVCRT:MSVCR110.dll
 0002:000001ec       __imp__srand               004411ec     MSVCRT:MSVCR110.dll
 0002:000001f0       __imp__cos                 004411f0     MSVCRT:MSVCR110.dll
 0002:000001f4       __imp__sin                 004411f4     MSVCRT:MSVCR110.dll
 0002:000001f8       __imp_??_V@YAXPAX@Z        004411f8     MSVCRT:MSVCR110.dll
 0002:000001fc       __imp__fclose              004411fc     MSVCRT:MSVCR110.dll
 0002:00000200       __imp__fgetc               00441200     MSVCRT:MSVCR110.dll
 0002:00000204       __imp__fopen               00441204     MSVCRT:MSVCR110.dll
 0002:00000208       __imp__fread               00441208     MSVCRT:MSVCR110.dll
 0002:0000020c       __imp__fseek               0044120c     MSVCRT:MSVCR110.dll
 0002:00000210       __imp__vprintf             00441210     MSVCRT:MSVCR110.dll
 0002:00000214       __imp__free                00441214     MSVCRT:MSVCR110.dll
 0002:00000218       \177MSVCR110_NULL_THUNK_DATA 00441218     MSVCRT:MSVCR110.dll
 0002:0000021c       __imp__glColorPointer@16   0044121c     OpenGL32:OPENGL32.dll
 0002:00000220       __imp__glGenTextures@8     00441220     OpenGL32:OPENGL32.dll
 0002:00000224       __imp__glTexParameteri@12  00441224     OpenGL32:OPENGL32.dll
 0002:00000228       __imp__wglGetProcAddress@4 00441228     OpenGL32:OPENGL32.dll
 0002:0000022c       __imp__glClear@4           0044122c     OpenGL32:OPENGL32.dll
 0002:00000230       __imp__glClearColor@16     00441230     OpenGL32:OPENGL32.dll
 0002:00000234       __imp__glGetString@4       00441234     OpenGL32:OPENGL32.dll
 0002:00000238       __imp__wglUseFontBitmapsW@16 00441238     OpenGL32:OPENGL32.dll
 0002:0000023c       __imp__glCallLists@12      0044123c     OpenGL32:OPENGL32.dll
 0002:00000240       __imp__glListBase@4        00441240     OpenGL32:OPENGL32.dll
 0002:00000244       __imp__glPopMatrix@0       00441244     OpenGL32:OPENGL32.dll
 0002:00000248       __imp__glPushMatrix@0      00441248     OpenGL32:OPENGL32.dll
 0002:0000024c       __imp__glRasterPos2d@16    0044124c     OpenGL32:OPENGL32.dll
 0002:00000250       __imp__glEnable@4          00441250     OpenGL32:OPENGL32.dll
 0002:00000254       __imp__glEnableClientState@4 00441254     OpenGL32:OPENGL32.dll
 0002:00000258       __imp__glLoadIdentity@0    00441258     OpenGL32:OPENGL32.dll
 0002:0000025c       __imp__glMatrixMode@4      0044125c     OpenGL32:OPENGL32.dll
 0002:00000260       __imp__glOrtho@48          00441260     OpenGL32:OPENGL32.dll
 0002:00000264       __imp__glViewport@16       00441264     OpenGL32:OPENGL32.dll
 0002:00000268       __imp__glVertexPointer@16  00441268     OpenGL32:OPENGL32.dll
 0002:0000026c       __imp__glTexCoordPointer@16 0044126c     OpenGL32:OPENGL32.dll
 0002:00000270       __imp__glDrawArrays@12     00441270     OpenGL32:OPENGL32.dll
 0002:00000274       __imp__glBindTexture@8     00441274     OpenGL32:OPENGL32.dll
 0002:00000278       __imp__wglMakeCurrent@8    00441278     OpenGL32:OPENGL32.dll
 0002:0000027c       __imp__wglDeleteContext@4  0044127c     OpenGL32:OPENGL32.dll
 0002:00000280       __imp__wglCreateContext@4  00441280     OpenGL32:OPENGL32.dll
 0002:00000284       \177OPENGL32_NULL_THUNK_DATA 00441284     OpenGL32:OPENGL32.dll
 0002:00000288       __imp__WindowFromDC@4      00441288     user32:USER32.dll
 0002:0000028c       __imp__GetMessageW@16      0044128c     user32:USER32.dll
 0002:00000290       __imp__TranslateMessage@4  00441290     user32:USER32.dll
 0002:00000294       __imp__DispatchMessageW@4  00441294     user32:USER32.dll
 0002:00000298       __imp__PeekMessageW@20     00441298     user32:USER32.dll
 0002:0000029c       __imp__DefWindowProcW@16   0044129c     user32:USER32.dll
 0002:000002a0       __imp__PostQuitMessage@4   004412a0     user32:USER32.dll
 0002:000002a4       __imp__RegisterClassExW@4  004412a4     user32:USER32.dll
 0002:000002a8       __imp__CreateWindowExW@48  004412a8     user32:USER32.dll
 0002:000002ac       __imp__ShowWindow@8        004412ac     user32:USER32.dll
 0002:000002b0       __imp__UpdateWindow@4      004412b0     user32:USER32.dll
 0002:000002b4       __imp__GetDC@4             004412b4     user32:USER32.dll
 0002:000002b8       __imp__AdjustWindowRectEx@16 004412b8     user32:USER32.dll
 0002:000002bc       __imp__LoadCursorW@8       004412bc     user32:USER32.dll
 0002:000002c0       __imp__LoadIconW@8         004412c0     user32:USER32.dll
 0002:000002c4       __imp__GetKeyState@4       004412c4     user32:USER32.dll
 0002:000002c8       __imp__GetCursorPos@4      004412c8     user32:USER32.dll
 0002:000002cc       __imp__ScreenToClient@8    004412cc     user32:USER32.dll
 0002:000002d0       \177USER32_NULL_THUNK_DATA 004412d0     user32:USER32.dll
 0002:000002d4       ___xc_a                    004412d4     MSVCRT:cinitexe.obj
 0002:00000368       ___xc_z                    00441368     MSVCRT:cinitexe.obj
 0002:0000036c       ___xi_a                    0044136c     MSVCRT:cinitexe.obj
 0002:0000037c       ___xi_z                    0044137c     MSVCRT:cinitexe.obj
 0002:000003bc       ??_7error_category@std@@6B@ 004413bc     ContentManager.obj
 0002:000003d8       ??_7_Generic_error_category@std@@6B@ 004413d8     ContentManager.obj
 0002:000003f4       ??_7_Iostream_error_category@std@@6B@ 004413f4     ContentManager.obj
 0002:00000410       ??_7_System_error_category@std@@6B@ 00441410     ContentManager.obj
 0002:0000042c       ??_7ContentManager@@6B@    0044142c     ContentManager.obj
 0002:00000430       ??_C@_0CL@DEBDIPIP@Cannot?5initialize?5SmartHandle?5wi@ 00441430     ContentManager.obj
 0002:0000045c       ??_C@_0BP@NOBAHIJL@Attempted?5to?5de?9reference?5NULL?$AA@ 0044145c     ContentManager.obj
 0002:00000480       ??_C@_0FO@BEDMKMLI@SmartHandle?5is?5on?5the?5managed?5he@ 00441480     ContentManager.obj
 0002:000004e0       ??_C@_0FG@DFMALCKD@Start?5of?5heap?5reached?5without?5co@ 004414e0     ContentManager.obj
 0002:00000538       ??_C@_0CH@LNHFGCOM@Cannot?5register?5NULL?5pointer?5as?5@ 00441538     ContentManager.obj
 0002:00000560       ??_C@_0DE@EGGLGHNJ@Cannot?5insert?5handle?5into?5the?5li@ 00441560     ContentManager.obj
 0002:00000598       ??_7bad_alloc@std@@6B@     00441598     Demo.obj
 0002:000005a4       ??_7b2Shape@@6B@           004415a4     Demo.obj
 0002:000005c4       ??_7b2PolygonShape@@6B@    004415c4     Demo.obj
 0002:000005e4       ??_7b2QueryCallback@@6B@   004415e4     Demo.obj
 0002:000005f0       ??_7Demo@@6B@              004415f0     Demo.obj
 0002:00000608       ??_7QueryCallback@@6B@     00441608     Demo.obj
 0002:00000610       ??_C@_0BF@NPDKPIKE@WGL_EXT_swap_control?$AA@ 00441610     Demo.obj
 0002:00000628       ??_C@_0BD@IINOPBDD@wglSwapIntervalEXT?$AA@ 00441628     Demo.obj
 0002:00000640       ??_7?$Unmanaged_Array@V?$SmartHandle@VGameObject@@@@@@6B@ 00441640     Demo.obj
 0002:00000648       ??_7?$Handle_Array@VGameObject@@@@6B@ 00441648     Demo.obj
 0002:00000650       ??_7?$Unmanaged_Array@V?$SmartHandle@VDemoButton@@@@@@6B@ 00441650     Demo.obj
 0002:00000658       ??_7?$Handle_Array@VDemoButton@@@@6B@ 00441658     Demo.obj
 0002:0000065c       ??_C@_0L@DFIKOADC@BoxTex?4tga?$AA@ 0044165c     Demo.obj
 0002:00000668       ??_C@_0BA@GGAGOEBA@BoundaryTex?4tga?$AA@ 00441668     Demo.obj
 0002:00000678       ??_C@_0BI@BMAJBDKF@SpawnButtonReleased?4tga?$AA@ 00441678     Demo.obj
 0002:00000690       ??_C@_0BH@BIPLJAPP@SpawnButtonPressed?4tga?$AA@ 00441690     Demo.obj
 0002:000006a8       ??_C@_0BK@KKMODHFO@DestroyButtonReleased?4tga?$AA@ 004416a8     Demo.obj
 0002:000006c4       ??_C@_0BJ@LJPCFGMA@DestroyButtonPressed?4tga?$AA@ 004416c4     Demo.obj
 0002:000006e0       ??_C@_0DG@HMAHFIFC@Cannot?5use?5subscript?5operator?5on@ 004416e0     Demo.obj
 0002:00000718       ??_C@_0CK@JAKMFKO@Handle?5not?5referencing?5an?5Unmana@ 00441718     Demo.obj
 0002:00000744       ??_C@_0CB@EDNFFFJC@Array?5length?5may?5not?5be?5negative@ 00441744     Demo.obj
 0002:00000768       ??_C@_0EA@ENOOIJFD@Error?3?5alignment?5requirements?5of@ 00441768     Demo.obj
 0002:000007a8       __real@3d855326            004417a8     Demo.obj
 0002:000007ac       __real@3e99999a            004417ac     Demo.obj
 0002:000007b0       __real@3ec7ae14            004417b0     Demo.obj
 0002:000007b4       __real@3f147ae1            004417b4     Demo.obj
 0002:000007b8       __real@3f333333            004417b8     Demo.obj
 0002:000007bc       __real@3f6e147b            004417bc     Demo.obj
 0002:000007c0       __real@406f400000000000    004417c0     Demo.obj
 0002:000007c8       __real@4075e00000000000    004417c8     Demo.obj
 0002:000007d0       __real@40a00000            004417d0     Demo.obj
 0002:000007d4       __real@41200000            004417d4     Demo.obj
 0002:000007d8       __real@4175c28f            004417d8     Demo.obj
 0002:000007dc       __real@41a00000            004417dc     Demo.obj
 0002:000007e0       __real@41c80000            004417e0     Demo.obj
 0002:000007e4       __real@42480000            004417e4     Demo.obj
 0002:000007e8       __real@43020000            004417e8     Demo.obj
 0002:000007ec       __real@c2960000            004417ec     Demo.obj
 0002:000007f4       ??_7DemoButton@@6B@        004417f4     DemoButton.obj
 0002:00000804       ??_7b2ContactListener@@6B@ 00441804     DemoContactListener.obj
 0002:0000081c       ??_7DemoContactListener@@6B@ 0044181c     DemoContactListener.obj
 0002:00000830       __real@bf000000            00441830     DemoContactListener.obj
 0002:00000834       ??_C@_09HFKGELHH@FrameRate?$AA@ 00441834     DemoDebugInfo.obj
 0002:00000844       ??_7?$basic_stringbuf@DU?$char_traits@D@std@@V?$allocator@D@2@@std@@6B@ 00441844     DemoDebugInfo.obj
 0002:00000884       ??_7?$basic_ostringstream@DU?$char_traits@D@std@@V?$allocator@D@2@@std@@6B@ 00441884     DemoDebugInfo.obj
 0002:00000890       ??_8?$basic_ostringstream@DU?$char_traits@D@std@@V?$allocator@D@2@@std@@7B@ 00441890     DemoDebugInfo.obj
 0002:00000898       ??_C@_00CNPNBAHC@?$AA@     00441898     DemoDebugInfo.obj
 0002:0000089c       ??_C@_02LMMGGCAJ@?3?5?$AA@ 0044189c     DemoDebugInfo.obj
 0002:000008a0       ??_C@_0BM@PAPJHAGI@invalid?5map?1set?$DMT?$DO?5iterator?$AA@ 004418a0     DemoDebugInfo.obj
 0002:000008bc       ??_C@_0BE@JONHPENG@map?1set?$DMT?$DO?5too?5long?$AA@ 004418bc     DemoDebugInfo.obj
 0002:000008d0       __real@0000000000000000    004418d0     DemoDebugInfo.obj
 0002:000008d8       __real@404e000000000000    004418d8     DemoDebugInfo.obj
 0002:000008e0       __real@40e0000000000000    004418e0     DemoRand.obj
 0002:000008ec       ??_7Game@@6B@              004418ec     Game.obj
 0002:00000900       __real@4000000000000000    00441900     Game.obj
 0002:0000090c       ??_7GameObject@@6B@        0044190c     GameObject.obj
 0002:00000914       ??_7InputManager@@6B@      00441914     InputManager.obj
 0002:0000091c       ??_C@_1BA@MPNEINDP@?$AAG?$AAL?$AAC?$AAl?$AAa?$AAs?$AAs?$AA?$AA@ 0044191c     ManagedDemo.obj
 0002:0000092c       ??_C@_1BO@FAKOHAIE@?$AAU?$AAn?$AAm?$AAa?$AAn?$AAa?$AAg?$AAe?$AAd?$AA?5?$AAD?$AAe?$AAm?$AAo?$AA?$AA@ 0044192c     ManagedDemo.obj
 0002:00000950       ??_7PushButton@@6B@        00441950     PushButton.obj
 0002:00000960       ??_7SpriteBatch@@6B@       00441960     SpriteBatch.obj
 0002:00000968       ??_7Texture2D@@6B@         00441968     Texture2D.obj
 0002:0000096c       ??_C@_02JDPG@rb?$AA@       0044196c     Texture2D.obj
 0002:00000974       ??_7ToggleButton@@6B@      00441974     ToggleButton.obj
 0002:00000984       ??_7WindowsInputManager@@6B@ 00441984     WindowsInputManager.obj
 0002:00000990       ??_7type_info@@6B@         00441990     MSVCRT:ti_inst.obj
 0002:0000099c       ?ProcessDetach@NativeDll@<CrtImplementationDetails>@@0IB 0044199c     MSVCRT:unhandld.obj
 0002:000009a0       ?ProcessAttach@NativeDll@<CrtImplementationDetails>@@0IB 004419a0     MSVCRT:unhandld.obj
 0002:000009a4       ?ThreadAttach@NativeDll@<CrtImplementationDetails>@@0IB 004419a4     MSVCRT:unhandld.obj
 0002:000009a8       ?ThreadDetach@NativeDll@<CrtImplementationDetails>@@0IB 004419a8     MSVCRT:unhandld.obj
 0002:000009ac       ?ProcessVerifier@NativeDll@<CrtImplementationDetails>@@0IB 004419ac     MSVCRT:unhandld.obj
 0002:000009b0       ?digits@?$numeric_limits@_J@std@@2HB 004419b0     Box2D:b2PolygonShape.obj
 0002:000009b4       ?max_digits10@?$numeric_limits@_N@std@@2HB 004419b4     Box2D:b2PolygonShape.obj
 0002:000009b8       ?digits10@?$numeric_limits@K@std@@2HB 004419b8     Box2D:b2PolygonShape.obj
 0002:000009bc       ?is_bounded@_Num_float_base@std@@2_NB 004419bc     Box2D:b2PolygonShape.obj
 0002:000009bd       ?is_bounded@_Num_int_base@std@@2_NB 004419bd     Box2D:b2PolygonShape.obj
 0002:000009c0       ?min_exponent@?$numeric_limits@O@std@@2HB 004419c0     Box2D:b2PolygonShape.obj
 0002:000009c4       ?max_digits10@?$numeric_limits@E@std@@2HB 004419c4     Box2D:b2PolygonShape.obj
 0002:000009c8       ?is_integer@_Num_float_base@std@@2_NB 004419c8     Box2D:b2PolygonShape.obj
 0002:000009cc       ?digits@?$numeric_limits@H@std@@2HB 004419cc     Box2D:b2PolygonShape.obj
 0002:000009d0       ?traps@_Num_base@std@@2_NB 004419d0     Box2D:b2PolygonShape.obj
 0002:000009d1       ?value@?$integral_constant@_N$00@std@@2_NB 004419d1     Box2D:b2PolygonShape.obj
 0002:000009d2       ?is_specialized@_Num_base@std@@2_NB 004419d2     Box2D:b2PolygonShape.obj
 0002:000009d4       ?max_exponent10@?$numeric_limits@M@std@@2HB 004419d4     Box2D:b2PolygonShape.obj
 0002:000009d8       ?digits@_Num_base@std@@2HB 004419d8     Box2D:b2PolygonShape.obj
 0002:000009dc       ?is_modulo@_Num_base@std@@2_NB 004419dc     Box2D:b2PolygonShape.obj
 0002:000009dd       ?has_infinity@_Num_float_base@std@@2_NB 004419dd     Box2D:b2PolygonShape.obj
 0002:000009e0       ?max_exponent@_Num_base@std@@2HB 004419e0     Box2D:b2PolygonShape.obj
 0002:000009e4       ?is_signed@?$numeric_limits@_J@std@@2_NB 004419e4     Box2D:b2PolygonShape.obj
 0002:000009e8       ?round_style@_Num_base@std@@2W4float_round_style@2@B 004419e8     Box2D:b2PolygonShape.obj
 0002:000009ec       ?is_signed@?$numeric_limits@K@std@@2_NB 004419ec     Box2D:b2PolygonShape.obj
 0002:000009f0       ?digits10@?$numeric_limits@N@std@@2HB 004419f0     Box2D:b2PolygonShape.obj
 0002:000009f4       ?is_exact@_Num_base@std@@2_NB 004419f4     Box2D:b2PolygonShape.obj
 0002:000009f8       ?value@?$_Sizeof@U_Nil@std@@U12@U12@U12@U12@U12@U12@U12@@std@@2IB 004419f8     Box2D:b2PolygonShape.obj
 0002:000009fc       ?digits10@?$numeric_limits@O@std@@2HB 004419fc     Box2D:b2PolygonShape.obj
 0002:00000a00       ?digits@?$numeric_limits@D@std@@2HB 00441a00     Box2D:b2PolygonShape.obj
 0002:00000a04       ?max_digits10@?$numeric_limits@K@std@@2HB 00441a04     Box2D:b2PolygonShape.obj
 0002:00000a08       ?digits@?$numeric_limits@M@std@@2HB 00441a08     Box2D:b2PolygonShape.obj
 0002:00000a0c       ?has_denorm@_Num_base@std@@2W4float_denorm_style@2@B 00441a0c     Box2D:b2PolygonShape.obj
 0002:00000a10       ?digits@?$numeric_limits@K@std@@2HB 00441a10     Box2D:b2PolygonShape.obj
 0002:00000a14       ?is_specialized@_Num_float_base@std@@2_NB 00441a14     Box2D:b2PolygonShape.obj
 0002:00000a18       ?max_digits10@?$numeric_limits@D@std@@2HB 00441a18     Box2D:b2PolygonShape.obj
 0002:00000a1c       ?max_exponent@?$numeric_limits@O@std@@2HB 00441a1c     Box2D:b2PolygonShape.obj
 0002:00000a20       ?digits10@?$numeric_limits@_J@std@@2HB 00441a20     Box2D:b2PolygonShape.obj
 0002:00000a24       ?is_signed@?$numeric_limits@G@std@@2_NB 00441a24     Box2D:b2PolygonShape.obj
 0002:00000a28       ?digits10@?$numeric_limits@J@std@@2HB 00441a28     Box2D:b2PolygonShape.obj
 0002:00000a2c       ?has_quiet_NaN@_Num_float_base@std@@2_NB 00441a2c     Box2D:b2PolygonShape.obj
 0002:00000a2d       ?is_signed@?$numeric_limits@I@std@@2_NB 00441a2d     Box2D:b2PolygonShape.obj
 0002:00000a2e       ?is_signed@_Num_float_base@std@@2_NB 00441a2e     Box2D:b2PolygonShape.obj
 0002:00000a30       ?digits10@_Num_base@std@@2HB 00441a30     Box2D:b2PolygonShape.obj
 0002:00000a34       ?max_digits10@?$numeric_limits@H@std@@2HB 00441a34     Box2D:b2PolygonShape.obj
 0002:00000a38       ?is_signed@?$numeric_limits@D@std@@2_NB 00441a38     Box2D:b2PolygonShape.obj
 0002:00000a3c       ?max_digits10@?$numeric_limits@F@std@@2HB 00441a3c     Box2D:b2PolygonShape.obj
 0002:00000a40       ?has_denorm_loss@_Num_float_base@std@@2_NB 00441a40     Box2D:b2PolygonShape.obj
 0002:00000a44       ?has_denorm@_Num_float_base@std@@2W4float_denorm_style@2@B 00441a44     Box2D:b2PolygonShape.obj
 0002:00000a48       ?max_digits10@?$numeric_limits@J@std@@2HB 00441a48     Box2D:b2PolygonShape.obj
 0002:00000a4c       ?is_signed@?$numeric_limits@J@std@@2_NB 00441a4c     Box2D:b2PolygonShape.obj
 0002:00000a50       ?digits@?$numeric_limits@G@std@@2HB 00441a50     Box2D:b2PolygonShape.obj
 0002:00000a54       ?is_signed@_Num_base@std@@2_NB 00441a54     Box2D:b2PolygonShape.obj
 0002:00000a58       ?max_exponent10@?$numeric_limits@O@std@@2HB 00441a58     Box2D:b2PolygonShape.obj
 0002:00000a5c       ?digits10@?$numeric_limits@H@std@@2HB 00441a5c     Box2D:b2PolygonShape.obj
 0002:00000a60       ?is_signed@?$numeric_limits@_W@std@@2_NB 00441a60     Box2D:b2PolygonShape.obj
 0002:00000a61       ?is_modulo@_Num_float_base@std@@2_NB 00441a61     Box2D:b2PolygonShape.obj
 0002:00000a62       ?is_bounded@_Num_base@std@@2_NB 00441a62     Box2D:b2PolygonShape.obj
 0002:00000a64       ?max_digits10@?$numeric_limits@C@std@@2HB 00441a64     Box2D:b2PolygonShape.obj
 0002:00000a68       ?has_signaling_NaN@_Num_base@std@@2_NB 00441a68     Box2D:b2PolygonShape.obj
 0002:00000a6c       ?digits@?$numeric_limits@J@std@@2HB 00441a6c     Box2D:b2PolygonShape.obj
 0002:00000a70       ?is_exact@_Num_float_base@std@@2_NB 00441a70     Box2D:b2PolygonShape.obj
 0002:00000a74       ?max_exponent10@_Num_base@std@@2HB 00441a74     Box2D:b2PolygonShape.obj
 0002:00000a78       ?min_exponent10@?$numeric_limits@N@std@@2HB 00441a78     Box2D:b2PolygonShape.obj
 0002:00000a7c       ?digits10@?$numeric_limits@C@std@@2HB 00441a7c     Box2D:b2PolygonShape.obj
 0002:00000a80       ?value@?$integral_constant@_N$0A@@std@@2_NB 00441a80     Box2D:b2PolygonShape.obj
 0002:00000a84       ?digits10@?$numeric_limits@I@std@@2HB 00441a84     Box2D:b2PolygonShape.obj
 0002:00000a88       ?digits10@?$numeric_limits@_W@std@@2HB 00441a88     Box2D:b2PolygonShape.obj
 0002:00000a8c       ?radix@_Num_float_base@std@@2HB 00441a8c     Box2D:b2PolygonShape.obj
 0002:00000a90       ?max_digits10@?$numeric_limits@_W@std@@2HB 00441a90     Box2D:b2PolygonShape.obj
 0002:00000a94       ?has_denorm_loss@_Num_base@std@@2_NB 00441a94     Box2D:b2PolygonShape.obj
 0002:00000a98       ?min_exponent10@?$numeric_limits@M@std@@2HB 00441a98     Box2D:b2PolygonShape.obj
 0002:00000a9c       ?min_exponent@?$numeric_limits@N@std@@2HB 00441a9c     Box2D:b2PolygonShape.obj
 0002:00000aa0       ?is_iec559@_Num_float_base@std@@2_NB 00441aa0     Box2D:b2PolygonShape.obj
 0002:00000aa4       ?min_exponent@?$numeric_limits@M@std@@2HB 00441aa4     Box2D:b2PolygonShape.obj
 0002:00000aa8       ?tinyness_before@_Num_base@std@@2_NB 00441aa8     Box2D:b2PolygonShape.obj
 0002:00000aac       ?max_digits10@_Num_base@std@@2HB 00441aac     Box2D:b2PolygonShape.obj
 0002:00000ab0       ?digits10@?$numeric_limits@D@std@@2HB 00441ab0     Box2D:b2PolygonShape.obj
 0002:00000ab4       ?is_specialized@_Num_int_base@std@@2_NB 00441ab4     Box2D:b2PolygonShape.obj
 0002:00000ab5       ?has_infinity@_Num_base@std@@2_NB 00441ab5     Box2D:b2PolygonShape.obj
 0002:00000ab6       ?is_signed@?$numeric_limits@_K@std@@2_NB 00441ab6     Box2D:b2PolygonShape.obj
 0002:00000ab8       ?max_exponent@?$numeric_limits@M@std@@2HB 00441ab8     Box2D:b2PolygonShape.obj
 0002:00000abc       ?digits10@?$numeric_limits@_K@std@@2HB 00441abc     Box2D:b2PolygonShape.obj
 0002:00000ac0       ?is_signed@?$numeric_limits@C@std@@2_NB 00441ac0     Box2D:b2PolygonShape.obj
 0002:00000ac4       ?digits10@?$numeric_limits@M@std@@2HB 00441ac4     Box2D:b2PolygonShape.obj
 0002:00000ac8       ?digits@?$numeric_limits@_K@std@@2HB 00441ac8     Box2D:b2PolygonShape.obj
 0002:00000acc       ?tinyness_before@_Num_float_base@std@@2_NB 00441acc     Box2D:b2PolygonShape.obj
 0002:00000acd       ?is_modulo@_Num_int_base@std@@2_NB 00441acd     Box2D:b2PolygonShape.obj
 0002:00000ace       ?is_signed@?$numeric_limits@F@std@@2_NB 00441ace     Box2D:b2PolygonShape.obj
 0002:00000ad0       ?digits@?$numeric_limits@O@std@@2HB 00441ad0     Box2D:b2PolygonShape.obj
 0002:00000ad4       ?max_digits10@?$numeric_limits@G@std@@2HB 00441ad4     Box2D:b2PolygonShape.obj
 0002:00000ad8       ?digits@?$numeric_limits@_W@std@@2HB 00441ad8     Box2D:b2PolygonShape.obj
 0002:00000adc       ?radix@_Num_int_base@std@@2HB 00441adc     Box2D:b2PolygonShape.obj
 0002:00000ae0       ?max_digits10@?$numeric_limits@O@std@@2HB 00441ae0     Box2D:b2PolygonShape.obj
 0002:00000ae4       ?max_exponent@?$numeric_limits@N@std@@2HB 00441ae4     Box2D:b2PolygonShape.obj
 0002:00000ae8       ?is_integer@_Num_base@std@@2_NB 00441ae8     Box2D:b2PolygonShape.obj
 0002:00000aec       ?max_exponent10@?$numeric_limits@N@std@@2HB 00441aec     Box2D:b2PolygonShape.obj
 0002:00000af0       ?is_modulo@?$numeric_limits@_N@std@@2_NB 00441af0     Box2D:b2PolygonShape.obj
 0002:00000af4       ?digits@?$numeric_limits@C@std@@2HB 00441af4     Box2D:b2PolygonShape.obj
 0002:00000af8       ?is_exact@_Num_int_base@std@@2_NB 00441af8     Box2D:b2PolygonShape.obj
 0002:00000afc       ?max_digits10@?$numeric_limits@_J@std@@2HB 00441afc     Box2D:b2PolygonShape.obj
 0002:00000b00       ?min_exponent@_Num_base@std@@2HB 00441b00     Box2D:b2PolygonShape.obj
 0002:00000b04       ?digits@?$numeric_limits@E@std@@2HB 00441b04     Box2D:b2PolygonShape.obj
 0002:00000b08       ?min_exponent10@_Num_base@std@@2HB 00441b08     Box2D:b2PolygonShape.obj
 0002:00000b0c       ?digits@?$numeric_limits@I@std@@2HB 00441b0c     Box2D:b2PolygonShape.obj
 0002:00000b10       ?digits@?$numeric_limits@N@std@@2HB 00441b10     Box2D:b2PolygonShape.obj
 0002:00000b14       ?max_digits10@?$numeric_limits@_K@std@@2HB 00441b14     Box2D:b2PolygonShape.obj
 0002:00000b18       ?has_signaling_NaN@_Num_float_base@std@@2_NB 00441b18     Box2D:b2PolygonShape.obj
 0002:00000b1c       ?round_style@_Num_float_base@std@@2W4float_round_style@2@B 00441b1c     Box2D:b2PolygonShape.obj
 0002:00000b20       ?max_digits10@?$numeric_limits@N@std@@2HB 00441b20     Box2D:b2PolygonShape.obj
 0002:00000b24       ?traps@_Num_float_base@std@@2_NB 00441b24     Box2D:b2PolygonShape.obj
 0002:00000b28       ?radix@_Num_base@std@@2HB  00441b28     Box2D:b2PolygonShape.obj
 0002:00000b2c       ?digits10@?$numeric_limits@F@std@@2HB 00441b2c     Box2D:b2PolygonShape.obj
 0002:00000b30       ?is_signed@?$numeric_limits@_N@std@@2_NB 00441b30     Box2D:b2PolygonShape.obj
 0002:00000b31       ?is_integer@_Num_int_base@std@@2_NB 00441b31     Box2D:b2PolygonShape.obj
 0002:00000b34       ?digits@?$numeric_limits@_N@std@@2HB 00441b34     Box2D:b2PolygonShape.obj
 0002:00000b38       ?digits10@?$numeric_limits@_N@std@@2HB 00441b38     Box2D:b2PolygonShape.obj
 0002:00000b3c       ?digits10@?$numeric_limits@G@std@@2HB 00441b3c     Box2D:b2PolygonShape.obj
 0002:00000b40       ?is_signed@?$numeric_limits@E@std@@2_NB 00441b40     Box2D:b2PolygonShape.obj
 0002:00000b44       ?min_exponent10@?$numeric_limits@O@std@@2HB 00441b44     Box2D:b2PolygonShape.obj
 0002:00000b48       ?max_digits10@?$numeric_limits@I@std@@2HB 00441b48     Box2D:b2PolygonShape.obj
 0002:00000b4c       ?is_signed@?$numeric_limits@H@std@@2_NB 00441b4c     Box2D:b2PolygonShape.obj
 0002:00000b4d       ?has_quiet_NaN@_Num_base@std@@2_NB 00441b4d     Box2D:b2PolygonShape.obj
 0002:00000b50       ?digits@?$numeric_limits@F@std@@2HB 00441b50     Box2D:b2PolygonShape.obj
 0002:00000b54       ?digits10@?$numeric_limits@E@std@@2HB 00441b54     Box2D:b2PolygonShape.obj
 0002:00000b58       ?is_iec559@_Num_base@std@@2_NB 00441b58     Box2D:b2PolygonShape.obj
 0002:00000b5c       ?max_digits10@?$numeric_limits@M@std@@2HB 00441b5c     Box2D:b2PolygonShape.obj
 0002:00000b60       ??_C@_02KCPFEJNG@?$HL?6?$AA@ 00441b60     Box2D:b2Body.obj
 0002:00000b64       ??_C@_0BB@LDBCIJGA@?5?5b2BodyDef?5bd?$DL?6?$AA@ 00441b64     Box2D:b2Body.obj
 0002:00000b78       ??_C@_0BN@COENEAPD@?5?5bd?4type?5?$DN?5b2BodyType?$CI?$CFd?$CJ?$DL?6?$AA@ 00441b78     Box2D:b2Body.obj
 0002:00000b98       ??_C@_0CG@GJJLANNP@?5?5bd?4position?4Set?$CI?$CF?415lef?0?5?$CF?415l@ 00441b98     Box2D:b2Body.obj
 0002:00000bc0       ??_C@_0BH@KPOKDIKJ@?5?5bd?4angle?5?$DN?5?$CF?415lef?$DL?6?$AA@ 00441bc0     Box2D:b2Body.obj
 0002:00000bd8       ??_C@_0CM@HPJAMAFK@?5?5bd?4linearVelocity?4Set?$CI?$CF?415lef?0@ 00441bd8     Box2D:b2Body.obj
 0002:00000c04       ??_C@_0CB@GLBHEBOL@?5?5bd?4angularVelocity?5?$DN?5?$CF?415lef?$DL?6@ 00441c04     Box2D:b2Body.obj
 0002:00000c28       ??_C@_0BP@JIINOPNF@?5?5bd?4linearDamping?5?$DN?5?$CF?415lef?$DL?6?$AA@ 00441c28     Box2D:b2Body.obj
 0002:00000c48       ??_C@_0CA@MODKLCHG@?5?5bd?4angularDamping?5?$DN?5?$CF?415lef?$DL?6?$AA@ 00441c48     Box2D:b2Body.obj
 0002:00000c68       ??_C@_0BN@MCOHCPF@?5?5bd?4allowSleep?5?$DN?5bool?$CI?$CFd?$CJ?$DL?6?$AA@ 00441c68     Box2D:b2Body.obj
 0002:00000c88       ??_C@_0BI@LNLABIFI@?5?5bd?4awake?5?$DN?5bool?$CI?$CFd?$CJ?$DL?6?$AA@ 00441c88     Box2D:b2Body.obj
 0002:00000ca0       ??_C@_0CA@GGKMKPLM@?5?5bd?4fixedRotation?5?$DN?5bool?$CI?$CFd?$CJ?$DL?6?$AA@ 00441ca0     Box2D:b2Body.obj
 0002:00000cc0       ??_C@_0BJ@OINPNCPF@?5?5bd?4bullet?5?$DN?5bool?$CI?$CFd?$CJ?$DL?6?$AA@ 00441cc0     Box2D:b2Body.obj
 0002:00000cdc       ??_C@_0BJ@DGMCHPHF@?5?5bd?4active?5?$DN?5bool?$CI?$CFd?$CJ?$DL?6?$AA@ 00441cdc     Box2D:b2Body.obj
 0002:00000cf8       ??_C@_0BO@IBEMOJJN@?5?5bd?4gravityScale?5?$DN?5?$CF?415lef?$DL?6?$AA@ 00441cf8     Box2D:b2Body.obj
 0002:00000d18       ??_C@_0CK@HKNEJJEE@?5?5bodies?$FL?$CFd?$FN?5?$DN?5m_world?9?$DOCreateBo@ 00441d18     Box2D:b2Body.obj
 0002:00000d44       ??_C@_01EEMJAFIK@?6?$AA@   00441d44     Box2D:b2Body.obj
 0002:00000d48       ??_C@_04PKGFOHOD@?5?5?$HL?6?$AA@ 00441d48     Box2D:b2Body.obj
 0002:00000d50       ??_C@_04POOIJLFB@?5?5?$HN?6?$AA@ 00441d50     Box2D:b2Body.obj
 0002:00000d58       ??_C@_02KGHIDFGE@?$HN?6?$AA@ 00441d58     Box2D:b2Body.obj
 0002:00000d5c       ?value@?$integral_constant@I$0A@@std@@2IB 00441d5c     Box2D:b2Body.obj
 0002:00000d60       ?value@?$_Sizeof@HU_Nil@std@@U12@U12@U12@U12@U12@U12@@std@@2IB 00441d60     Box2D:b2Body.obj
 0002:00000d64       ??_C@_0BN@KMBDAFOJ@b2Vec2?5g?$CI?$CF?415lef?0?5?$CF?415lef?$CJ?$DL?6?$AA@ 00441d64     Box2D:b2World.obj
 0002:00000d84       ??_C@_0BJ@DAKCNIDJ@m_world?9?$DOSetGravity?$CIg?$CJ?$DL?6?$AA@ 00441d84     Box2D:b2World.obj
 0002:00000da0       ??_C@_0DM@MFDKAGDP@b2Body?$CK?$CK?5bodies?5?$DN?5?$CIb2Body?$CK?$CK?$CJb2Al@ 00441da0     Box2D:b2World.obj
 0002:00000ddc       ??_C@_0DP@MAMAHJHC@b2Joint?$CK?$CK?5joints?5?$DN?5?$CIb2Joint?$CK?$CK?$CJb2@ 00441ddc     Box2D:b2World.obj
 0002:00000e1c       ??_C@_0BB@OLBLOMMI@b2Free?$CIjoints?$CJ?$DL?6?$AA@ 00441e1c     Box2D:b2World.obj
 0002:00000e30       ??_C@_0BB@GOOEFGFN@b2Free?$CIbodies?$CJ?$DL?6?$AA@ 00441e30     Box2D:b2World.obj
 0002:00000e44       ??_C@_0BA@OBCAEMNE@joints?5?$DN?5NULL?$DL?6?$AA@ 00441e44     Box2D:b2World.obj
 0002:00000e54       ??_C@_0BA@MPAHAEAL@bodies?5?$DN?5NULL?$DL?6?$AA@ 00441e54     Box2D:b2World.obj
 0002:00000e64       ??_C@_0CP@GPDMFOHO@?1?1?5Dump?5is?5not?5supported?5for?5thi@ 00441e64     Box2D:b2MouseJoint.obj
 0002:00000e94       ??_C@_0CH@NGDFGAKA@Mouse?5joint?5dumping?5is?5not?5suppo@ 00441e94     Box2D:b2MouseJoint.obj
 0002:00000ec0       ??_7b2MouseJoint@@6B@      00441ec0     Box2D:b2MouseJoint.obj
 0002:00000ee8       ??_7b2Joint@@6B@           00441ee8     Box2D:b2MouseJoint.obj
 0002:00000f10       ??_7b2ContactFilter@@6B@   00441f10     Box2D:b2ContactManager.obj
 0002:00000f18       ??_C@_0BG@DIMBGDOG@?5?5?5?5b2FixtureDef?5fd?$DL?6?$AA@ 00441f18     Box2D:b2Fixture.obj
 0002:00000f30       ??_C@_0BM@GBMACNGP@?5?5?5?5fd?4friction?5?$DN?5?$CF?415lef?$DL?6?$AA@ 00441f30     Box2D:b2Fixture.obj
 0002:00000f4c       ??_C@_0BP@GKCGKNLC@?5?5?5?5fd?4restitution?5?$DN?5?$CF?415lef?$DL?6?$AA@ 00441f4c     Box2D:b2Fixture.obj
 0002:00000f6c       ??_C@_0BL@PELAGCHD@?5?5?5?5fd?4density?5?$DN?5?$CF?415lef?$DL?6?$AA@ 00441f6c     Box2D:b2Fixture.obj
 0002:00000f88       ??_C@_0BN@CIGLHMIF@?5?5?5?5fd?4isSensor?5?$DN?5bool?$CI?$CFd?$CJ?$DL?6?$AA@ 00441f88     Box2D:b2Fixture.obj
 0002:00000fa8       ??_C@_0CK@NNMMPKEB@?5?5?5?5fd?4filter?4categoryBits?5?$DN?5uin@ 00441fa8     Box2D:b2Fixture.obj
 0002:00000fd4       ??_C@_0CG@CGHEABIM@?5?5?5?5fd?4filter?4maskBits?5?$DN?5uint16?$CI@ 00441fd4     Box2D:b2Fixture.obj
 0002:00000ffc       ??_C@_0CH@EHPPGBKB@?5?5?5?5fd?4filter?4groupIndex?5?$DN?5int16@ 00441ffc     Box2D:b2Fixture.obj
 0002:00001024       ??_C@_0BK@GCJACKKJ@?5?5?5?5b2CircleShape?5shape?$DL?6?$AA@ 00442024     Box2D:b2Fixture.obj
 0002:00001040       ??_C@_0BP@IHGKAEMP@?5?5?5?5shape?4m_radius?5?$DN?5?$CF?415lef?$DL?6?$AA@ 00442040     Box2D:b2Fixture.obj
 0002:00001060       ??_C@_0CG@EEIFOKCN@?5?5?5?5shape?4m_p?4Set?$CI?$CF?415lef?0?5?$CF?415l@ 00442060     Box2D:b2Fixture.obj
 0002:00001088       ??_C@_0BI@HJNMMHPJ@?5?5?5?5b2EdgeShape?5shape?$DL?6?$AA@ 00442088     Box2D:b2Fixture.obj
 0002:000010a0       ??_C@_0CM@BEMEGICF@?5?5?5?5shape?4m_vertex0?4Set?$CI?$CF?415lef?0@ 004420a0     Box2D:b2Fixture.obj
 0002:000010cc       ??_C@_0CM@PDNJMOLC@?5?5?5?5shape?4m_vertex1?4Set?$CI?$CF?415lef?0@ 004420cc     Box2D:b2Fixture.obj
 0002:000010f8       ??_C@_0CM@BIOCDEK@?5?5?5?5shape?4m_vertex2?4Set?$CI?$CF?415lef?0@ 004420f8     Box2D:b2Fixture.obj
 0002:00001124       ??_C@_0CM@OGJDIFNN@?5?5?5?5shape?4m_vertex3?4Set?$CI?$CF?415lef?0@ 00442124     Box2D:b2Fixture.obj
 0002:00001150       ??_C@_0CE@CKHBBAGF@?5?5?5?5shape?4m_hasVertex0?5?$DN?5bool?$CI?$CFd@ 00442150     Box2D:b2Fixture.obj
 0002:00001174       ??_C@_0CE@DLAMHKBM@?5?5?5?5shape?4m_hasVertex3?5?$DN?5bool?$CI?$CFd@ 00442174     Box2D:b2Fixture.obj
 0002:00001198       ??_C@_0BL@OJEEPMHO@?5?5?5?5b2PolygonShape?5shape?$DL?6?$AA@ 00442198     Box2D:b2Fixture.obj
 0002:000011b4       ??_C@_0BE@JJCEDHHN@?5?5?5?5b2Vec2?5vs?$FL?$CFd?$FN?$DL?6?$AA@ 004421b4     Box2D:b2Fixture.obj
 0002:000011c8       ??_C@_0CD@HGEHBILL@?5?5?5?5vs?$FL?$CFd?$FN?4Set?$CI?$CF?415lef?0?5?$CF?415lef?$CJ@ 004421c8     Box2D:b2Fixture.obj
 0002:000011ec       ??_C@_0BI@MDBPHHMK@?5?5?5?5shape?4Set?$CIvs?0?5?$CFd?$CJ?$DL?6?$AA@ 004421ec     Box2D:b2Fixture.obj
 0002:00001204       ??_C@_0BJ@ENPOOAFJ@?5?5?5?5b2ChainShape?5shape?$DL?6?$AA@ 00442204     Box2D:b2Fixture.obj
 0002:00001220       ??_C@_0CA@BIDLMHCI@?5?5?5?5shape?4CreateChain?$CIvs?0?5?$CFd?$CJ?$DL?6?$AA@ 00442220     Box2D:b2Fixture.obj
 0002:00001240       ??_C@_0CP@CAKKBEHN@?5?5?5?5shape?4m_prevVertex?4Set?$CI?$CF?415l@ 00442240     Box2D:b2Fixture.obj
 0002:00001270       ??_C@_0CP@NDCIHJCA@?5?5?5?5shape?4m_nextVertex?4Set?$CI?$CF?415l@ 00442270     Box2D:b2Fixture.obj
 0002:000012a0       ??_C@_0CH@EKNLFOBG@?5?5?5?5shape?4m_hasPrevVertex?5?$DN?5bool@ 004422a0     Box2D:b2Fixture.obj
 0002:000012c8       ??_C@_0CH@JPLCMLNL@?5?5?5?5shape?4m_hasNextVertex?5?$DN?5bool@ 004422c8     Box2D:b2Fixture.obj
 0002:000012f0       ??_C@_0BI@JGFEILKE@?5?5?5?5fd?4shape?5?$DN?5?$CGshape?$DL?6?$AA@ 004422f0     Box2D:b2Fixture.obj
 0002:00001308       ??_C@_0CF@PLAHKGLG@?5?5?5?5bodies?$FL?$CFd?$FN?9?$DOCreateFixture?$CI?$CGf@ 00442308     Box2D:b2Fixture.obj
 0002:00001334       ??_7b2Contact@@6B@         00442334     Box2D:b2Contact.obj
 0002:0000133c       ??_C@_0BI@PKLJDMCC@?5?5b2PulleyJointDef?5jd?$DL?6?$AA@ 0044233c     Box2D:b2PulleyJoint.obj
 0002:00001354       ??_C@_0BK@JDGLFEEP@?5?5jd?4bodyA?5?$DN?5bodies?$FL?$CFd?$FN?$DL?6?$AA@ 00442354     Box2D:b2PulleyJoint.obj
 0002:00001370       ??_C@_0BK@MAPBAPML@?5?5jd?4bodyB?5?$DN?5bodies?$FL?$CFd?$FN?$DL?6?$AA@ 00442370     Box2D:b2PulleyJoint.obj
 0002:0000138c       ??_C@_0CD@LJLFHNOK@?5?5jd?4collideConnected?5?$DN?5bool?$CI?$CFd?$CJ@ 0044238c     Box2D:b2PulleyJoint.obj
 0002:000013b0       ??_C@_0CL@BOLBFMKG@?5?5jd?4groundAnchorA?4Set?$CI?$CF?415lef?0?5@ 004423b0     Box2D:b2PulleyJoint.obj
 0002:000013dc       ??_C@_0CL@OMOGLBFO@?5?5jd?4groundAnchorB?4Set?$CI?$CF?415lef?0?5@ 004423dc     Box2D:b2PulleyJoint.obj
 0002:00001408       ??_C@_0CK@BKFDKEJD@?5?5jd?4localAnchorA?4Set?$CI?$CF?415lef?0?5?$CF@ 00442408     Box2D:b2PulleyJoint.obj
 0002:00001434       ??_C@_0CK@OIAEEJGL@?5?5jd?4localAnchorB?4Set?$CI?$CF?415lef?0?5?$CF@ 00442434     Box2D:b2PulleyJoint.obj
 0002:00001460       ??_C@_0BJ@LLCLECAP@?5?5jd?4lengthA?5?$DN?5?$CF?415lef?$DL?6?$AA@ 00442460     Box2D:b2PulleyJoint.obj
 0002:0000147c       ??_C@_0BJ@MHEKGHNE@?5?5jd?4lengthB?5?$DN?5?$CF?415lef?$DL?6?$AA@ 0044247c     Box2D:b2PulleyJoint.obj
 0002:00001498       ??_C@_0BH@KGOAGNAM@?5?5jd?4ratio?5?$DN?5?$CF?415lef?$DL?6?$AA@ 00442498     Box2D:b2PulleyJoint.obj
 0002:000014b0       ??_C@_0CL@MEFCPPCF@?5?5joints?$FL?$CFd?$FN?5?$DN?5m_world?9?$DOCreateJo@ 004424b0     Box2D:b2PulleyJoint.obj
 0002:000014e0       ??_7b2PulleyJoint@@6B@     004424e0     Box2D:b2PulleyJoint.obj
 0002:00001508       ??_7b2Draw@@6B@            00442508     Box2D:b2Draw.obj
 0002:00001524       ??_C@_0BG@PLANFGBB@?5?5b2WeldJointDef?5jd?$DL?6?$AA@ 00442524     Box2D:b2WeldJoint.obj
 0002:0000153c       ??_C@_0CA@MGANOGJL@?5?5jd?4referenceAngle?5?$DN?5?$CF?415lef?$DL?6?$AA@ 0044253c     Box2D:b2WeldJoint.obj
 0002:0000155c       ??_C@_0BN@ODHFCOFL@?5?5jd?4frequencyHz?5?$DN?5?$CF?415lef?$DL?6?$AA@ 0044255c     Box2D:b2WeldJoint.obj
 0002:0000157c       ??_C@_0BO@JKCDFODP@?5?5jd?4dampingRatio?5?$DN?5?$CF?415lef?$DL?6?$AA@ 0044257c     Box2D:b2WeldJoint.obj
 0002:000015a0       ??_7b2WeldJoint@@6B@       004425a0     Box2D:b2WeldJoint.obj
 0002:000015c4       ??_C@_0BL@CKFLBMBK@?5?5b2PrismaticJointDef?5jd?$DL?6?$AA@ 004425c4     Box2D:b2PrismaticJoint.obj
 0002:000015e0       ??_C@_0CI@PJDLBNHC@?5?5jd?4localAxisA?4Set?$CI?$CF?415lef?0?5?$CF?41@ 004425e0     Box2D:b2PrismaticJoint.obj
 0002:00001608       ??_C@_0BO@ICHIFDKO@?5?5jd?4enableLimit?5?$DN?5bool?$CI?$CFd?$CJ?$DL?6?$AA@ 00442608     Box2D:b2PrismaticJoint.obj
 0002:00001628       ??_C@_0CC@MELNPEKI@?5?5jd?4lowerTranslation?5?$DN?5?$CF?415lef?$DL@ 00442628     Box2D:b2PrismaticJoint.obj
 0002:0000164c       ??_C@_0CC@EPICOJMG@?5?5jd?4upperTranslation?5?$DN?5?$CF?415lef?$DL@ 0044264c     Box2D:b2PrismaticJoint.obj
 0002:00001670       ??_C@_0BO@FMGKMPMF@?5?5jd?4enableMotor?5?$DN?5bool?$CI?$CFd?$CJ?$DL?6?$AA@ 00442670     Box2D:b2PrismaticJoint.obj
 0002:00001690       ??_C@_0BM@EFGBHMPO@?5?5jd?4motorSpeed?5?$DN?5?$CF?415lef?$DL?6?$AA@ 00442690     Box2D:b2PrismaticJoint.obj
 0002:000016ac       ??_C@_0BP@EFIGLAGG@?5?5jd?4maxMotorForce?5?$DN?5?$CF?415lef?$DL?6?$AA@ 004426ac     Box2D:b2PrismaticJoint.obj
 0002:000016d0       ??_7b2PrismaticJoint@@6B@  004426d0     Box2D:b2PrismaticJoint.obj
 0002:000016f4       ??_C@_0BK@OCFBLNCB@?5?5b2RevoluteJointDef?5jd?$DL?6?$AA@ 004426f4     Box2D:b2RevoluteJoint.obj
 0002:00001710       ??_C@_0BM@ODMGDBPN@?5?5jd?4lowerAngle?5?$DN?5?$CF?415lef?$DL?6?$AA@ 00442710     Box2D:b2RevoluteJoint.obj
 0002:0000172c       ??_C@_0BM@GFPEMKBK@?5?5jd?4upperAngle?5?$DN?5?$CF?415lef?$DL?6?$AA@ 0044272c     Box2D:b2RevoluteJoint.obj
 0002:00001748       ??_C@_0CA@MEGKLHP@?5?5jd?4maxMotorTorque?5?$DN?5?$CF?415lef?$DL?6?$AA@ 00442748     Box2D:b2RevoluteJoint.obj
 0002:0000176c       ??_7b2RevoluteJoint@@6B@   0044276c     Box2D:b2RevoluteJoint.obj
 0002:00001790       ??_C@_0BH@CEBEBNAN@?5?5b2WheelJointDef?5jd?$DL?6?$AA@ 00442790     Box2D:b2WheelJoint.obj
 0002:000017ac       ??_7b2WheelJoint@@6B@      004427ac     Box2D:b2WheelJoint.obj
 0002:000017d0       ??_C@_0BG@NFCFNOBB@?5?5b2RopeJointDef?5jd?$DL?6?$AA@ 004427d0     Box2D:b2RopeJoint.obj
 0002:000017e8       ??_C@_0BL@EHPGONDE@?5?5jd?4maxLength?5?$DN?5?$CF?415lef?$DL?6?$AA@ 004427e8     Box2D:b2RopeJoint.obj
 0002:00001808       ??_7b2RopeJoint@@6B@       00442808     Box2D:b2RopeJoint.obj
 0002:0000182c       ??_C@_0BG@LKHMADON@?5?5b2GearJointDef?5jd?$DL?6?$AA@ 0044282c     Box2D:b2GearJoint.obj
 0002:00001844       ??_C@_0BL@IPGGENOK@?5?5jd?4joint1?5?$DN?5joints?$FL?$CFd?$FN?$DL?6?$AA@ 00442844     Box2D:b2GearJoint.obj
 0002:00001860       ??_C@_0BL@NMPMBGGO@?5?5jd?4joint2?5?$DN?5joints?$FL?$CFd?$FN?$DL?6?$AA@ 00442860     Box2D:b2GearJoint.obj
 0002:00001880       ??_7b2GearJoint@@6B@       00442880     Box2D:b2GearJoint.obj
 0002:000018a4       ??_C@_0BK@NGMNFEHD@?5?5b2DistanceJointDef?5jd?$DL?6?$AA@ 004428a4     Box2D:b2DistanceJoint.obj
 0002:000018c0       ??_C@_0BI@EHNFPPFC@?5?5jd?4length?5?$DN?5?$CF?415lef?$DL?6?$AA@ 004428c0     Box2D:b2DistanceJoint.obj
 0002:000018dc       ??_7b2DistanceJoint@@6B@   004428dc     Box2D:b2DistanceJoint.obj
 0002:00001900       ??_C@_0BK@JACHILFC@?5?5b2FrictionJointDef?5jd?$DL?6?$AA@ 00442900     Box2D:b2FrictionJoint.obj
 0002:0000191c       ??_C@_0BK@HHELGON@?5?5jd?4maxForce?5?$DN?5?$CF?415lef?$DL?6?$AA@ 0044291c     Box2D:b2FrictionJoint.obj
 0002:00001938       ??_C@_0BL@HGGOADNB@?5?5jd?4maxTorque?5?$DN?5?$CF?415lef?$DL?6?$AA@ 00442938     Box2D:b2FrictionJoint.obj
 0002:00001958       ??_7b2FrictionJoint@@6B@   00442958     Box2D:b2FrictionJoint.obj
 0002:00001980       ??_7b2PolygonAndCircleContact@@6B@ 00442980     Box2D:b2PolygonAndCircleContact.obj
 0002:0000198c       ??_7b2EdgeShape@@6B@       0044298c     Box2D:b2ChainAndCircleContact.obj
 0002:000019ac       ??_7b2ChainAndCircleContact@@6B@ 004429ac     Box2D:b2ChainAndCircleContact.obj
 0002:000019b8       ??_7b2CircleContact@@6B@   004429b8     Box2D:b2CircleContact.obj
 0002:000019c4       ??_7b2EdgeAndPolygonContact@@6B@ 004429c4     Box2D:b2EdgeAndPolygonContact.obj
 0002:000019d0       ??_7b2PolygonContact@@6B@  004429d0     Box2D:b2PolygonContact.obj
 0002:000019dc       ??_7b2ChainAndPolygonContact@@6B@ 004429dc     Box2D:b2ChainAndPolygonContact.obj
 0002:000019e8       ??_7b2EdgeAndCircleContact@@6B@ 004429e8     Box2D:b2EdgeAndCircleContact.obj
 0002:000019f4       ??_7b2ChainShape@@6B@      004429f4     Box2D:b2ChainShape.obj
 0002:00001a10       ??_C@_0P@GHFPNOJB@bad?5allocation?$AA@ 00442a10     HyMMS:Managed_Object.obj
 0002:00001a20       ??_C@_07DCLBNMLN@generic?$AA@ 00442a20     HyMMS:Managed_Object.obj
 0002:00001a28       ??_C@_0O@BFJCFAAK@unknown?5error?$AA@ 00442a28     HyMMS:Managed_Object.obj
 0002:00001a38       ??_C@_08LLGCOLLL@iostream?$AA@ 00442a38     HyMMS:Managed_Object.obj
 0002:00001a44       ??_C@_0BG@PADBLCHM@iostream?5stream?5error?$AA@ 00442a44     HyMMS:Managed_Object.obj
 0002:00001a5c       ??_C@_06FHFOAHML@system?$AA@ 00442a5c     HyMMS:Managed_Object.obj
 0002:00001a64       ??_C@_0BE@CMNNDHEC@Object?5is?5too?5large?$AA@ 00442a64     HyMMS:Managed_Object.obj
 0002:00001a78       ??_C@_0CP@PEHMKHGJ@Object?5alignment?5requirements?5ar@ 00442a78     HyMMS:Managed_Object.obj
 0002:00001aa8       ??_C@_0CF@PKEGFMBO@Cannot?5create?5object?5at?5address?5@ 00442aa8     HyMMS:Managed_Object.obj
 0002:00001ad0       ??_C@_0CP@GCFHFAAA@Object?5is?5proxy?5but?5proxyedObj?5p@ 00442ad0     HyMMS:Managed_Object.obj
 0002:00001b00       ??_C@_0BI@CFPLBAOH@invalid?5string?5position?$AA@ 00442b00     HyMMS:Managed_Object.obj
 0002:00001b18       ??_C@_0BA@JFNIOLAK@string?5too?5long?$AA@ 00442b18     HyMMS:Managed_Object.obj
 0002:00001b2c       ??_7Managed_Object@@6B@    00442b2c     HyMMS:Managed_Object.obj
 0002:00001b30       ?_Stream_err@failure@ios_base@std@@0W4io_errc@43@B 00442b30     HyMMS:Managed_Object.obj
 0002:00001b34       ?end@?$_Iosb@H@std@@2W4_Seekdir@12@B 00442b34     HyMMS:Managed_Object.obj
 0002:00001b38       ?cur@?$_Iosb@H@std@@2W4_Seekdir@12@B 00442b38     HyMMS:Managed_Object.obj
 0002:00001b3c       ?beg@?$_Iosb@H@std@@2W4_Seekdir@12@B 00442b3c     HyMMS:Managed_Object.obj
 0002:00001b40       ?binary@?$_Iosb@H@std@@2W4_Openmode@12@B 00442b40     HyMMS:Managed_Object.obj
 0002:00001b44       ?_Noreplace@?$_Iosb@H@std@@2W4_Openmode@12@B 00442b44     HyMMS:Managed_Object.obj
 0002:00001b48       ?_Nocreate@?$_Iosb@H@std@@2W4_Openmode@12@B 00442b48     HyMMS:Managed_Object.obj
 0002:00001b4c       ?trunc@?$_Iosb@H@std@@2W4_Openmode@12@B 00442b4c     HyMMS:Managed_Object.obj
 0002:00001b50       ?app@?$_Iosb@H@std@@2W4_Openmode@12@B 00442b50     HyMMS:Managed_Object.obj
 0002:00001b54       ?ate@?$_Iosb@H@std@@2W4_Openmode@12@B 00442b54     HyMMS:Managed_Object.obj
 0002:00001b58       ?out@?$_Iosb@H@std@@2W4_Openmode@12@B 00442b58     HyMMS:Managed_Object.obj
 0002:00001b5c       ?in@?$_Iosb@H@std@@2W4_Openmode@12@B 00442b5c     HyMMS:Managed_Object.obj
 0002:00001b60       ?_Hardfail@?$_Iosb@H@std@@2W4_Iostate@12@B 00442b60     HyMMS:Managed_Object.obj
 0002:00001b64       ?badbit@?$_Iosb@H@std@@2W4_Iostate@12@B 00442b64     HyMMS:Managed_Object.obj
 0002:00001b68       ?failbit@?$_Iosb@H@std@@2W4_Iostate@12@B 00442b68     HyMMS:Managed_Object.obj
 0002:00001b6c       ?eofbit@?$_Iosb@H@std@@2W4_Iostate@12@B 00442b6c     HyMMS:Managed_Object.obj
 0002:00001b70       ?goodbit@?$_Iosb@H@std@@2W4_Iostate@12@B 00442b70     HyMMS:Managed_Object.obj
 0002:00001b74       ?floatfield@?$_Iosb@H@std@@2W4_Fmtflags@12@B 00442b74     HyMMS:Managed_Object.obj
 0002:00001b78       ?basefield@?$_Iosb@H@std@@2W4_Fmtflags@12@B 00442b78     HyMMS:Managed_Object.obj
 0002:00001b7c       ?adjustfield@?$_Iosb@H@std@@2W4_Fmtflags@12@B 00442b7c     HyMMS:Managed_Object.obj
 0002:00001b80       ?_Stdio@?$_Iosb@H@std@@2W4_Fmtflags@12@B 00442b80     HyMMS:Managed_Object.obj
 0002:00001b84       ?boolalpha@?$_Iosb@H@std@@2W4_Fmtflags@12@B 00442b84     HyMMS:Managed_Object.obj
 0002:00001b88       ?hexfloat@?$_Iosb@H@std@@2W4_Fmtflags@12@B 00442b88     HyMMS:Managed_Object.obj
 0002:00001b8c       ?fixed@?$_Iosb@H@std@@2W4_Fmtflags@12@B 00442b8c     HyMMS:Managed_Object.obj
 0002:00001b90       ?scientific@?$_Iosb@H@std@@2W4_Fmtflags@12@B 00442b90     HyMMS:Managed_Object.obj
 0002:00001b94       ?hex@?$_Iosb@H@std@@2W4_Fmtflags@12@B 00442b94     HyMMS:Managed_Object.obj
 0002:00001b98       ?oct@?$_Iosb@H@std@@2W4_Fmtflags@12@B 00442b98     HyMMS:Managed_Object.obj
 0002:00001b9c       ?dec@?$_Iosb@H@std@@2W4_Fmtflags@12@B 00442b9c     HyMMS:Managed_Object.obj
 0002:00001ba0       ?internal@?$_Iosb@H@std@@2W4_Fmtflags@12@B 00442ba0     HyMMS:Managed_Object.obj
 0002:00001ba4       ?right@?$_Iosb@H@std@@2W4_Fmtflags@12@B 00442ba4     HyMMS:Managed_Object.obj
 0002:00001ba8       ?left@?$_Iosb@H@std@@2W4_Fmtflags@12@B 00442ba8     HyMMS:Managed_Object.obj
 0002:00001bac       ?showpos@?$_Iosb@H@std@@2W4_Fmtflags@12@B 00442bac     HyMMS:Managed_Object.obj
 0002:00001bb0       ?showpoint@?$_Iosb@H@std@@2W4_Fmtflags@12@B 00442bb0     HyMMS:Managed_Object.obj
 0002:00001bb4       ?showbase@?$_Iosb@H@std@@2W4_Fmtflags@12@B 00442bb4     HyMMS:Managed_Object.obj
 0002:00001bb8       ?uppercase@?$_Iosb@H@std@@2W4_Fmtflags@12@B 00442bb8     HyMMS:Managed_Object.obj
 0002:00001bbc       ?unitbuf@?$_Iosb@H@std@@2W4_Fmtflags@12@B 00442bbc     HyMMS:Managed_Object.obj
 0002:00001bc0       ?skipws@?$_Iosb@H@std@@2W4_Fmtflags@12@B 00442bc0     HyMMS:Managed_Object.obj
 0002:00001bc4       ?none@?$_Locbase@H@std@@2HB 00442bc4     HyMMS:Managed_Object.obj
 0002:00001bc8       ?all@?$_Locbase@H@std@@2HB 00442bc8     HyMMS:Managed_Object.obj
 0002:00001bcc       ?messages@?$_Locbase@H@std@@2HB 00442bcc     HyMMS:Managed_Object.obj
 0002:00001bd0       ?time@?$_Locbase@H@std@@2HB 00442bd0     HyMMS:Managed_Object.obj
 0002:00001bd4       ?numeric@?$_Locbase@H@std@@2HB 00442bd4     HyMMS:Managed_Object.obj
 0002:00001bd8       ?monetary@?$_Locbase@H@std@@2HB 00442bd8     HyMMS:Managed_Object.obj
 0002:00001bdc       ?ctype@?$_Locbase@H@std@@2HB 00442bdc     HyMMS:Managed_Object.obj
 0002:00001be0       ?collate@?$_Locbase@H@std@@2HB 00442be0     HyMMS:Managed_Object.obj
 0002:00001be4       ??_C@_0CE@JHPCGDPM@Heap?5size?5must?5be?5greater?5than?5z@ 00442be4     HyMMS:GC.obj
 0002:00001c08       ??_C@_0BK@NEABPIPM@Allocator?5creation?5failed?$AA@ 00442c08     HyMMS:GC.obj
 0002:00001c24       ??_C@_0BK@MIGFPFNO@Compactor?5creation?5failed?$AA@ 00442c24     HyMMS:GC.obj
 0002:00001c40       ??_C@_0BH@CCLNMBPF@Tracer?5creation?5failed?$AA@ 00442c40     HyMMS:GC.obj
 0002:00001c58       ??_C@_0CH@FMMENIP@Collector?5time?5budget?5must?5be?5po@ 00442c58     HyMMS:GC.obj
 0002:00001c80       ??_C@_0DI@EAMNEOJG@Large?5object?5threshold?5must?5be?5?$DO@ 00442c80     HyMMS:GC.obj
 0002:00001cb8       ??_C@_0CP@KOKHBMOM@Index?5not?5found?5in?5nursery?5roots@ 00442cb8     HyMMS:GC.obj
 0002:00001ce8       ??_C@_0CL@IJIIKCCN@Exceeded?5maximum?5number?5of?5manag@ 00442ce8     HyMMS:GC.obj
 0002:00001d14       ??_C@_0CH@MABKDPPD@Cannot?5add?5NULL?5pointer?5to?5pinne@ 00442d14     HyMMS:GC.obj
 0002:00001d3c       ??_C@_0DJ@KGBOOFJM@Error?3?5lowestPinnedAddr?5should?5n@ 00442d3c     HyMMS:GC.obj
 0002:00001d78       ??_C@_0DK@KKMGAHBK@Error?3?5highestPinnedAddr?5should?5@ 00442d78     HyMMS:GC.obj
 0002:00001db4       ??_C@_0BD@OLBABOEK@vector?$DMT?$DO?5too?5long?$AA@ 00442db4     HyMMS:GC.obj
 0002:00001dc8       ??_C@_0BG@OHMODGPA@Invalid?5heap?5boundary?$AA@ 00442dc8     HyMMS:Compactor.obj
 0002:00001de0       ??_C@_0BJ@EIAIFJGE@HeapStart?5cannot?5be?5NULL?$AA@ 00442de0     HyMMS:Compactor.obj
 0002:00001dfc       ??_C@_0BH@JDNLIGDE@HeapEnd?5cannot?5be?5NULL?$AA@ 00442dfc     HyMMS:Compactor.obj
 0002:00001e14       ??_C@_0BG@NCLBDPIH@Cursor?5cannot?5be?5NULL?$AA@ 00442e14     HyMMS:Compactor.obj
 0002:00001e2c       ??_C@_0DI@IBEMKLOJ@We?5cannot?5have?5a?5live?5object?5if?5@ 00442e2c     HyMMS:Compactor.obj
 0002:00001e64       ??_C@_0DG@LMEPFLIL@GC?3?3LastPromotedIndx?5invalid?5?$CIbu@ 00442e64     HyMMS:Tracer.obj
 0002:00001ea0       ??_C@_0EA@IIELDJOB@Old?5gen?5tracer?5found?5NULL?5linkag@ 00442ea0     HyMMS:Tracer.obj
 0002:00001ee0       ??_C@_0CG@CLACGOJH@Nursery?5roots?5argument?5cannot?5be@ 00442ee0     HyMMS:Tracer.obj
 0002:00001f08       ??_C@_0CF@IIBNOIHF@Invalid?5firstObj?1?5lastAddr?5argum@ 00442f08     HyMMS:Tracer.obj
 0002:00001f30       ??_C@_0CE@MLFELFFI@Object?5with?5no?5colour?5marking?5fo@ 00442f30     HyMMS:Tracer.obj
 0002:00001f54       ??_C@_0DI@IGGLIDEM@Tracer?5has?5found?5NULL?5linkage?5no@ 00442f54     HyMMS:Tracer.obj
 0002:00001f8c       __real@00000000            00442f8c     Box2D:b2PolygonShape.obj
 0002:00001f90       __real@28800000            00442f90     Box2D:b2PolygonShape.obj
 0002:00001f94       __real@34000000            00442f94     Box2D:b2PolygonShape.obj
 0002:00001f98       __real@35a00000            00442f98     Box2D:b2PolygonShape.obj
 0002:00001f9c       __real@38d1b717            00442f9c     Box2D:b2PolygonShape.obj
 0002:00001fa0       __real@3a83126f            00442fa0     Box2D:b2PolygonShape.obj
 0002:00001fa4       __real@3a9fb511            00442fa4     Box2D:b2PolygonShape.obj
 0002:00001fa8       __real@3aa3d70a            00442fa8     Box2D:b2PolygonShape.obj
 0002:00001fac       __real@3ba3d70a            00442fac     Box2D:b2PolygonShape.obj
 0002:00001fb0       __real@3c23d70a            00442fb0     Box2D:b2PolygonShape.obj
 0002:00001fb4       __real@3c75c28f            00442fb4     Box2D:b2PolygonShape.obj
 0002:00001fb8       __real@3d0efa36            00442fb8     Box2D:b2PolygonShape.obj
 0002:00001fbc       __real@3d4ccccc            00442fbc     Box2D:b2PolygonShape.obj
 0002:00001fc0       __real@3d8efa36            00442fc0     Box2D:b2PolygonShape.obj
 0002:00001fc4       __real@3daaaaab            00442fc4     Box2D:b2PolygonShape.obj
 0002:00001fc8       __real@3dcccccd            00442fc8     Box2D:b2PolygonShape.obj
 0002:00001fcc       __real@3e0efa36            00442fcc     Box2D:b2PolygonShape.obj
 0002:00001fd0       __real@3e4ccccd            00442fd0     Box2D:b2PolygonShape.obj
 0002:00001fd4       __real@3eaaaaab            00442fd4     Box2D:b2PolygonShape.obj
 0002:00001fd8       __real@3f000000            00442fd8     Box2D:b2PolygonShape.obj
 0002:00001fdc       __real@3f400000            00442fdc     Box2D:b2PolygonShape.obj
 0002:00001fe0       __real@3f7ae148            00442fe0     Box2D:b2PolygonShape.obj
 0002:00001fe4       __real@3f7fffec            00442fe4     Box2D:b2PolygonShape.obj
 0002:00001fe8       __real@3f800000            00442fe8     Box2D:b2PolygonShape.obj
 0002:00001fec       __real@3fc90fdb            00442fec     Box2D:b2PolygonShape.obj
 0002:00001ff0       __real@40000000            00442ff0     Box2D:b2PolygonShape.obj
 0002:00001ff4       __real@401de9e7            00442ff4     Box2D:b2PolygonShape.obj
 0002:00001ff8       __real@40800000            00442ff8     Box2D:b2PolygonShape.obj
 0002:00002000       __real@408f400000000000    00443000     Box2D:b2PolygonShape.obj
 0002:00002008       __real@40c90fdb            00443008     Box2D:b2PolygonShape.obj
 0002:0000200c       __real@447a0000            0044300c     Box2D:b2PolygonShape.obj
 0002:00002010       __real@7f7fffff            00443010     Box2D:b2PolygonShape.obj
 0002:00002014       __real@bbf5c28f            00443014     Box2D:b2PolygonShape.obj
 0002:00002018       __real@bc75c28f            00443018     Box2D:b2PolygonShape.obj
 0002:0000201c       __real@bd0efa36            0044301c     Box2D:b2PolygonShape.obj
 0002:00002020       __real@be0efa36            00443020     Box2D:b2PolygonShape.obj
 0002:00002024       __real@be4ccccd            00443024     Box2D:b2PolygonShape.obj
 0002:00002028       __real@bf800000            00443028     Box2D:b2PolygonShape.obj
 0002:00002030       __real@bff0000000000000    00443030     Box2D:b2PolygonShape.obj
 0002:00002038       __real@ff7fffff            00443038     Box2D:b2PolygonShape.obj
 0002:00002040       __xmm@7fffffff7fffffff7fffffff7fffffff 00443040     Box2D:b2PolygonShape.obj
 0002:00002050       __xmm@80000000800000008000000080000000 00443050     Box2D:b2PolygonShape.obj
 0002:00002060       __load_config_used         00443060     MSVCRT:loadcfg.obj
 0002:00002124       ??_R4ContentManager@@6B@   00443124     ContentManager.obj
 0002:00002138       ??_R3ContentManager@@8     00443138     ContentManager.obj
 0002:00002148       ??_R2ContentManager@@8     00443148     ContentManager.obj
 0002:00002154       ??_R1A@?0A@EA@ContentManager@@8 00443154     ContentManager.obj
 0002:00002170       ??_R4b2QueryCallback@@6B@  00443170     Demo.obj
 0002:00002184       ??_R3b2QueryCallback@@8    00443184     Demo.obj
 0002:00002194       ??_R2b2QueryCallback@@8    00443194     Demo.obj
 0002:0000219c       ??_R1A@?0A@EA@b2QueryCallback@@8 0044319c     Demo.obj
 0002:000021b8       ??_R4Demo@@6B@             004431b8     Demo.obj
 0002:000021cc       ??_R3Demo@@8               004431cc     Demo.obj
 0002:000021dc       ??_R2Demo@@8               004431dc     Demo.obj
 0002:000021e8       ??_R1A@?0A@EA@Demo@@8      004431e8     Demo.obj
 0002:00002204       ??_R1A@?0A@EA@Game@@8      00443204     Demo.obj
 0002:00002220       ??_R3Game@@8               00443220     Demo.obj
 0002:00002230       ??_R2Game@@8               00443230     Demo.obj
 0002:00002238       ??_R4?$Unmanaged_Array@V?$SmartHandle@VGameObject@@@@@@6B@ 00443238     Demo.obj
 0002:0000224c       ??_R3?$Unmanaged_Array@V?$SmartHandle@VGameObject@@@@@@8 0044324c     Demo.obj
 0002:0000225c       ??_R2?$Unmanaged_Array@V?$SmartHandle@VGameObject@@@@@@8 0044325c     Demo.obj
 0002:00002268       ??_R1A@?0A@EA@?$Unmanaged_Array@V?$SmartHandle@VGameObject@@@@@@8 00443268     Demo.obj
 0002:00002284       ??_R4?$Handle_Array@VGameObject@@@@6B@ 00443284     Demo.obj
 0002:00002298       ??_R3?$Handle_Array@VGameObject@@@@8 00443298     Demo.obj
 0002:000022a8       ??_R2?$Handle_Array@VGameObject@@@@8 004432a8     Demo.obj
 0002:000022b8       ??_R1A@?0A@EA@?$Handle_Array@VGameObject@@@@8 004432b8     Demo.obj
 0002:000022d4       ??_R4?$Unmanaged_Array@V?$SmartHandle@VDemoButton@@@@@@6B@ 004432d4     Demo.obj
 0002:000022e8       ??_R3?$Unmanaged_Array@V?$SmartHandle@VDemoButton@@@@@@8 004432e8     Demo.obj
 0002:000022f8       ??_R2?$Unmanaged_Array@V?$SmartHandle@VDemoButton@@@@@@8 004432f8     Demo.obj
 0002:00002304       ??_R1A@?0A@EA@?$Unmanaged_Array@V?$SmartHandle@VDemoButton@@@@@@8 00443304     Demo.obj
 0002:00002320       ??_R4?$Handle_Array@VDemoButton@@@@6B@ 00443320     Demo.obj
 0002:00002334       ??_R3?$Handle_Array@VDemoButton@@@@8 00443334     Demo.obj
 0002:00002344       ??_R2?$Handle_Array@VDemoButton@@@@8 00443344     Demo.obj
 0002:00002354       ??_R1A@?0A@EA@?$Handle_Array@VDemoButton@@@@8 00443354     Demo.obj
 0002:00002370       ??_R4QueryCallback@@6B@    00443370     Demo.obj
 0002:00002384       ??_R3QueryCallback@@8      00443384     Demo.obj
 0002:00002394       ??_R2QueryCallback@@8      00443394     Demo.obj
 0002:000023a0       ??_R1A@?0A@EA@QueryCallback@@8 004433a0     Demo.obj
 0002:000023bc       ??_R4DemoButton@@6B@       004433bc     DemoButton.obj
 0002:000023d0       ??_R3DemoButton@@8         004433d0     DemoButton.obj
 0002:000023e0       ??_R2DemoButton@@8         004433e0     DemoButton.obj
 0002:000023ec       ??_R1A@?0A@EA@DemoButton@@8 004433ec     DemoButton.obj
 0002:00002408       ??_R4DemoContactListener@@6B@ 00443408     DemoContactListener.obj
 0002:0000241c       ??_R3DemoContactListener@@8 0044341c     DemoContactListener.obj
 0002:0000242c       ??_R2DemoContactListener@@8 0044342c     DemoContactListener.obj
 0002:00002438       ??_R1A@?0A@EA@DemoContactListener@@8 00443438     DemoContactListener.obj
 0002:00002454       ??_R4?$basic_stringbuf@DU?$char_traits@D@std@@V?$allocator@D@2@@std@@6B@ 00443454     DemoDebugInfo.obj
 0002:00002468       ??_R3?$basic_stringbuf@DU?$char_traits@D@std@@V?$allocator@D@2@@std@@8 00443468     DemoDebugInfo.obj
 0002:00002478       ??_R2?$basic_stringbuf@DU?$char_traits@D@std@@V?$allocator@D@2@@std@@8 00443478     DemoDebugInfo.obj
 0002:00002484       ??_R1A@?0A@EA@?$basic_stringbuf@DU?$char_traits@D@std@@V?$allocator@D@2@@std@@8 00443484     DemoDebugInfo.obj
 0002:000024a0       ??_R1A@?0A@EA@?$basic_streambuf@DU?$char_traits@D@std@@@std@@8 004434a0     DemoDebugInfo.obj
 0002:000024bc       ??_R3?$basic_streambuf@DU?$char_traits@D@std@@@std@@8 004434bc     DemoDebugInfo.obj
 0002:000024cc       ??_R2?$basic_streambuf@DU?$char_traits@D@std@@@std@@8 004434cc     DemoDebugInfo.obj
 0002:000024d4       ??_R4?$basic_ostringstream@DU?$char_traits@D@std@@V?$allocator@D@2@@std@@6B@ 004434d4     DemoDebugInfo.obj
 0002:000024e8       ??_R3?$basic_ostringstream@DU?$char_traits@D@std@@V?$allocator@D@2@@std@@8 004434e8     DemoDebugInfo.obj
 0002:000024f8       ??_R2?$basic_ostringstream@DU?$char_traits@D@std@@V?$allocator@D@2@@std@@8 004434f8     DemoDebugInfo.obj
 0002:00002510       ??_R1A@?0A@EA@?$basic_ostringstream@DU?$char_traits@D@std@@V?$allocator@D@2@@std@@8 00443510     DemoDebugInfo.obj
 0002:0000252c       ??_R1A@?0A@EA@?$basic_ostream@DU?$char_traits@D@std@@@std@@8 0044352c     DemoDebugInfo.obj
 0002:00002548       ??_R3?$basic_ostream@DU?$char_traits@D@std@@@std@@8 00443548     DemoDebugInfo.obj
 0002:00002558       ??_R2?$basic_ostream@DU?$char_traits@D@std@@@std@@8 00443558     DemoDebugInfo.obj
 0002:0000256c       ??_R1A@A@3FA@?$basic_ios@DU?$char_traits@D@std@@@std@@8 0044356c     DemoDebugInfo.obj
 0002:00002588       ??_R3?$basic_ios@DU?$char_traits@D@std@@@std@@8 00443588     DemoDebugInfo.obj
 0002:00002598       ??_R2?$basic_ios@DU?$char_traits@D@std@@@std@@8 00443598     DemoDebugInfo.obj
 0002:000025a8       ??_R1A@?0A@EA@?$basic_ios@DU?$char_traits@D@std@@@std@@8 004435a8     DemoDebugInfo.obj
 0002:000025c4       ??_R1A@?0A@EA@ios_base@std@@8 004435c4     DemoDebugInfo.obj
 0002:000025e0       ??_R3ios_base@std@@8       004435e0     DemoDebugInfo.obj
 0002:000025f0       ??_R2ios_base@std@@8       004435f0     DemoDebugInfo.obj
 0002:000025fc       ??_R17?0A@EA@?$_Iosb@H@std@@8 004435fc     DemoDebugInfo.obj
 0002:00002618       ??_R3?$_Iosb@H@std@@8      00443618     DemoDebugInfo.obj
 0002:00002628       ??_R2?$_Iosb@H@std@@8      00443628     DemoDebugInfo.obj
 0002:00002630       ??_R1A@?0A@EA@?$_Iosb@H@std@@8 00443630     DemoDebugInfo.obj
 0002:0000264c       ??_R1A@A@3EA@ios_base@std@@8 0044364c     DemoDebugInfo.obj
 0002:00002668       ??_R17A@3EA@?$_Iosb@H@std@@8 00443668     DemoDebugInfo.obj
 0002:00002684       ??_R4Game@@6B@             00443684     Game.obj
 0002:00002698       ??_R4GameObject@@6B@       00443698     GameObject.obj
 0002:000026ac       ??_R3GameObject@@8         004436ac     GameObject.obj
 0002:000026bc       ??_R2GameObject@@8         004436bc     GameObject.obj
 0002:000026c8       ??_R1A@?0A@EA@GameObject@@8 004436c8     GameObject.obj
 0002:000026e4       ??_R4InputManager@@6B@     004436e4     InputManager.obj
 0002:000026f8       ??_R3InputManager@@8       004436f8     InputManager.obj
 0002:00002708       ??_R2InputManager@@8       00443708     InputManager.obj
 0002:00002710       ??_R1A@?0A@EA@InputManager@@8 00443710     InputManager.obj
 0002:0000272c       ??_R4PushButton@@6B@       0044372c     PushButton.obj
 0002:00002740       ??_R3PushButton@@8         00443740     PushButton.obj
 0002:00002750       ??_R2PushButton@@8         00443750     PushButton.obj
 0002:00002760       ??_R1A@?0A@EA@PushButton@@8 00443760     PushButton.obj
 0002:0000277c       ??_R4SpriteBatch@@6B@      0044377c     SpriteBatch.obj
 0002:00002790       ??_R3SpriteBatch@@8        00443790     SpriteBatch.obj
 0002:000027a0       ??_R2SpriteBatch@@8        004437a0     SpriteBatch.obj
 0002:000027ac       ??_R1A@?0A@EA@SpriteBatch@@8 004437ac     SpriteBatch.obj
 0002:000027c8       ??_R4Texture2D@@6B@        004437c8     Texture2D.obj
 0002:000027dc       ??_R3Texture2D@@8          004437dc     Texture2D.obj
 0002:000027ec       ??_R2Texture2D@@8          004437ec     Texture2D.obj
 0002:000027f8       ??_R1A@?0A@EA@Texture2D@@8 004437f8     Texture2D.obj
 0002:00002814       ??_R4ToggleButton@@6B@     00443814     ToggleButton.obj
 0002:00002828       ??_R3ToggleButton@@8       00443828     ToggleButton.obj
 0002:00002838       ??_R2ToggleButton@@8       00443838     ToggleButton.obj
 0002:00002848       ??_R1A@?0A@EA@ToggleButton@@8 00443848     ToggleButton.obj
 0002:00002864       ??_R4WindowsInputManager@@6B@ 00443864     WindowsInputManager.obj
 0002:00002878       ??_R3WindowsInputManager@@8 00443878     WindowsInputManager.obj
 0002:00002888       ??_R2WindowsInputManager@@8 00443888     WindowsInputManager.obj
 0002:00002894       ??_R1A@?0A@EA@WindowsInputManager@@8 00443894     WindowsInputManager.obj
 0002:000028b0       ??_R4type_info@@6B@        004438b0     MSVCRT:ti_inst.obj
 0002:000028c4       ??_R3type_info@@8          004438c4     MSVCRT:ti_inst.obj
 0002:000028d4       ??_R2type_info@@8          004438d4     MSVCRT:ti_inst.obj
 0002:000028dc       ??_R1A@?0A@EA@type_info@@8 004438dc     MSVCRT:ti_inst.obj
 0002:000028f8       ??_R3b2PolygonShape@@8     004438f8     Box2D:b2PolygonShape.obj
 0002:00002908       ??_R1A@?0A@EA@b2PolygonShape@@8 00443908     Box2D:b2PolygonShape.obj
 0002:00002924       ??_R4b2Shape@@6B@          00443924     Box2D:b2PolygonShape.obj
 0002:00002938       ??_R1A@?0A@EA@b2Shape@@8   00443938     Box2D:b2PolygonShape.obj
 0002:00002954       ??_R3b2Shape@@8            00443954     Box2D:b2PolygonShape.obj
 0002:00002964       ??_R2b2PolygonShape@@8     00443964     Box2D:b2PolygonShape.obj
 0002:00002970       ??_R2b2Shape@@8            00443970     Box2D:b2PolygonShape.obj
 0002:00002978       ??_R4b2PolygonShape@@6B@   00443978     Box2D:b2PolygonShape.obj
 0002:0000298c       ??_R1A@?0A@EA@b2MouseJoint@@8 0044398c     Box2D:b2MouseJoint.obj
 0002:000029a8       ??_R4b2MouseJoint@@6B@     004439a8     Box2D:b2MouseJoint.obj
 0002:000029bc       ??_R4b2Joint@@6B@          004439bc     Box2D:b2MouseJoint.obj
 0002:000029d0       ??_R3b2Joint@@8            004439d0     Box2D:b2MouseJoint.obj
 0002:000029e0       ??_R2b2MouseJoint@@8       004439e0     Box2D:b2MouseJoint.obj
 0002:000029ec       ??_R2b2Joint@@8            004439ec     Box2D:b2MouseJoint.obj
 0002:000029f4       ??_R1A@?0A@EA@b2Joint@@8   004439f4     Box2D:b2MouseJoint.obj
 0002:00002a10       ??_R3b2MouseJoint@@8       00443a10     Box2D:b2MouseJoint.obj
 0002:00002a20       ??_R4b2ContactFilter@@6B@  00443a20     Box2D:b2ContactManager.obj
 0002:00002a34       ??_R1A@?0A@EA@b2ContactListener@@8 00443a34     Box2D:b2ContactManager.obj
 0002:00002a50       ??_R2b2ContactListener@@8  00443a50     Box2D:b2ContactManager.obj
 0002:00002a58       ??_R1A@?0A@EA@b2ContactFilter@@8 00443a58     Box2D:b2ContactManager.obj
 0002:00002a74       ??_R4b2ContactListener@@6B@ 00443a74     Box2D:b2ContactManager.obj
 0002:00002a88       ??_R2b2ContactFilter@@8    00443a88     Box2D:b2ContactManager.obj
 0002:00002a90       ??_R3b2ContactListener@@8  00443a90     Box2D:b2ContactManager.obj
 0002:00002aa0       ??_R3b2ContactFilter@@8    00443aa0     Box2D:b2ContactManager.obj
 0002:00002ab0       ??_R2b2Contact@@8          00443ab0     Box2D:b2Contact.obj
 0002:00002ab8       ??_R1A@?0A@EA@b2Contact@@8 00443ab8     Box2D:b2Contact.obj
 0002:00002ad4       ??_R4b2Contact@@6B@        00443ad4     Box2D:b2Contact.obj
 0002:00002ae8       ??_R3b2Contact@@8          00443ae8     Box2D:b2Contact.obj
 0002:00002af8       ??_R4b2PulleyJoint@@6B@    00443af8     Box2D:b2PulleyJoint.obj
 0002:00002b0c       ??_R2b2PulleyJoint@@8      00443b0c     Box2D:b2PulleyJoint.obj
 0002:00002b18       ??_R1A@?0A@EA@b2PulleyJoint@@8 00443b18     Box2D:b2PulleyJoint.obj
 0002:00002b34       ??_R3b2PulleyJoint@@8      00443b34     Box2D:b2PulleyJoint.obj
 0002:00002b44       ??_R1A@?0A@EA@b2Draw@@8    00443b44     Box2D:b2Draw.obj
 0002:00002b60       ??_R3b2Draw@@8             00443b60     Box2D:b2Draw.obj
 0002:00002b70       ??_R2b2Draw@@8             00443b70     Box2D:b2Draw.obj
 0002:00002b78       ??_R4b2Draw@@6B@           00443b78     Box2D:b2Draw.obj
 0002:00002b8c       ??_R4b2WeldJoint@@6B@      00443b8c     Box2D:b2WeldJoint.obj
 0002:00002ba0       ??_R3b2WeldJoint@@8        00443ba0     Box2D:b2WeldJoint.obj
 0002:00002bb0       ??_R2b2WeldJoint@@8        00443bb0     Box2D:b2WeldJoint.obj
 0002:00002bbc       ??_R1A@?0A@EA@b2WeldJoint@@8 00443bbc     Box2D:b2WeldJoint.obj
 0002:00002bd8       ??_R3b2PrismaticJoint@@8   00443bd8     Box2D:b2PrismaticJoint.obj
 0002:00002be8       ??_R4b2PrismaticJoint@@6B@ 00443be8     Box2D:b2PrismaticJoint.obj
 0002:00002bfc       ??_R2b2PrismaticJoint@@8   00443bfc     Box2D:b2PrismaticJoint.obj
 0002:00002c08       ??_R1A@?0A@EA@b2PrismaticJoint@@8 00443c08     Box2D:b2PrismaticJoint.obj
 0002:00002c24       ??_R1A@?0A@EA@b2RevoluteJoint@@8 00443c24     Box2D:b2RevoluteJoint.obj
 0002:00002c40       ??_R3b2RevoluteJoint@@8    00443c40     Box2D:b2RevoluteJoint.obj
 0002:00002c50       ??_R2b2RevoluteJoint@@8    00443c50     Box2D:b2RevoluteJoint.obj
 0002:00002c5c       ??_R4b2RevoluteJoint@@6B@  00443c5c     Box2D:b2RevoluteJoint.obj
 0002:00002c70       ??_R3b2WheelJoint@@8       00443c70     Box2D:b2WheelJoint.obj
 0002:00002c80       ??_R2b2WheelJoint@@8       00443c80     Box2D:b2WheelJoint.obj
 0002:00002c8c       ??_R1A@?0A@EA@b2WheelJoint@@8 00443c8c     Box2D:b2WheelJoint.obj
 0002:00002ca8       ??_R4b2WheelJoint@@6B@     00443ca8     Box2D:b2WheelJoint.obj
 0002:00002cbc       ??_R1A@?0A@EA@b2RopeJoint@@8 00443cbc     Box2D:b2RopeJoint.obj
 0002:00002cd8       ??_R4b2RopeJoint@@6B@      00443cd8     Box2D:b2RopeJoint.obj
 0002:00002cec       ??_R3b2RopeJoint@@8        00443cec     Box2D:b2RopeJoint.obj
 0002:00002cfc       ??_R2b2RopeJoint@@8        00443cfc     Box2D:b2RopeJoint.obj
 0002:00002d08       ??_R4b2GearJoint@@6B@      00443d08     Box2D:b2GearJoint.obj
 0002:00002d1c       ??_R2b2GearJoint@@8        00443d1c     Box2D:b2GearJoint.obj
 0002:00002d28       ??_R1A@?0A@EA@b2GearJoint@@8 00443d28     Box2D:b2GearJoint.obj
 0002:00002d44       ??_R3b2GearJoint@@8        00443d44     Box2D:b2GearJoint.obj
 0002:00002d54       ??_R4b2DistanceJoint@@6B@  00443d54     Box2D:b2DistanceJoint.obj
 0002:00002d68       ??_R2b2DistanceJoint@@8    00443d68     Box2D:b2DistanceJoint.obj
 0002:00002d74       ??_R1A@?0A@EA@b2DistanceJoint@@8 00443d74     Box2D:b2DistanceJoint.obj
 0002:00002d90       ??_R3b2DistanceJoint@@8    00443d90     Box2D:b2DistanceJoint.obj
 0002:00002da0       ??_R4b2FrictionJoint@@6B@  00443da0     Box2D:b2FrictionJoint.obj
 0002:00002db4       ??_R1A@?0A@EA@b2FrictionJoint@@8 00443db4     Box2D:b2FrictionJoint.obj
 0002:00002dd0       ??_R2b2FrictionJoint@@8    00443dd0     Box2D:b2FrictionJoint.obj
 0002:00002ddc       ??_R3b2FrictionJoint@@8    00443ddc     Box2D:b2FrictionJoint.obj
 0002:00002dec       ??_R1A@?0A@EA@b2PolygonAndCircleContact@@8 00443dec     Box2D:b2PolygonAndCircleContact.obj
 0002:00002e08       ??_R2b2PolygonAndCircleContact@@8 00443e08     Box2D:b2PolygonAndCircleContact.obj
 0002:00002e14       ??_R3b2PolygonAndCircleContact@@8 00443e14     Box2D:b2PolygonAndCircleContact.obj
 0002:00002e24       ??_R4b2PolygonAndCircleContact@@6B@ 00443e24     Box2D:b2PolygonAndCircleContact.obj
 0002:00002e38       ??_R4b2ChainAndCircleContact@@6B@ 00443e38     Box2D:b2ChainAndCircleContact.obj
 0002:00002e4c       ??_R4b2EdgeShape@@6B@      00443e4c     Box2D:b2ChainAndCircleContact.obj
 0002:00002e60       ??_R2b2ChainAndCircleContact@@8 00443e60     Box2D:b2ChainAndCircleContact.obj
 0002:00002e6c       ??_R1A@?0A@EA@b2ChainAndCircleContact@@8 00443e6c     Box2D:b2ChainAndCircleContact.obj
 0002:00002e88       ??_R3b2ChainAndCircleContact@@8 00443e88     Box2D:b2ChainAndCircleContact.obj
 0002:00002e98       ??_R1A@?0A@EA@b2EdgeShape@@8 00443e98     Box2D:b2ChainAndCircleContact.obj
 0002:00002eb4       ??_R3b2EdgeShape@@8        00443eb4     Box2D:b2ChainAndCircleContact.obj
 0002:00002ec4       ??_R2b2EdgeShape@@8        00443ec4     Box2D:b2ChainAndCircleContact.obj
 0002:00002ed0       ??_R4b2CircleContact@@6B@  00443ed0     Box2D:b2CircleContact.obj
 0002:00002ee4       ??_R2b2CircleContact@@8    00443ee4     Box2D:b2CircleContact.obj
 0002:00002ef0       ??_R3b2CircleContact@@8    00443ef0     Box2D:b2CircleContact.obj
 0002:00002f00       ??_R1A@?0A@EA@b2CircleContact@@8 00443f00     Box2D:b2CircleContact.obj
 0002:00002f1c       ??_R4b2EdgeAndPolygonContact@@6B@ 00443f1c     Box2D:b2EdgeAndPolygonContact.obj
 0002:00002f30       ??_R1A@?0A@EA@b2EdgeAndPolygonContact@@8 00443f30     Box2D:b2EdgeAndPolygonContact.obj
 0002:00002f4c       ??_R2b2EdgeAndPolygonContact@@8 00443f4c     Box2D:b2EdgeAndPolygonContact.obj
 0002:00002f58       ??_R3b2EdgeAndPolygonContact@@8 00443f58     Box2D:b2EdgeAndPolygonContact.obj
 0002:00002f68       ??_R2b2PolygonContact@@8   00443f68     Box2D:b2PolygonContact.obj
 0002:00002f74       ??_R4b2PolygonContact@@6B@ 00443f74     Box2D:b2PolygonContact.obj
 0002:00002f88       ??_R1A@?0A@EA@b2PolygonContact@@8 00443f88     Box2D:b2PolygonContact.obj
 0002:00002fa4       ??_R3b2PolygonContact@@8   00443fa4     Box2D:b2PolygonContact.obj
 0002:00002fb4       ??_R2b2ChainAndPolygonContact@@8 00443fb4     Box2D:b2ChainAndPolygonContact.obj
 0002:00002fc0       ??_R4b2ChainAndPolygonContact@@6B@ 00443fc0     Box2D:b2ChainAndPolygonContact.obj
 0002:00002fd4       ??_R1A@?0A@EA@b2ChainAndPolygonContact@@8 00443fd4     Box2D:b2ChainAndPolygonContact.obj
 0002:00002ff0       ??_R3b2ChainAndPolygonContact@@8 00443ff0     Box2D:b2ChainAndPolygonContact.obj
 0002:00003000       ??_R2b2EdgeAndCircleContact@@8 00444000     Box2D:b2EdgeAndCircleContact.obj
 0002:0000300c       ??_R1A@?0A@EA@b2EdgeAndCircleContact@@8 0044400c     Box2D:b2EdgeAndCircleContact.obj
 0002:00003028       ??_R3b2EdgeAndCircleContact@@8 00444028     Box2D:b2EdgeAndCircleContact.obj
 0002:00003038       ??_R4b2EdgeAndCircleContact@@6B@ 00444038     Box2D:b2EdgeAndCircleContact.obj
 0002:0000304c       ??_R4b2ChainShape@@6B@     0044404c     Box2D:b2ChainShape.obj
 0002:00003060       ??_R2b2ChainShape@@8       00444060     Box2D:b2ChainShape.obj
 0002:0000306c       ??_R3b2ChainShape@@8       0044406c     Box2D:b2ChainShape.obj
 0002:0000307c       ??_R1A@?0A@EA@b2ChainShape@@8 0044407c     Box2D:b2ChainShape.obj
 0002:00003098       ??_R2Managed_Object@@8     00444098     HyMMS:Managed_Object.obj
 0002:000030a0       ??_R2_System_error_category@std@@8 004440a0     HyMMS:Managed_Object.obj
 0002:000030b0       ??_R2_Iostream_error_category@std@@8 004440b0     HyMMS:Managed_Object.obj
 0002:000030c0       ??_R2_Generic_error_category@std@@8 004440c0     HyMMS:Managed_Object.obj
 0002:000030cc       ??_R2error_category@std@@8 004440cc     HyMMS:Managed_Object.obj
 0002:000030d4       ??_R2bad_alloc@std@@8      004440d4     HyMMS:Managed_Object.obj
 0002:000030e0       ??_R2exception@std@@8      004440e0     HyMMS:Managed_Object.obj
 0002:000030e8       ??_R1A@?0A@EA@Managed_Object@@8 004440e8     HyMMS:Managed_Object.obj
 0002:00003104       ??_R1A@?0A@EA@_System_error_category@std@@8 00444104     HyMMS:Managed_Object.obj
 0002:00003120       ??_R1A@?0A@EA@_Iostream_error_category@std@@8 00444120     HyMMS:Managed_Object.obj
 0002:0000313c       ??_R1A@?0A@EA@_Generic_error_category@std@@8 0044413c     HyMMS:Managed_Object.obj
 0002:00003158       ??_R1A@?0A@EA@error_category@std@@8 00444158     HyMMS:Managed_Object.obj
 0002:00003174       ??_R1A@?0A@EA@bad_alloc@std@@8 00444174     HyMMS:Managed_Object.obj
 0002:00003190       ??_R1A@?0A@EA@exception@std@@8 00444190     HyMMS:Managed_Object.obj
 0002:000031ac       ??_R3Managed_Object@@8     004441ac     HyMMS:Managed_Object.obj
 0002:000031bc       ??_R3_System_error_category@std@@8 004441bc     HyMMS:Managed_Object.obj
 0002:000031cc       ??_R3_Iostream_error_category@std@@8 004441cc     HyMMS:Managed_Object.obj
 0002:000031dc       ??_R3_Generic_error_category@std@@8 004441dc     HyMMS:Managed_Object.obj
 0002:000031ec       ??_R3error_category@std@@8 004441ec     HyMMS:Managed_Object.obj
 0002:000031fc       ??_R3bad_alloc@std@@8      004441fc     HyMMS:Managed_Object.obj
 0002:0000320c       ??_R3exception@std@@8      0044420c     HyMMS:Managed_Object.obj
 0002:0000321c       ??_R4Managed_Object@@6B@   0044421c     HyMMS:Managed_Object.obj
 0002:00003230       ??_R4_System_error_category@std@@6B@ 00444230     HyMMS:Managed_Object.obj
 0002:00003244       ??_R4_Iostream_error_category@std@@6B@ 00444244     HyMMS:Managed_Object.obj
 0002:00003258       ??_R4_Generic_error_category@std@@6B@ 00444258     HyMMS:Managed_Object.obj
 0002:0000326c       ??_R4error_category@std@@6B@ 0044426c     HyMMS:Managed_Object.obj
 0002:00003280       ??_R4bad_alloc@std@@6B@    00444280     HyMMS:Managed_Object.obj
 0002:000032a0       ___safe_se_handler_table   004442a0     <linker-defined>
 0002:000033d4       ___rtc_iaa                 004443d4     MSVCRT:initsect.obj
 0002:000033d8       ___rtc_izz                 004443d8     MSVCRT:initsect.obj
 0002:000033dc       ___rtc_taa                 004443dc     MSVCRT:initsect.obj
 0002:000033e0       ___rtc_tzz                 004443e0     MSVCRT:initsect.obj
 0002:0000464c       __CTA2?AVbad_alloc@std@@   0044564c     HyMMS:Managed_Object.obj
 0002:00004658       __CTA1?AVexception@std@@   00445658     HyMMS:Managed_Object.obj
 0002:00004660       __CT??_R0?AVbad_alloc@std@@@8??0bad_alloc@std@@QAE@ABV01@@Z12 00445660     HyMMS:Managed_Object.obj
 0002:0000467c       __TI2?AVbad_alloc@std@@    0044567c     HyMMS:Managed_Object.obj
 0002:0000468c       __TI1?AVexception@std@@    0044568c     HyMMS:Managed_Object.obj
 0002:0000469c       __CT??_R0?AVexception@std@@@8??0exception@std@@QAE@ABV01@@Z12 0044569c     HyMMS:Managed_Object.obj
 0002:000048ac       __IMPORT_DESCRIPTOR_OPENGL32 004458ac     OpenGL32:OPENGL32.dll
 0002:000048c0       __IMPORT_DESCRIPTOR_GLU32  004458c0     GLU32:GLU32.dll
 0002:000048d4       __IMPORT_DESCRIPTOR_USER32 004458d4     user32:USER32.dll
 0002:000048e8       __IMPORT_DESCRIPTOR_GDI32  004458e8     gdi32:GDI32.dll
 0002:000048fc       __IMPORT_DESCRIPTOR_MSVCP110 004458fc     msvcprt:MSVCP110.dll
 0002:00004910       __IMPORT_DESCRIPTOR_MSVCR110 00445910     MSVCRT:MSVCR110.dll
 0002:00004924       __IMPORT_DESCRIPTOR_KERNEL32 00445924     kernel32:KERNEL32.dll
 0002:00004938       __NULL_IMPORT_DESCRIPTOR   00445938     OpenGL32:OPENGL32.dll
 0003:00000000       ??_R0?AVContentManager@@@8 00448000     ContentManager.obj
 0003:00000020       ??_R0?AVb2QueryCallback@@@8 00448020     Demo.obj
 0003:00000040       ??_R0?AVDemo@@@8           00448040     Demo.obj
 0003:00000054       ??_R0?AVGame@@@8           00448054     Demo.obj
 0003:00000068       ??_R0?AV?$Unmanaged_Array@V?$SmartHandle@VGameObject@@@@@@@8 00448068     Demo.obj
 0003:000000a8       ??_R0?AV?$Handle_Array@VGameObject@@@@@8 004480a8     Demo.obj
 0003:000000d4       ??_R0?AV?$Unmanaged_Array@V?$SmartHandle@VDemoButton@@@@@@@8 004480d4     Demo.obj
 0003:00000114       ??_R0?AV?$Handle_Array@VDemoButton@@@@@8 00448114     Demo.obj
 0003:00000140       ??_R0?AVQueryCallback@@@8  00448140     Demo.obj
 0003:0000015c       ??_R0?AVDemoButton@@@8     0044815c     DemoButton.obj
 0003:00000178       ??_R0?AVDemoContactListener@@@8 00448178     DemoContactListener.obj
 0003:000001a0       ??_R0?AV?$basic_stringbuf@DU?$char_traits@D@std@@V?$allocator@D@2@@std@@@8 004481a0     DemoDebugInfo.obj
 0003:000001f0       ??_R0?AV?$basic_streambuf@DU?$char_traits@D@std@@@std@@@8 004481f0     DemoDebugInfo.obj
 0003:00000230       ??_R0?AV?$basic_ostringstream@DU?$char_traits@D@std@@V?$allocator@D@2@@std@@@8 00448230     DemoDebugInfo.obj
 0003:00000284       ??_R0?AV?$basic_ostream@DU?$char_traits@D@std@@@std@@@8 00448284     DemoDebugInfo.obj
 0003:000002c0       ??_R0?AV?$basic_ios@DU?$char_traits@D@std@@@std@@@8 004482c0     DemoDebugInfo.obj
 0003:000002f8       ??_R0?AVios_base@std@@@8   004482f8     DemoDebugInfo.obj
 0003:00000314       ??_R0?AV?$_Iosb@H@std@@@8  00448314     DemoDebugInfo.obj
 0003:00000330       ??_R0?AVGameObject@@@8     00448330     GameObject.obj
 0003:0000034c       ??_R0?AVInputManager@@@8   0044834c     InputManager.obj
 0003:00000368       ?windowWidth@@3JA          00448368     ManagedDemo.obj
 0003:0000036c       ?windowHeight@@3JA         0044836c     ManagedDemo.obj
 0003:00000370       ?windowBits@@3JA           00448370     ManagedDemo.obj
 0003:00000374       ??_R0?AVPushButton@@@8     00448374     PushButton.obj
 0003:00000390       ??_R0?AVSpriteBatch@@@8    00448390     SpriteBatch.obj
 0003:000003ac       ??_R0?AVTexture2D@@@8      004483ac     Texture2D.obj
 0003:000003c4       ??_R0?AVToggleButton@@@8   004483c4     ToggleButton.obj
 0003:000003e0       ??_R0?AVWindowsInputManager@@@8 004483e0     WindowsInputManager.obj
 0003:00000404       ??_R0?AVtype_info@@@8      00448404     MSVCRT:ti_inst.obj
 0003:0000041c       ___security_cookie         0044841c     MSVCRT:gs_cookie.obj
 0003:00000420       ___security_cookie_complement 00448420     MSVCRT:gs_cookie.obj
 0003:00000430       ___defaultmatherr          00448430     MSVCRT:merr.obj
 0003:00000434       ___globallocalestatus      00448434     MSVCRT:xthdloc.obj
 0003:00000438       ___native_dllmain_reason   00448438     MSVCRT:natstart.obj
 0003:0000043c       ??_R0?AVb2PolygonShape@@@8 0044843c     Box2D:b2PolygonShape.obj
 0003:0000045c       ??_R0?AVb2Shape@@@8        0044845c     Box2D:b2PolygonShape.obj
 0003:00000474       ??_R0?AVb2Joint@@@8        00448474     Box2D:b2MouseJoint.obj
 0003:0000048c       ??_R0?AVb2MouseJoint@@@8   0044848c     Box2D:b2MouseJoint.obj
 0003:000004a8       ?s_blockSizes@b2BlockAllocator@@0PAHA 004484a8     Box2D:b2BlockAllocator.obj
 0003:000004e0       ?b2_version@@3Ub2Version@@A 004484e0     Box2D:b2Settings.obj
 0003:000004ec       ?LastAllocIndx@GC@@0IA     004484ec     HyMMS:GC.obj
 0003:000004f0       ?lastAlignment@GC@@0DA     004484f0     HyMMS:GC.obj
 0003:000004f1       ?nurCollFreq@GC@@0DA       004484f1     HyMMS:GC.obj
 0003:000004f2       ?collectorFlags@GC@@0DA    004484f2     HyMMS:GC.obj
 0003:000004f4       ?largeObjThreshold@GC@@0IA 004484f4     HyMMS:GC.obj
 0003:000004f8       ?LastPromotedIndx@GC@@0IA  004484f8     HyMMS:GC.obj
 0003:00000500       ?ticksPerSec@GCTimer@@0NA  00448500     HyMMS:GCTimer.obj
 0003:00000508       ?b2_defaultListener@@3Vb2ContactListener@@A 00448508     Box2D:b2ContactManager.obj
 0003:0000050c       ?b2_defaultFilter@@3Vb2ContactFilter@@A 0044850c     Box2D:b2ContactManager.obj
 0003:00000510       ??_R0?AVb2ContactFilter@@@8 00448510     Box2D:b2ContactManager.obj
 0003:00000530       ??_R0?AVb2ContactListener@@@8 00448530     Box2D:b2ContactManager.obj
 0003:00000550       ??_R0?AVb2Contact@@@8      00448550     Box2D:b2Contact.obj
 0003:00000568       ??_R0?AVb2PulleyJoint@@@8  00448568     Box2D:b2PulleyJoint.obj
 0003:00000584       ??_R0?AVb2Draw@@@8         00448584     Box2D:b2Draw.obj
 0003:0000059c       ??_R0?AVb2WeldJoint@@@8    0044859c     Box2D:b2WeldJoint.obj
 0003:000005b8       ??_R0?AVb2PrismaticJoint@@@8 004485b8     Box2D:b2PrismaticJoint.obj
 0003:000005d8       ??_R0?AVb2RevoluteJoint@@@8 004485d8     Box2D:b2RevoluteJoint.obj
 0003:000005f8       ??_R0?AVb2WheelJoint@@@8   004485f8     Box2D:b2WheelJoint.obj
 0003:00000614       ??_R0?AVb2RopeJoint@@@8    00448614     Box2D:b2RopeJoint.obj
 0003:00000630       ??_R0?AVb2GearJoint@@@8    00448630     Box2D:b2GearJoint.obj
 0003:0000064c       ??_R0?AVb2DistanceJoint@@@8 0044864c     Box2D:b2DistanceJoint.obj
 0003:0000066c       ??_R0?AVb2FrictionJoint@@@8 0044866c     Box2D:b2FrictionJoint.obj
 0003:0000068c       ??_R0?AVb2PolygonAndCircleContact@@@8 0044868c     Box2D:b2PolygonAndCircleContact.obj
 0003:000006b4       ??_R0?AVb2EdgeShape@@@8    004486b4     Box2D:b2ChainAndCircleContact.obj
 0003:000006d0       ??_R0?AVb2ChainAndCircleContact@@@8 004486d0     Box2D:b2ChainAndCircleContact.obj
 0003:000006f8       ??_R0?AVb2CircleContact@@@8 004486f8     Box2D:b2CircleContact.obj
 0003:00000718       ??_R0?AVb2EdgeAndPolygonContact@@@8 00448718     Box2D:b2EdgeAndPolygonContact.obj
 0003:00000740       ??_R0?AVb2PolygonContact@@@8 00448740     Box2D:b2PolygonContact.obj
 0003:00000760       ??_R0?AVb2ChainAndPolygonContact@@@8 00448760     Box2D:b2ChainAndPolygonContact.obj
 0003:00000788       ??_R0?AVb2EdgeAndCircleContact@@@8 00448788     Box2D:b2EdgeAndCircleContact.obj
 0003:000007b0       ??_R0?AVb2ChainShape@@@8   004487b0     Box2D:b2ChainShape.obj
 0003:000007cc       ??_R0?AVManaged_Object@@@8 004487cc     HyMMS:Managed_Object.obj
 0003:000007ec       ??_R0?AV_System_error_category@std@@@8 004487ec     HyMMS:Managed_Object.obj
 0003:00000818       ??_R0?AV_Iostream_error_category@std@@@8 00448818     HyMMS:Managed_Object.obj
 0003:00000844       ??_R0?AV_Generic_error_category@std@@@8 00448844     HyMMS:Managed_Object.obj
 0003:00000870       ??_R0?AVerror_category@std@@@8 00448870     HyMMS:Managed_Object.obj
 0003:00000894       ??_R0?AVbad_alloc@std@@@8  00448894     HyMMS:Managed_Object.obj
 0003:000008b0       ??_R0?AVexception@std@@@8  004488b0     HyMMS:Managed_Object.obj
 0003:000008cc       ?_Generic_object@?$_Error_objects@H@std@@2V_Generic_error_category@2@A 004488cc     HyMMS:Managed_Object.obj
 0003:000008d0       ?_Iostream_object@?$_Error_objects@H@std@@2V_Iostream_error_category@2@A 004488d0     HyMMS:Managed_Object.obj
 0003:000008d4       ?_System_object@?$_Error_objects@H@std@@2V_System_error_category@2@A 004488d4     HyMMS:Managed_Object.obj
 0003:000008dc       ?id@?$num_put@DV?$back_insert_iterator@V?$basic_string@DU?$char_traits@D@std@@V?$allocator@D@2@@std@@@std@@@std@@2V0locale@2@A 004488dc     ContentManager.obj
 0003:000008e0       ?id@?$num_put@_WV?$back_insert_iterator@V?$basic_string@_WU?$char_traits@_W@std@@V?$allocator@_W@2@@std@@@std@@@std@@2V0locale@2@A 004488e0     ContentManager.obj
 0003:000008e4       ?id@?$numpunct@D@std@@2V0locale@2@A 004488e4     ContentManager.obj
 0003:000008e8       ?id@?$numpunct@_W@std@@2V0locale@2@A 004488e8     ContentManager.obj
 0003:000008ec       ?wglSwapIntervalEXT@@3P6GHH@ZA 004488ec     Demo.obj
 0003:000008f8       ?id@?$num_put@DV?$ostreambuf_iterator@DU?$char_traits@D@std@@@std@@@std@@2V0locale@2@A 004488f8     DemoDebugInfo.obj
 0003:00000918       ?exiting@@3_NA             00448918     ManagedDemo.obj
 0003:0000091c       ?hDC@@3PAUHDC__@@A         0044891c     ManagedDemo.obj
 0003:00000920       ?g_Game@@3PAVGame@@A       00448920     ManagedDemo.obj
 0003:00000934       ___@@_PchSym_@00@UfhvihUgizerhUwlxfnvmghUyripyvxpUkilqvxgUxlwvUnzmztvwwvnlUnzmztvwwvnlUivovzhvUhgwzucOlyq@52253F788A32B703 00448934     stdafx.obj
 0003:00000c80       __commode                  00448c80     MSVCRT:xncommod.obj
 0003:00000c84       __dowildcard               00448c84     MSVCRT:wildcard.obj
 0003:00000c88       __newmode                  00448c88     MSVCRT:_newmode.obj
 0003:00000c8c       __fmode                    00448c8c     MSVCRT:xtxtmode.obj
 0003:00000c90       ?s_blockSizeLookupInitialized@b2BlockAllocator@@0_NA 00448c90     Box2D:b2BlockAllocator.obj
 0003:00000c91       ?s_initialized@b2Contact@@1_NA 00448c91     Box2D:b2Contact.obj
 0003:00000c92       ?lastObjPinned@GC@@0_NA    00448c92     HyMMS:GC.obj
 0003:00000c93       ?lastNurColl@GC@@0DA       00448c93     HyMMS:GC.obj
 0003:00000c94       ?b2_toiMaxRootIters@@3HA   00448c94     Box2D:b2TimeOfImpact.obj
 0003:00000c98       ?s_blockSizeLookup@b2BlockAllocator@@0PAEA 00448c98     Box2D:b2BlockAllocator.obj
 0003:00000f20       ?s_registers@b2Contact@@1PAY03Ub2ContactRegister@@A 00448f20     Box2D:b2Contact.obj
 0003:00000fe0       ?b2_toiMaxIters@@3HA       00448fe0     Box2D:b2TimeOfImpact.obj
 0003:00000fe4       ?b2_toiRootIters@@3HA      00448fe4     Box2D:b2TimeOfImpact.obj
 0003:00000fe8       ?b2_toiCalls@@3HA          00448fe8     Box2D:b2TimeOfImpact.obj
 0003:00000fec       ?b2_toiIters@@3HA          00448fec     Box2D:b2TimeOfImpact.obj
 0003:00000ff0       ?b2_gjkIters@@3HA          00448ff0     Box2D:b2Distance.obj
 0003:00000ff4       ?b2_gjkCalls@@3HA          00448ff4     Box2D:b2Distance.obj
 0003:00000ff8       ?b2_gjkMaxIters@@3HA       00448ff8     Box2D:b2Distance.obj
 0003:00000ffc       ?lastAllocSize@GC@@0IA     00448ffc     HyMMS:GC.obj
 0003:00001000       ?s_invFrequency@b2Timer@@0NA 00449000     Box2D:b2Timer.obj
 0003:00001008       ?highestPinnedAddr@GC@@0PAXA 00449008     HyMMS:GC.obj
 0003:0000100c       ?lowestPinnedAddr@GC@@0PAXA 0044900c     HyMMS:GC.obj
 0003:00001010       ?firstPinnedObj@GC@@0PAXA  00449010     HyMMS:GC.obj
 0003:00001014       ?promoBuffEndPtr@GC@@0PAXA 00449014     HyMMS:GC.obj
 0003:00001018       ?nurGenPtr@GC@@0PAXA       00449018     HyMMS:GC.obj
 0003:0000101c       ?lastHandle@GC@@0PAXA      0044901c     HyMMS:GC.obj
 0003:00001020       ?collectorBudget@GC@@0NA   00449020     HyMMS:GC.obj
 0003:00001028       ?firstHandle@GC@@0PAXA     00449028     HyMMS:GC.obj
 0003:0000102c       ?tracer@GC@@0PAVTracer@@A  0044902c     HyMMS:GC.obj
 0003:00001030       ?compactor@GC@@0PAVCompactor@@A 00449030     HyMMS:GC.obj
 0003:00001034       ?allocator@GC@@0PAVAllocator@@A 00449034     HyMMS:GC.obj
 0003:00001038       ?refTable@GC@@0PAV?$vector@URefEntry@GC@@V?$allocator@URefEntry@GC@@@std@@@std@@A 00449038     HyMMS:GC.obj
 0003:00001078       ?nurseryRoots@GC@@0V?$vector@IV?$allocator@I@std@@@std@@A 00449078     HyMMS:GC.obj
 0003:00001088       ?b2Vec2_zero@@3Ub2Vec2@@B  00449088     Box2D:b2Math.obj
 0003:00001090       ___@@_PchSym_@00@UfhvihUgizerhUwlxfnvmghUyripyvxpUkilqvxgUxlwvUfmnzmztvwwvnlUsbnnhUivovzhvUhgwzucOlyq@FF03E234AFD4ACD7 00449090     HyMMS:stdafx.obj
 0003:00001094       ___native_startup_lock     00449094     <common>
 0003:00001098       ___native_startup_state    00449098     <common>
 0003:0000109c       ___dyn_tls_init_callback   0044909c     <common>
 0003:000010a0       ___onexitend               004490a0     <common>
 0003:000010a4       ___onexitbegin             004490a4     <common>

 entry point at        0001:0003c1b3

 Static symbols

 0000:fffad000       .debug$S                   00400000     MSVCRT:MSVCR110.dll
 0000:fffad000       .debug$S                   00400000     MSVCRT:MSVCR110.dll
 0000:fffad000       .debug$S                   00400000     MSVCRT:MSVCR110.dll
 0000:fffad000       .debug$S                   00400000     MSVCRT:MSVCR110.dll
 0000:fffad000       .debug$S                   00400000     MSVCRT:MSVCR110.dll
 0000:fffad000       .debug$S                   00400000     MSVCRT:MSVCR110.dll
 0000:fffad000       .debug$S                   00400000     MSVCRT:MSVCR110.dll
 0000:fffad000       .debug$S                   00400000     MSVCRT:MSVCR110.dll
 0000:fffad000       .debug$S                   00400000     MSVCRT:MSVCR110.dll
 0000:fffad000       .debug$S                   00400000     MSVCRT:MSVCR110.dll
 0000:fffad000       .debug$S                   00400000     MSVCRT:MSVCR110.dll
 0000:fffad000       .debug$S                   00400000     MSVCRT:MSVCR110.dll
 0000:fffad000       .debug$S                   00400000     MSVCRT:MSVCR110.dll
 0000:fffad000       .debug$S                   00400000     MSVCRT:MSVCR110.dll
 0000:fffad000       .debug$S                   00400000     MSVCRT:MSVCR110.dll
 0000:fffad000       .debug$S                   00400000     MSVCRT:MSVCR110.dll
 0000:fffad000       .debug$S                   00400000     MSVCRT:MSVCR110.dll
 0000:fffad000       .debug$S                   00400000     MSVCRT:MSVCR110.dll
 0000:fffad000       .debug$S                   00400000     MSVCRT:MSVCR110.dll
 0000:fffad000       .debug$S                   00400000     MSVCRT:MSVCR110.dll
 0000:fffad000       .debug$S                   00400000     MSVCRT:MSVCR110.dll
 0000:fffad000       .debug$S                   00400000     MSVCRT:MSVCR110.dll
 0000:fffad000       .debug$S                   00400000     MSVCRT:MSVCR110.dll
 0000:fffad000       .debug$S                   00400000     MSVCRT:MSVCR110.dll
 0000:fffad000       .debug$S                   00400000     MSVCRT:MSVCR110.dll
 0000:fffad000       .debug$S                   00400000     MSVCRT:MSVCR110.dll
 0000:fffad000       .debug$S                   00400000     MSVCRT:MSVCR110.dll
 0000:fffad000       .debug$S                   00400000     MSVCRT:MSVCR110.dll
 0000:fffad000       .debug$S                   00400000     MSVCRT:MSVCR110.dll
 0000:fffad000       .debug$S                   00400000     MSVCRT:MSVCR110.dll
 0000:fffad000       .debug$S                   00400000     MSVCRT:MSVCR110.dll
 0000:fffad000       .debug$S                   00400000     MSVCRT:MSVCR110.dll
 0000:fffad000       .debug$S                   00400000     MSVCRT:MSVCR110.dll
 0000:fffad000       .debug$S                   00400000     MSVCRT:MSVCR110.dll
 0000:fffad000       .debug$S                   00400000     MSVCRT:MSVCR110.dll
 0000:fffad000       .debug$S                   00400000     MSVCRT:MSVCR110.dll
 0000:fffad000       .debug$S                   00400000     MSVCRT:MSVCR110.dll
 0000:fffad000       .debug$S                   00400000     MSVCRT:MSVCR110.dll
 0000:fffad000       .debug$S                   00400000     MSVCRT:MSVCR110.dll
 0000:fffad000       .debug$S                   00400000     MSVCRT:MSVCR110.dll
 0000:fffad000       .debug$S                   00400000     MSVCRT:MSVCR110.dll
 0000:fffad000       .debug$S                   00400000     MSVCRT:MSVCR110.dll
 0000:fffad000       .debug$S                   00400000     MSVCRT:MSVCR110.dll
 0000:fffad000       .debug$S                   00400000     MSVCRT:MSVCR110.dll
 0000:fffad000       .debug$S                   00400000     MSVCRT:MSVCR110.dll
 0000:fffad000       .debug$S                   00400000     MSVCRT:MSVCR110.dll
 0000:fffad000       .debug$S                   00400000     MSVCRT:MSVCR110.dll
 0000:fffad000       .debug$S                   00400000     MSVCRT:MSVCR110.dll
 0000:fffad000       .debug$S                   00400000     MSVCRT:MSVCR110.dll
 0000:fffad000       .debug$S                   00400000     MSVCRT:MSVCR110.dll
 0000:fffad000       .debug$S                   00400000     MSVCRT:MSVCR110.dll
 0000:fffad000       .debug$S                   00400000     MSVCRT:MSVCR110.dll
 0000:fffad000       .debug$S                   00400000     MSVCRT:MSVCR110.dll
 0000:fffad000       .debug$S                   00400000     MSVCRT:MSVCR110.dll
 0000:fffad000       .debug$S                   00400000     MSVCRT:MSVCR110.dll
 0000:fffad000       .debug$S                   00400000     MSVCRT:MSVCR110.dll
 0000:fffad000       .debug$S                   00400000     MSVCRT:MSVCR110.dll
 0000:fffad000       .debug$S                   00400000     MSVCRT:MSVCR110.dll
 0000:fffad000       .debug$S                   00400000     MSVCRT:MSVCR110.dll
 0000:fffad000       .debug$S                   00400000     MSVCRT:MSVCR110.dll
 0000:fffad000       .debug$S                   00400000     MSVCRT:MSVCR110.dll
 0000:fffad000       .debug$S                   00400000     MSVCRT:MSVCR110.dll
 0000:fffad000       .debug$S                   00400000     msvcprt:MSVCP110.dll
 0000:fffad000       .debug$S                   00400000     msvcprt:MSVCP110.dll
 0000:fffad000       .debug$S                   00400000     msvcprt:MSVCP110.dll
 0000:fffad000       .debug$S                   00400000     msvcprt:MSVCP110.dll
 0000:fffad000       .debug$S                   00400000     msvcprt:MSVCP110.dll
 0000:fffad000       .debug$S                   00400000     msvcprt:MSVCP110.dll
 0000:fffad000       .debug$S                   00400000     msvcprt:MSVCP110.dll
 0000:fffad000       .debug$S                   00400000     msvcprt:MSVCP110.dll
 0000:fffad000       .debug$S                   00400000     msvcprt:MSVCP110.dll
 0000:fffad000       .debug$S                   00400000     msvcprt:MSVCP110.dll
 0000:fffad000       .debug$S                   00400000     msvcprt:MSVCP110.dll
 0000:fffad000       .debug$S                   00400000     msvcprt:MSVCP110.dll
 0000:fffad000       .debug$S                   00400000     msvcprt:MSVCP110.dll
 0000:fffad000       .debug$S                   00400000     msvcprt:MSVCP110.dll
 0000:fffad000       .debug$S                   00400000     msvcprt:MSVCP110.dll
 0000:fffad000       .debug$S                   00400000     msvcprt:MSVCP110.dll
 0000:fffad000       .debug$S                   00400000     msvcprt:MSVCP110.dll
 0000:fffad000       .debug$S                   00400000     msvcprt:MSVCP110.dll
 0000:fffad000       .debug$S                   00400000     msvcprt:MSVCP110.dll
 0000:fffad000       .debug$S                   00400000     msvcprt:MSVCP110.dll
 0000:fffad000       .debug$S                   00400000     msvcprt:MSVCP110.dll
 0000:fffad000       .debug$S                   00400000     msvcprt:MSVCP110.dll
 0000:fffad000       .debug$S                   00400000     msvcprt:MSVCP110.dll
 0000:fffad000       .debug$S                   00400000     msvcprt:MSVCP110.dll
 0000:fffad000       .debug$S                   00400000     msvcprt:MSVCP110.dll
 0000:fffad000       .debug$S                   00400000     msvcprt:MSVCP110.dll
 0000:fffad000       .debug$S                   00400000     msvcprt:MSVCP110.dll
 0000:fffad000       .debug$S                   00400000     msvcprt:MSVCP110.dll
 0000:fffad000       .debug$S                   00400000     msvcprt:MSVCP110.dll
 0000:fffad000       .debug$S                   00400000     msvcprt:MSVCP110.dll
 0000:fffad000       .debug$S                   00400000     msvcprt:MSVCP110.dll
 0000:fffad000       .debug$S                   00400000     msvcprt:MSVCP110.dll
 0000:fffad000       .debug$S                   00400000     msvcprt:MSVCP110.dll
 0000:fffad000       .debug$S                   00400000     msvcprt:MSVCP110.dll
 0000:fffad000       .debug$S                   00400000     msvcprt:MSVCP110.dll
 0000:fffad000       .debug$S                   00400000     msvcprt:MSVCP110.dll
 0000:fffad000       .debug$S                   00400000     msvcprt:MSVCP110.dll
 0000:fffad000       .debug$S                   00400000     msvcprt:MSVCP110.dll
 0000:fffad000       .debug$S                   00400000     msvcprt:MSVCP110.dll
 0000:fffad000       .debug$S                   00400000     msvcprt:MSVCP110.dll
 0000:fffad000       .debug$S                   00400000     msvcprt:MSVCP110.dll
 0000:fffad000       .debug$S                   00400000     msvcprt:MSVCP110.dll
 0000:fffad000       .debug$S                   00400000     msvcprt:MSVCP110.dll
 0000:fffad000       .debug$S                   00400000     msvcprt:MSVCP110.dll
 0000:fffad000       .debug$S                   00400000     msvcprt:MSVCP110.dll
 0000:fffad000       .debug$S                   00400000     msvcprt:MSVCP110.dll
 0000:fffad000       .debug$S                   00400000     msvcprt:MSVCP110.dll
 0000:fffad000       .debug$S                   00400000     msvcprt:MSVCP110.dll
 0000:fffad000       .debug$S                   00400000     msvcprt:MSVCP110.dll
 0000:fffad000       .debug$S                   00400000     msvcprt:MSVCP110.dll
 0000:fffad000       .debug$S                   00400000     msvcprt:MSVCP110.dll
 0000:fffad000       .debug$S                   00400000     msvcprt:MSVCP110.dll
 0000:fffad000       .debug$S                   00400000     msvcprt:MSVCP110.dll
 0000:fffad000       .debug$S                   00400000     msvcprt:MSVCP110.dll
 0000:fffad000       .debug$S                   00400000     msvcprt:MSVCP110.dll
 0000:fffad000       .debug$S                   00400000     gdi32:GDI32.dll
 0000:fffad000       .debug$S                   00400000     gdi32:GDI32.dll
 0000:fffad000       .debug$S                   00400000     gdi32:GDI32.dll
 0000:fffad000       .debug$S                   00400000     user32:USER32.dll
 0000:fffad000       .debug$S                   00400000     user32:USER32.dll
 0000:fffad000       .debug$S                   00400000     user32:USER32.dll
 0000:fffad000       .debug$S                   00400000     user32:USER32.dll
 0000:fffad000       .debug$S                   00400000     user32:USER32.dll
 0000:fffad000       .debug$S                   00400000     user32:USER32.dll
 0000:fffad000       .debug$S                   00400000     user32:USER32.dll
 0000:fffad000       .debug$S                   00400000     user32:USER32.dll
 0000:fffad000       .debug$S                   00400000     user32:USER32.dll
 0000:fffad000       .debug$S                   00400000     user32:USER32.dll
 0000:fffad000       .debug$S                   00400000     user32:USER32.dll
 0000:fffad000       .debug$S                   00400000     user32:USER32.dll
 0000:fffad000       .debug$S                   00400000     user32:USER32.dll
 0000:fffad000       .debug$S                   00400000     user32:USER32.dll
 0000:fffad000       .debug$S                   00400000     user32:USER32.dll
 0000:fffad000       .debug$S                   00400000     user32:USER32.dll
 0000:fffad000       .debug$S                   00400000     user32:USER32.dll
 0000:fffad000       .debug$S                   00400000     user32:USER32.dll
 0000:fffad000       .debug$S                   00400000     kernel32:KERNEL32.dll
 0000:fffad000       .debug$S                   00400000     kernel32:KERNEL32.dll
 0000:fffad000       .debug$S                   00400000     kernel32:KERNEL32.dll
 0000:fffad000       .debug$S                   00400000     kernel32:KERNEL32.dll
 0000:fffad000       .debug$S                   00400000     kernel32:KERNEL32.dll
 0000:fffad000       .debug$S                   00400000     kernel32:KERNEL32.dll
 0000:fffad000       .debug$S                   00400000     kernel32:KERNEL32.dll
 0000:fffad000       .debug$S                   00400000     kernel32:KERNEL32.dll
 0000:fffad000       .debug$S                   00400000     kernel32:KERNEL32.dll
 0000:fffad000       .debug$S                   00400000     GLU32:GLU32.dll
 0000:fffad000       .debug$S                   00400000     OpenGL32:OPENGL32.dll
 0000:fffad000       .debug$S                   00400000     OpenGL32:OPENGL32.dll
 0000:fffad000       .debug$S                   00400000     OpenGL32:OPENGL32.dll
 0000:fffad000       .debug$S                   00400000     OpenGL32:OPENGL32.dll
 0000:fffad000       .debug$S                   00400000     OpenGL32:OPENGL32.dll
 0000:fffad000       .debug$S                   00400000     OpenGL32:OPENGL32.dll
 0000:fffad000       .debug$S                   00400000     OpenGL32:OPENGL32.dll
 0000:fffad000       .debug$S                   00400000     OpenGL32:OPENGL32.dll
 0000:fffad000       .debug$S                   00400000     OpenGL32:OPENGL32.dll
 0000:fffad000       .debug$S                   00400000     OpenGL32:OPENGL32.dll
 0000:fffad000       .debug$S                   00400000     OpenGL32:OPENGL32.dll
 0000:fffad000       .debug$S                   00400000     OpenGL32:OPENGL32.dll
 0000:fffad000       .debug$S                   00400000     OpenGL32:OPENGL32.dll
 0000:fffad000       .debug$S                   00400000     OpenGL32:OPENGL32.dll
 0001:fffff000       __ehhandler$?_Copy@?$basic_string@DU?$char_traits@D@std@@V?$allocator@D@2@@std@@QAEXII@Z 00400000 f   ToggleButton.obj
 0002:fffbf000       __catchsym$?_Copy@?$basic_string@DU?$char_traits@D@std@@V?$allocator@D@2@@std@@QAEXII@Z$5 00400000     ManagedDemo.obj
 0001:fffff000       __unwindfunclet$??$construct@PADAAPAD@?$allocator@D@std@@QAEXPAPADAAPAD@Z$0 00400000 f   ManagedDemo.obj
 0000:fffad000       .debug$S                   00400000     OpenGL32:OPENGL32.dll
 0000:fffad000       .debug$S                   00400000     OpenGL32:OPENGL32.dll
 0000:fffad000       .debug$S                   00400000     OpenGL32:OPENGL32.dll
 0001:fffff000       __ehhandler$?_Copy@?$basic_string@DU?$char_traits@D@std@@V?$allocator@D@2@@std@@QAEXII@Z 00400000 f   ManagedDemo.obj
 0001:fffff000       __unwindfunclet$??$construct@PADAAPAD@?$allocator@D@std@@QAEXPAPADAAPAD@Z$0 00400000 f   ToggleButton.obj
 0002:fffbf000       __unwindtable$??$construct@PADAAPAD@?$allocator@D@std@@QAEXPAPADAAPAD@Z 00400000     ManagedDemo.obj
 0002:fffbf000       ?_Generic_object$initializer$@?$_Error_objects@H@std@@2P6AXXZA 00400000     ManagedDemo.obj
 0002:fffbf000       ?_Iostream_object$initializer$@?$_Error_objects@H@std@@2P6AXXZA 00400000     ManagedDemo.obj
 0002:fffbf000       ?_System_object$initializer$@?$_Error_objects@H@std@@2P6AXXZA 00400000     ManagedDemo.obj
 0002:fffbf000       __catchsym$?_Copy@?$basic_string@DU?$char_traits@D@std@@V?$allocator@D@2@@std@@QAEXII@Z$5 00400000     ToggleButton.obj
 0000:fffad000       .debug$S                   00400000     OpenGL32:OPENGL32.dll
 0000:fffad000       .debug$S                   00400000     OpenGL32:OPENGL32.dll
 0002:fffbf000       ?id$initializer$@?$num_put@DV?$back_insert_iterator@V?$basic_string@DU?$char_traits@D@std@@V?$allocator@D@2@@std@@@std@@@std@@2P6AXXZA 00400000     ManagedDemo.obj
 0002:fffbf000       __unwindtable$??$construct@PADAAPAD@?$allocator@D@std@@QAEXPAPADAAPAD@Z 00400000     ToggleButton.obj
 0000:fffad000       .debug$S                   00400000     OpenGL32:OPENGL32.dll
 0000:fffad000       .debug$S                   00400000     OpenGL32:OPENGL32.dll
 0000:fffad000       .debug$S                   00400000     OpenGL32:OPENGL32.dll
 0000:fffad000       .debug$S                   00400000     OpenGL32:OPENGL32.dll
 0002:fffbf000       ?_Generic_object$initializer$@?$_Error_objects@H@std@@2P6AXXZA 00400000     ToggleButton.obj
 0002:fffbf000       ?_Iostream_object$initializer$@?$_Error_objects@H@std@@2P6AXXZA 00400000     ToggleButton.obj
 0002:fffbf000       ?_System_object$initializer$@?$_Error_objects@H@std@@2P6AXXZA 00400000     ToggleButton.obj
 0002:fffbf000       ?id$initializer$@?$num_put@DV?$back_insert_iterator@V?$basic_string@DU?$char_traits@D@std@@V?$allocator@D@2@@std@@@std@@@std@@2P6AXXZA 00400000     ToggleButton.obj
 0002:fffbf000       ?id$initializer$@?$num_put@_WV?$back_insert_iterator@V?$basic_string@_WU?$char_traits@_W@std@@V?$allocator@_W@2@@std@@@std@@@std@@2P6AXXZA 00400000     ToggleButton.obj
 0002:fffbf000       ?id$initializer$@?$numpunct@D@std@@2P6AXXZA 00400000     ToggleButton.obj
 0002:fffbf000       ?id$initializer$@?$numpunct@_W@std@@2P6AXXZA 00400000     ToggleButton.obj
 0000:fffad000       .debug$S                   00400000     OpenGL32:OPENGL32.dll
 0000:fffad000       .debug$S                   00400000     OpenGL32:OPENGL32.dll
 0000:fffad000       .debug$S                   00400000     OpenGL32:OPENGL32.dll
 0002:fffbf000       ?_System_object$initializer$@?$_Error_objects@H@std@@2P6AXXZA 00400000     ContentManager.obj
 0002:fffbf000       ?_Iostream_object$initializer$@?$_Error_objects@H@std@@2P6AXXZA 00400000     ContentManager.obj
 0002:fffbf000       ?_Generic_object$initializer$@?$_Error_objects@H@std@@2P6AXXZA 00400000     ContentManager.obj
 0002:fffbf000       __unwindtable$??$construct@PADAAPAD@?$allocator@D@std@@QAEXPAPADAAPAD@Z 00400000     ContentManager.obj
 0002:fffbf000       ?id$initializer$@?$num_put@_WV?$back_insert_iterator@V?$basic_string@_WU?$char_traits@_W@std@@V?$allocator@_W@2@@std@@@std@@@std@@2P6AXXZA 00400000     ManagedDemo.obj
 0001:fffff000       __ehhandler$?_Copy@?$basic_string@DU?$char_traits@D@std@@V?$allocator@D@2@@std@@QAEXII@Z 00400000 f   Texture2D.obj
 0002:fffbf000       ?id$initializer$@?$numpunct@D@std@@2P6AXXZA 00400000     ManagedDemo.obj
 0002:fffbf000       ?id$initializer$@?$numpunct@_W@std@@2P6AXXZA 00400000     ManagedDemo.obj
 0002:fffbf000       __catchsym$?_Copy@?$basic_string@DU?$char_traits@D@std@@V?$allocator@D@2@@std@@QAEXII@Z$5 00400000     ContentManager.obj
 0001:fffff000       __ehhandler$?_Copy@?$basic_string@DU?$char_traits@D@std@@V?$allocator@D@2@@std@@QAEXII@Z 00400000 f   GameObject.obj
 0002:fffbf000       ?id$initializer$@?$numpunct@_W@std@@2P6AXXZA 00400000     PushButton.obj
 0002:fffbf000       ?id$initializer$@?$numpunct@D@std@@2P6AXXZA 00400000     PushButton.obj
 0002:fffbf000       ?id$initializer$@?$num_put@_WV?$back_insert_iterator@V?$basic_string@_WU?$char_traits@_W@std@@V?$allocator@_W@2@@std@@@std@@@std@@2P6AXXZA 00400000     PushButton.obj
 0001:fffff000       __unwindfunclet$??$construct@PADAAPAD@?$allocator@D@std@@QAEXPAPADAAPAD@Z$0 00400000 f   Texture2D.obj
 0002:fffbf000       ?id$initializer$@?$num_put@DV?$back_insert_iterator@V?$basic_string@DU?$char_traits@D@std@@V?$allocator@D@2@@std@@@std@@@std@@2P6AXXZA 00400000     PushButton.obj
 0002:fffbf000       ?_System_object$initializer$@?$_Error_objects@H@std@@2P6AXXZA 00400000     PushButton.obj
 0002:fffbf000       ?_Iostream_object$initializer$@?$_Error_objects@H@std@@2P6AXXZA 00400000     PushButton.obj
 0002:fffbf000       ?_Generic_object$initializer$@?$_Error_objects@H@std@@2P6AXXZA 00400000     PushButton.obj
 0002:fffbf000       __catchsym$?_Copy@?$basic_string@DU?$char_traits@D@std@@V?$allocator@D@2@@std@@QAEXII@Z$5 00400000     Texture2D.obj
 0001:fffff000       __unwindfunclet$??$construct@PADAAPAD@?$allocator@D@std@@QAEXPAPADAAPAD@Z$0 00400000 f   GameObject.obj
 0001:fffff000       __unwindfunclet$??$construct@PADAAPAD@?$allocator@D@std@@QAEXPAPADAAPAD@Z$0 00400000 f   ContentManager.obj
 0002:fffbf000       __unwindtable$??$construct@PADAAPAD@?$allocator@D@std@@QAEXPAPADAAPAD@Z 00400000     PushButton.obj
 0002:fffbf000       __unwindtable$??$construct@PADAAPAD@?$allocator@D@std@@QAEXPAPADAAPAD@Z 00400000     Texture2D.obj
 0002:fffbf000       __catchsym$?_Copy@?$basic_string@DU?$char_traits@D@std@@V?$allocator@D@2@@std@@QAEXII@Z$5 00400000     GameObject.obj
 0002:fffbf000       __catchsym$?_Copy@?$basic_string@DU?$char_traits@D@std@@V?$allocator@D@2@@std@@QAEXII@Z$5 00400000     PushButton.obj
 0001:fffff000       __unwindfunclet$??$construct@PADAAPAD@?$allocator@D@std@@QAEXPAPADAAPAD@Z$0 00400000 f   PushButton.obj
 0001:fffff000       __ehhandler$?_Copy@?$basic_string@DU?$char_traits@D@std@@V?$allocator@D@2@@std@@QAEXII@Z 00400000 f   ContentManager.obj
 0002:fffbf000       ?_Generic_object$initializer$@?$_Error_objects@H@std@@2P6AXXZA 00400000     Texture2D.obj
 0002:fffbf000       ?_Iostream_object$initializer$@?$_Error_objects@H@std@@2P6AXXZA 00400000     Texture2D.obj
 0002:fffbf000       ?_System_object$initializer$@?$_Error_objects@H@std@@2P6AXXZA 00400000     Texture2D.obj
 0002:fffbf000       ?id$initializer$@?$numpunct@_W@std@@2P6AXXZA 00400000     Demo.obj
 0002:fffbf000       ?id$initializer$@?$numpunct@D@std@@2P6AXXZA 00400000     Demo.obj
 0002:fffbf000       ?id$initializer$@?$num_put@_WV?$back_insert_iterator@V?$basic_string@_WU?$char_traits@_W@std@@V?$allocator@_W@2@@std@@@std@@@std@@2P6AXXZA 00400000     Demo.obj
 0002:fffbf000       ?id$initializer$@?$num_put@DV?$back_insert_iterator@V?$basic_string@DU?$char_traits@D@std@@V?$allocator@D@2@@std@@@std@@@std@@2P6AXXZA 00400000     Demo.obj
 0002:fffbf000       ?_System_object$initializer$@?$_Error_objects@H@std@@2P6AXXZA 00400000     Demo.obj
 0002:fffbf000       ?_Iostream_object$initializer$@?$_Error_objects@H@std@@2P6AXXZA 00400000     Demo.obj
 0002:fffbf000       ?_Generic_object$initializer$@?$_Error_objects@H@std@@2P6AXXZA 00400000     Demo.obj
 0002:fffbf000       __unwindtable$??$construct@PADAAPAD@?$allocator@D@std@@QAEXPAPADAAPAD@Z 00400000     Demo.obj
 0001:fffff000       __ehhandler$?_Copy@?$basic_string@DU?$char_traits@D@std@@V?$allocator@D@2@@std@@QAEXII@Z 00400000 f   SpriteBatch.obj
 0002:fffbf000       __unwindtable$??$construct@PADAAPAD@?$allocator@D@std@@QAEXPAPADAAPAD@Z 00400000     GameObject.obj
 0002:fffbf000       ?_Generic_object$initializer$@?$_Error_objects@H@std@@2P6AXXZA 00400000     GameObject.obj
 0001:fffff000       __ehhandler$?_Copy@?$basic_string@DU?$char_traits@D@std@@V?$allocator@D@2@@std@@QAEXII@Z 00400000 f   PushButton.obj
 0002:fffbf000       __unwindtable$??0b2PolygonShape@@QAE@XZ 00400000     Demo.obj
 0002:fffbf000       ?_Iostream_object$initializer$@?$_Error_objects@H@std@@2P6AXXZA 00400000     GameObject.obj
 0002:fffbf000       __catchsym$?_Copy@?$basic_string@DU?$char_traits@D@std@@V?$allocator@D@2@@std@@QAEXII@Z$5 00400000     Demo.obj
 0002:fffbf000       ?_System_object$initializer$@?$_Error_objects@H@std@@2P6AXXZA 00400000     GameObject.obj
 0001:fffff000       __ehhandler$?_Copy@?$basic_string@DU?$char_traits@D@std@@V?$allocator@D@2@@std@@QAEXII@Z 00400000 f   Game.obj
 0001:fffff000       __unwindfunclet$??$construct@PADAAPAD@?$allocator@D@std@@QAEXPAPADAAPAD@Z$0 00400000 f   Game.obj
 0002:fffbf000       __catchsym$?_Copy@?$basic_string@DU?$char_traits@D@std@@V?$allocator@D@2@@std@@QAEXII@Z$5 00400000     Game.obj
 0001:fffff000       __unwindfunclet$??$construct@PADAAPAD@?$allocator@D@std@@QAEXPAPADAAPAD@Z$0 00400000 f   Demo.obj
 0002:fffbf000       ?_System_object$initializer$@?$_Error_objects@H@std@@2P6AXXZA 00400000     SpriteBatch.obj
 0001:fffff000       __unwindfunclet$??0b2PolygonShape@@QAE@XZ$0 00400000 f   Demo.obj
 0002:fffbf000       ?_Iostream_object$initializer$@?$_Error_objects@H@std@@2P6AXXZA 00400000     SpriteBatch.obj
 0002:fffbf000       ?_Generic_object$initializer$@?$_Error_objects@H@std@@2P6AXXZA 00400000     SpriteBatch.obj
 0002:fffbf000       __unwindtable$??$construct@PADAAPAD@?$allocator@D@std@@QAEXPAPADAAPAD@Z 00400000     Game.obj
 0001:fffff000       __ehhandler$?_Copy@?$basic_string@DU?$char_traits@D@std@@V?$allocator@D@2@@std@@QAEXII@Z 00400000 f   Demo.obj
 0002:fffbf000       ?_System_object$initializer$@?$_Error_objects@H@std@@2P6AXXZA 00400000     DemoButton.obj
 0002:fffbf000       ?_Iostream_object$initializer$@?$_Error_objects@H@std@@2P6AXXZA 00400000     DemoButton.obj
 0002:fffbf000       ?_Generic_object$initializer$@?$_Error_objects@H@std@@2P6AXXZA 00400000     DemoButton.obj
 0002:fffbf000       __unwindtable$??$construct@PADAAPAD@?$allocator@D@std@@QAEXPAPADAAPAD@Z 00400000     DemoButton.obj
 0002:fffbf000       ?_Generic_object$initializer$@?$_Error_objects@H@std@@2P6AXXZA 00400000     Game.obj
 0002:fffbf000       __catchsym$?_Copy@?$basic_string@DU?$char_traits@D@std@@V?$allocator@D@2@@std@@QAEXII@Z$5 00400000     DemoButton.obj
 0002:fffbf000       ?_Iostream_object$initializer$@?$_Error_objects@H@std@@2P6AXXZA 00400000     Game.obj
 0002:fffbf000       ?_System_object$initializer$@?$_Error_objects@H@std@@2P6AXXZA 00400000     Game.obj
 0002:fffbf000       ?id$initializer$@?$num_put@DV?$back_insert_iterator@V?$basic_string@DU?$char_traits@D@std@@V?$allocator@D@2@@std@@@std@@@std@@2P6AXXZA 00400000     Game.obj
 0002:fffbf000       ?id$initializer$@?$num_put@_WV?$back_insert_iterator@V?$basic_string@_WU?$char_traits@_W@std@@V?$allocator@_W@2@@std@@@std@@@std@@2P6AXXZA 00400000     Game.obj
 0001:fffff000       __unwindfunclet$??$construct@PADAAPAD@?$allocator@D@std@@QAEXPAPADAAPAD@Z$0 00400000 f   DemoButton.obj
 0002:fffbf000       ?id$initializer$@?$numpunct@D@std@@2P6AXXZA 00400000     Game.obj
 0002:fffbf000       ?id$initializer$@?$numpunct@_W@std@@2P6AXXZA 00400000     Game.obj
 0001:fffff000       __ehhandler$?_Copy@?$basic_string@DU?$char_traits@D@std@@V?$allocator@D@2@@std@@QAEXII@Z 00400000 f   DemoDebugInfo.obj
 0001:fffff000       __ehhandler$?_Copy@?$basic_string@DU?$char_traits@D@std@@V?$allocator@D@2@@std@@QAEXII@Z 00400000 f   DemoButton.obj
 0002:fffbf000       ?id$initializer$@?$numpunct@_W@std@@2P6AXXZA 00400000     DemoContactListener.obj
 0002:fffbf000       ?id$initializer$@?$numpunct@D@std@@2P6AXXZA 00400000     DemoContactListener.obj
 0002:fffbf000       ?id$initializer$@?$num_put@_WV?$back_insert_iterator@V?$basic_string@_WU?$char_traits@_W@std@@V?$allocator@_W@2@@std@@@std@@@std@@2P6AXXZA 00400000     DemoContactListener.obj
 0002:fffbf000       ?id$initializer$@?$num_put@DV?$back_insert_iterator@V?$basic_string@DU?$char_traits@D@std@@V?$allocator@D@2@@std@@@std@@@std@@2P6AXXZA 00400000     DemoContactListener.obj
 0002:fffbf000       ?_System_object$initializer$@?$_Error_objects@H@std@@2P6AXXZA 00400000     DemoContactListener.obj
 0002:fffbf000       ?_Iostream_object$initializer$@?$_Error_objects@H@std@@2P6AXXZA 00400000     DemoContactListener.obj
 0002:fffbf000       __unwindtable$??$construct@PADAAPAD@?$allocator@D@std@@QAEXPAPADAAPAD@Z 00400000     SpriteBatch.obj
 0001:fffff000       __unwindfunclet$??$construct@PADAAPAD@?$allocator@D@std@@QAEXPAPADAAPAD@Z$0 00400000 f   SpriteBatch.obj
 0002:fffbf000       ?_Generic_object$initializer$@?$_Error_objects@H@std@@2P6AXXZA 00400000     DemoContactListener.obj
 0002:fffbf000       __unwindtable$??$construct@PADAAPAD@?$allocator@D@std@@QAEXPAPADAAPAD@Z 00400000     DemoContactListener.obj
 0001:fffff000       __unwindfunclet$??$construct@PADAAPAD@?$allocator@D@std@@QAEXPAPADAAPAD@Z$0 00400000 f   DemoDebugInfo.obj
 0002:fffbf000       __catchsym$?_Copy@?$basic_string@DU?$char_traits@D@std@@V?$allocator@D@2@@std@@QAEXII@Z$5 00400000     DemoContactListener.obj
 0002:fffbf000       __catchsym$?_Copy@?$basic_string@DU?$char_traits@D@std@@V?$allocator@D@2@@std@@QAEXII@Z$5 00400000     DemoDebugInfo.obj
 0002:fffbf000       __unwindtable$??$construct@PADAAPAD@?$allocator@D@std@@QAEXPAPADAAPAD@Z 00400000     DemoDebugInfo.obj
 0002:fffbf000       ?_Generic_object$initializer$@?$_Error_objects@H@std@@2P6AXXZA 00400000     DemoDebugInfo.obj
 0002:fffbf000       ?_Iostream_object$initializer$@?$_Error_objects@H@std@@2P6AXXZA 00400000     DemoDebugInfo.obj
 0002:fffbf000       __catchsym$?_Copy@?$basic_string@DU?$char_traits@D@std@@V?$allocator@D@2@@std@@QAEXII@Z$5 00400000     SpriteBatch.obj
 0002:fffbf000       ?_System_object$initializer$@?$_Error_objects@H@std@@2P6AXXZA 00400000     DemoDebugInfo.obj
 0002:fffbf000       ?id$initializer$@?$num_put@DV?$back_insert_iterator@V?$basic_string@DU?$char_traits@D@std@@V?$allocator@D@2@@std@@@std@@@std@@2P6AXXZA 00400000     DemoDebugInfo.obj
 0002:fffbf000       ?id$initializer$@?$num_put@_WV?$back_insert_iterator@V?$basic_string@_WU?$char_traits@_W@std@@V?$allocator@_W@2@@std@@@std@@@std@@2P6AXXZA 00400000     DemoDebugInfo.obj
 0002:fffbf000       ?id$initializer$@?$numpunct@D@std@@2P6AXXZA 00400000     DemoDebugInfo.obj
 0001:fffff000       __unwindfunclet$??$construct@PADAAPAD@?$allocator@D@std@@QAEXPAPADAAPAD@Z$0 00400000 f   DemoContactListener.obj
 0002:fffbf000       ?id$initializer$@?$numpunct@_W@std@@2P6AXXZA 00400000     DemoDebugInfo.obj
 0001:fffff000       __ehhandler$?_Copy@?$basic_string@DU?$char_traits@D@std@@V?$allocator@D@2@@std@@QAEXII@Z 00400000 f   DemoContactListener.obj
 0002:fffbf008       __ehfuncinfo$??$construct@PADAAPAD@?$allocator@D@std@@QAEXPAPADAAPAD@Z 00400008     ManagedDemo.obj
 0002:fffbf008       __ehfuncinfo$??$construct@PADAAPAD@?$allocator@D@std@@QAEXPAPADAAPAD@Z 00400008     ToggleButton.obj
 0002:fffbf008       __ehfuncinfo$??$construct@PADAAPAD@?$allocator@D@std@@QAEXPAPADAAPAD@Z 00400008     ContentManager.obj
 0002:fffbf008       __ehfuncinfo$??$construct@PADAAPAD@?$allocator@D@std@@QAEXPAPADAAPAD@Z 00400008     Game.obj
 0001:fffff008       __ehhandler$??0b2PolygonShape@@QAE@XZ 00400008 f   Demo.obj
 0002:fffbf008       __ehfuncinfo$??$construct@PADAAPAD@?$allocator@D@std@@QAEXPAPADAAPAD@Z 00400008     Texture2D.obj
 0002:fffbf008       __ehfuncinfo$??$construct@PADAAPAD@?$allocator@D@std@@QAEXPAPADAAPAD@Z 00400008     SpriteBatch.obj
 0002:fffbf008       __ehfuncinfo$??$construct@PADAAPAD@?$allocator@D@std@@QAEXPAPADAAPAD@Z 00400008     DemoContactListener.obj
 0002:fffbf008       __ehfuncinfo$??$construct@PADAAPAD@?$allocator@D@std@@QAEXPAPADAAPAD@Z 00400008     PushButton.obj
 0002:fffbf008       __ehfuncinfo$??0b2PolygonShape@@QAE@XZ 00400008     Demo.obj
 0002:fffbf008       __ehfuncinfo$??$construct@PADAAPAD@?$allocator@D@std@@QAEXPAPADAAPAD@Z 00400008     DemoDebugInfo.obj
 0002:fffbf008       __ehfuncinfo$??$construct@PADAAPAD@?$allocator@D@std@@QAEXPAPADAAPAD@Z 00400008     Demo.obj
 0002:fffbf008       __ehfuncinfo$??$construct@PADAAPAD@?$allocator@D@std@@QAEXPAPADAAPAD@Z 00400008     DemoButton.obj
 0002:fffbf008       __ehfuncinfo$??$construct@PADAAPAD@?$allocator@D@std@@QAEXPAPADAAPAD@Z 00400008     GameObject.obj
 0002:fffbf010       __catchsym$?_Copy@?$basic_string@DU?$char_traits@D@std@@V?$allocator@D@2@@std@@QAEXII@Z$4 00400010     DemoDebugInfo.obj
 0002:fffbf010       __catchsym$?_Copy@?$basic_string@DU?$char_traits@D@std@@V?$allocator@D@2@@std@@QAEXII@Z$4 00400010     ManagedDemo.obj
 0002:fffbf010       __catchsym$?_Copy@?$basic_string@DU?$char_traits@D@std@@V?$allocator@D@2@@std@@QAEXII@Z$4 00400010     GameObject.obj
 0002:fffbf010       __catchsym$?_Copy@?$basic_string@DU?$char_traits@D@std@@V?$allocator@D@2@@std@@QAEXII@Z$4 00400010     SpriteBatch.obj
 0002:fffbf010       __catchsym$?_Copy@?$basic_string@DU?$char_traits@D@std@@V?$allocator@D@2@@std@@QAEXII@Z$4 00400010     Demo.obj
 0002:fffbf010       __catchsym$?_Copy@?$basic_string@DU?$char_traits@D@std@@V?$allocator@D@2@@std@@QAEXII@Z$4 00400010     ToggleButton.obj
 0002:fffbf010       __catchsym$?_Copy@?$basic_string@DU?$char_traits@D@std@@V?$allocator@D@2@@std@@QAEXII@Z$4 00400010     Game.obj
 0002:fffbf010       __catchsym$?_Copy@?$basic_string@DU?$char_traits@D@std@@V?$allocator@D@2@@std@@QAEXII@Z$4 00400010     DemoContactListener.obj
 0002:fffbf010       __catchsym$?_Copy@?$basic_string@DU?$char_traits@D@std@@V?$allocator@D@2@@std@@QAEXII@Z$4 00400010     Texture2D.obj
 0002:fffbf010       __catchsym$?_Copy@?$basic_string@DU?$char_traits@D@std@@V?$allocator@D@2@@std@@QAEXII@Z$4 00400010     ContentManager.obj
 0002:fffbf010       __catchsym$?_Copy@?$basic_string@DU?$char_traits@D@std@@V?$allocator@D@2@@std@@QAEXII@Z$4 00400010     PushButton.obj
 0002:fffbf010       __catchsym$?_Copy@?$basic_string@DU?$char_traits@D@std@@V?$allocator@D@2@@std@@QAEXII@Z$4 00400010     DemoButton.obj
 0001:fffff011       __ehhandler$??$construct@PADAAPAD@?$allocator@D@std@@QAEXPAPADAAPAD@Z 00400011 f   Game.obj
 0001:fffff011       __ehhandler$??$construct@PADAAPAD@?$allocator@D@std@@QAEXPAPADAAPAD@Z 00400011 f   PushButton.obj
 0001:fffff011       __ehhandler$??$construct@PADAAPAD@?$allocator@D@std@@QAEXPAPADAAPAD@Z 00400011 f   DemoContactListener.obj
 0001:fffff011       __ehhandler$??$construct@PADAAPAD@?$allocator@D@std@@QAEXPAPADAAPAD@Z 00400011 f   DemoButton.obj
 0001:fffff011       __ehhandler$??$construct@PADAAPAD@?$allocator@D@std@@QAEXPAPADAAPAD@Z 00400011 f   ToggleButton.obj
 0001:fffff011       __ehhandler$??$construct@PADAAPAD@?$allocator@D@std@@QAEXPAPADAAPAD@Z 00400011 f   DemoDebugInfo.obj
 0001:fffff011       __ehhandler$??$construct@PADAAPAD@?$allocator@D@std@@QAEXPAPADAAPAD@Z 00400011 f   ContentManager.obj
 0001:fffff011       __ehhandler$??$construct@PADAAPAD@?$allocator@D@std@@QAEXPAPADAAPAD@Z 00400011 f   ManagedDemo.obj
 0001:fffff011       __ehhandler$??$construct@PADAAPAD@?$allocator@D@std@@QAEXPAPADAAPAD@Z 00400011 f   SpriteBatch.obj
 0001:fffff011       __ehhandler$??$construct@PADAAPAD@?$allocator@D@std@@QAEXPAPADAAPAD@Z 00400011 f   Demo.obj
 0001:fffff011       __ehhandler$??$construct@PADAAPAD@?$allocator@D@std@@QAEXPAPADAAPAD@Z 00400011 f   Texture2D.obj
 0001:fffff011       __ehhandler$??$construct@PADAAPAD@?$allocator@D@std@@QAEXPAPADAAPAD@Z 00400011 f   GameObject.obj
 0002:fffbf020       __unwindtable$?_Copy@?$basic_string@DU?$char_traits@D@std@@V?$allocator@D@2@@std@@QAEXII@Z 00400020     ContentManager.obj
 0002:fffbf020       __unwindtable$?_Copy@?$basic_string@DU?$char_traits@D@std@@V?$allocator@D@2@@std@@QAEXII@Z 00400020     Game.obj
 0002:fffbf020       __unwindtable$?_Copy@?$basic_string@DU?$char_traits@D@std@@V?$allocator@D@2@@std@@QAEXII@Z 00400020     PushButton.obj
 0002:fffbf020       __unwindtable$?_Copy@?$basic_string@DU?$char_traits@D@std@@V?$allocator@D@2@@std@@QAEXII@Z 00400020     Demo.obj
 0002:fffbf020       __unwindtable$?_Copy@?$basic_string@DU?$char_traits@D@std@@V?$allocator@D@2@@std@@QAEXII@Z 00400020     DemoButton.obj
 0002:fffbf020       __unwindtable$?_Copy@?$basic_string@DU?$char_traits@D@std@@V?$allocator@D@2@@std@@QAEXII@Z 00400020     GameObject.obj
 0002:fffbf020       __unwindtable$?_Copy@?$basic_string@DU?$char_traits@D@std@@V?$allocator@D@2@@std@@QAEXII@Z 00400020     ToggleButton.obj
 0002:fffbf020       __unwindtable$?_Copy@?$basic_string@DU?$char_traits@D@std@@V?$allocator@D@2@@std@@QAEXII@Z 00400020     Texture2D.obj
 0002:fffbf020       __unwindtable$?_Copy@?$basic_string@DU?$char_traits@D@std@@V?$allocator@D@2@@std@@QAEXII@Z 00400020     ManagedDemo.obj
 0002:fffbf020       __unwindtable$?_Copy@?$basic_string@DU?$char_traits@D@std@@V?$allocator@D@2@@std@@QAEXII@Z 00400020     DemoContactListener.obj
 0002:fffbf020       __unwindtable$?_Copy@?$basic_string@DU?$char_traits@D@std@@V?$allocator@D@2@@std@@QAEXII@Z 00400020     DemoDebugInfo.obj
 0002:fffbf020       __unwindtable$?_Copy@?$basic_string@DU?$char_traits@D@std@@V?$allocator@D@2@@std@@QAEXII@Z 00400020     SpriteBatch.obj
 0002:fffbf040       __ehfuncinfo$?_Copy@?$basic_string@DU?$char_traits@D@std@@V?$allocator@D@2@@std@@QAEXII@Z 00400040     ContentManager.obj
 0002:fffbf040       __ehfuncinfo$?_Copy@?$basic_string@DU?$char_traits@D@std@@V?$allocator@D@2@@std@@QAEXII@Z 00400040     DemoContactListener.obj
 0002:fffbf040       __ehfuncinfo$?_Copy@?$basic_string@DU?$char_traits@D@std@@V?$allocator@D@2@@std@@QAEXII@Z 00400040     GameObject.obj
 0002:fffbf040       __ehfuncinfo$?_Copy@?$basic_string@DU?$char_traits@D@std@@V?$allocator@D@2@@std@@QAEXII@Z 00400040     ManagedDemo.obj
 0002:fffbf040       __ehfuncinfo$?_Copy@?$basic_string@DU?$char_traits@D@std@@V?$allocator@D@2@@std@@QAEXII@Z 00400040     Demo.obj
 0002:fffbf040       __ehfuncinfo$?_Copy@?$basic_string@DU?$char_traits@D@std@@V?$allocator@D@2@@std@@QAEXII@Z 00400040     DemoButton.obj
 0002:fffbf040       __ehfuncinfo$?_Copy@?$basic_string@DU?$char_traits@D@std@@V?$allocator@D@2@@std@@QAEXII@Z 00400040     PushButton.obj
 0002:fffbf040       __ehfuncinfo$?_Copy@?$basic_string@DU?$char_traits@D@std@@V?$allocator@D@2@@std@@QAEXII@Z 00400040     Game.obj
 0002:fffbf040       __ehfuncinfo$?_Copy@?$basic_string@DU?$char_traits@D@std@@V?$allocator@D@2@@std@@QAEXII@Z 00400040     DemoDebugInfo.obj
 0002:fffbf040       __ehfuncinfo$?_Copy@?$basic_string@DU?$char_traits@D@std@@V?$allocator@D@2@@std@@QAEXII@Z 00400040     SpriteBatch.obj
 0002:fffbf040       __ehfuncinfo$?_Copy@?$basic_string@DU?$char_traits@D@std@@V?$allocator@D@2@@std@@QAEXII@Z 00400040     ToggleButton.obj
 0002:fffbf040       __ehfuncinfo$?_Copy@?$basic_string@DU?$char_traits@D@std@@V?$allocator@D@2@@std@@QAEXII@Z 00400040     Texture2D.obj
 0002:fffbf064       __tryblocktable$?_Copy@?$basic_string@DU?$char_traits@D@std@@V?$allocator@D@2@@std@@QAEXII@Z 00400064     PushButton.obj
 0002:fffbf064       __tryblocktable$?_Copy@?$basic_string@DU?$char_traits@D@std@@V?$allocator@D@2@@std@@QAEXII@Z 00400064     SpriteBatch.obj
 0002:fffbf064       __tryblocktable$?_Copy@?$basic_string@DU?$char_traits@D@std@@V?$allocator@D@2@@std@@QAEXII@Z 00400064     DemoContactListener.obj
 0002:fffbf064       __tryblocktable$?_Copy@?$basic_string@DU?$char_traits@D@std@@V?$allocator@D@2@@std@@QAEXII@Z 00400064     GameObject.obj
 0002:fffbf064       __tryblocktable$?_Copy@?$basic_string@DU?$char_traits@D@std@@V?$allocator@D@2@@std@@QAEXII@Z 00400064     DemoDebugInfo.obj
 0002:fffbf064       __tryblocktable$?_Copy@?$basic_string@DU?$char_traits@D@std@@V?$allocator@D@2@@std@@QAEXII@Z 00400064     DemoButton.obj
 0002:fffbf064       __tryblocktable$?_Copy@?$basic_string@DU?$char_traits@D@std@@V?$allocator@D@2@@std@@QAEXII@Z 00400064     ToggleButton.obj
 0002:fffbf064       __tryblocktable$?_Copy@?$basic_string@DU?$char_traits@D@std@@V?$allocator@D@2@@std@@QAEXII@Z 00400064     ContentManager.obj
 0002:fffbf064       __tryblocktable$?_Copy@?$basic_string@DU?$char_traits@D@std@@V?$allocator@D@2@@std@@QAEXII@Z 00400064     Texture2D.obj
 0002:fffbf064       __tryblocktable$?_Copy@?$basic_string@DU?$char_traits@D@std@@V?$allocator@D@2@@std@@QAEXII@Z 00400064     Demo.obj
 0002:fffbf064       __tryblocktable$?_Copy@?$basic_string@DU?$char_traits@D@std@@V?$allocator@D@2@@std@@QAEXII@Z 00400064     Game.obj
 0002:fffbf064       __tryblocktable$?_Copy@?$basic_string@DU?$char_traits@D@std@@V?$allocator@D@2@@std@@QAEXII@Z 00400064     ManagedDemo.obj
 0001:fffff0cf       __catch$?_Copy@?$basic_string@DU?$char_traits@D@std@@V?$allocator@D@2@@std@@QAEXII@Z$0 004000cf f   Game.obj
 0001:fffff0cf       __catch$?_Copy@?$basic_string@DU?$char_traits@D@std@@V?$allocator@D@2@@std@@QAEXII@Z$0 004000cf f   PushButton.obj
 0001:fffff0cf       __catch$?_Copy@?$basic_string@DU?$char_traits@D@std@@V?$allocator@D@2@@std@@QAEXII@Z$0 004000cf f   DemoDebugInfo.obj
 0001:fffff0cf       __catch$?_Copy@?$basic_string@DU?$char_traits@D@std@@V?$allocator@D@2@@std@@QAEXII@Z$0 004000cf f   DemoButton.obj
 0001:fffff0cf       __catch$?_Copy@?$basic_string@DU?$char_traits@D@std@@V?$allocator@D@2@@std@@QAEXII@Z$0 004000cf f   GameObject.obj
 0001:fffff0cf       __catch$?_Copy@?$basic_string@DU?$char_traits@D@std@@V?$allocator@D@2@@std@@QAEXII@Z$0 004000cf f   Demo.obj
 0001:fffff0cf       __catch$?_Copy@?$basic_string@DU?$char_traits@D@std@@V?$allocator@D@2@@std@@QAEXII@Z$0 004000cf f   ManagedDemo.obj
 0001:fffff0cf       __catch$?_Copy@?$basic_string@DU?$char_traits@D@std@@V?$allocator@D@2@@std@@QAEXII@Z$0 004000cf f   Texture2D.obj
 0001:fffff0cf       __catch$?_Copy@?$basic_string@DU?$char_traits@D@std@@V?$allocator@D@2@@std@@QAEXII@Z$0 004000cf f   SpriteBatch.obj
 0001:fffff0cf       __catch$?_Copy@?$basic_string@DU?$char_traits@D@std@@V?$allocator@D@2@@std@@QAEXII@Z$0 004000cf f   ToggleButton.obj
 0001:fffff0cf       __catch$?_Copy@?$basic_string@DU?$char_traits@D@std@@V?$allocator@D@2@@std@@QAEXII@Z$0 004000cf f i ContentManager.obj
 0001:fffff0cf       __catch$?_Copy@?$basic_string@DU?$char_traits@D@std@@V?$allocator@D@2@@std@@QAEXII@Z$0 004000cf f   DemoContactListener.obj
 0001:fffff105       __catch$?_Copy@?$basic_string@DU?$char_traits@D@std@@V?$allocator@D@2@@std@@QAEXII@Z$1 00400105 f   GameObject.obj
 0001:fffff105       __catch$?_Copy@?$basic_string@DU?$char_traits@D@std@@V?$allocator@D@2@@std@@QAEXII@Z$1 00400105 f i ContentManager.obj
 0001:fffff105       __catch$?_Copy@?$basic_string@DU?$char_traits@D@std@@V?$allocator@D@2@@std@@QAEXII@Z$1 00400105 f   SpriteBatch.obj
 0001:fffff105       __catch$?_Copy@?$basic_string@DU?$char_traits@D@std@@V?$allocator@D@2@@std@@QAEXII@Z$1 00400105 f   PushButton.obj
 0001:fffff105       __catch$?_Copy@?$basic_string@DU?$char_traits@D@std@@V?$allocator@D@2@@std@@QAEXII@Z$1 00400105 f   ManagedDemo.obj
 0001:fffff105       __catch$?_Copy@?$basic_string@DU?$char_traits@D@std@@V?$allocator@D@2@@std@@QAEXII@Z$1 00400105 f   Game.obj
 0001:fffff105       __catch$?_Copy@?$basic_string@DU?$char_traits@D@std@@V?$allocator@D@2@@std@@QAEXII@Z$1 00400105 f   ToggleButton.obj
 0001:fffff105       __catch$?_Copy@?$basic_string@DU?$char_traits@D@std@@V?$allocator@D@2@@std@@QAEXII@Z$1 00400105 f   Demo.obj
 0001:fffff105       __catch$?_Copy@?$basic_string@DU?$char_traits@D@std@@V?$allocator@D@2@@std@@QAEXII@Z$1 00400105 f   DemoButton.obj
 0001:fffff105       __catch$?_Copy@?$basic_string@DU?$char_traits@D@std@@V?$allocator@D@2@@std@@QAEXII@Z$1 00400105 f   DemoDebugInfo.obj
 0001:fffff105       __catch$?_Copy@?$basic_string@DU?$char_traits@D@std@@V?$allocator@D@2@@std@@QAEXII@Z$1 00400105 f   DemoContactListener.obj
 0001:fffff105       __catch$?_Copy@?$basic_string@DU?$char_traits@D@std@@V?$allocator@D@2@@std@@QAEXII@Z$1 00400105 f   Texture2D.obj
 0001:000009c0       ?ComputeCentroid@@YA?AUb2Vec2@@PBU1@H@Z 004019c0 f    CIL library: CIL module
 0001:00004e0c       $LN75                      00405e0c      CIL library: CIL module
 0001:00008df0       $LN42                      00409df0      CIL library: CIL module
 0001:0000966c       $LN25                      0040a66c      CIL library: CIL module
 0001:0000981c       $LN198                     0040a81c      CIL library: CIL module
 0001:00009930       $LN78                      0040a930      CIL library: CIL module
 0001:0000d50c       $LN18                      0040e50c      CIL library: CIL module
 0001:0000d890       $LN78                      0040e890      CIL library: CIL module
 0001:0000d960       $LN41                      0040e960      CIL library: CIL module
 0001:0000dab0       $LN24                      0040eab0      CIL library: CIL module
 0001:0000dc94       $LN33                      0040ec94      CIL library: CIL module
 0001:0000e8d0       $LN275                     0040f8d0      CIL library: CIL module
 0001:00021ca0       ?b2EdgeSeparation@@YAMPBVb2PolygonShape@@ABUb2Transform@@H01@Z 00422ca0 f    CIL library: CIL module
 0001:00021df0       ?b2FindMaxSeparation@@YAMPAHPBVb2PolygonShape@@ABUb2Transform@@12@Z 00422df0 f    CIL library: CIL module
 0001:00022480       ?b2FindIncidentEdge@@YAXQAUb2ClipVertex@@PBVb2PolygonShape@@ABUb2Transform@@H12@Z 00423480 f    CIL library: CIL module
 0001:00023ef7       __catch$?_Copy@?$basic_string@DU?$char_traits@D@std@@V?$allocator@D@2@@std@@QAEXII@Z$0 00424ef7 f i  CIL library: CIL module
 0001:00023f34       __catch$?_Copy@?$basic_string@DU?$char_traits@D@std@@V?$allocator@D@2@@std@@QAEXII@Z$1 00424f34 f i  CIL library: CIL module
 0001:0002e06a       __catch$??$_Insert@V?$move_iterator@V?$_Vector_iterator@V?$_Vector_val@U?$_Simple_types@H@std@@@std@@@std@@@std@@@?$vector@HV?$allocator@H@std@@@std@@QAEXV?$_Vector_const_iterator@V?$_Vector_val@U?$_Simple_types@H@std@@@std@@@1@V?$move_iterator@V?$_Vector_iterator@V?$_Vector_val@U?$_Simple_types@H@std@@@std@@@std@@@1@1Uforward_iterator_tag@1@@Z$0 0042f06a f i Demo.obj
 0001:0002e696       __catch$??$_Uninit_copy@V?$move_iterator@V?$_Vector_iterator@V?$_Vector_val@U?$_Simple_types@H@std@@@std@@@std@@@std@@PAHV?$allocator@H@2@@std@@YAPAHV?$move_iterator@V?$_Vector_iterator@V?$_Vector_val@U?$_Simple_types@H@std@@@std@@@std@@@0@0PAHAAU?$_Wrap_alloc@V?$allocator@H@std@@@0@U_Nonscalar_ptr_iterator_tag@0@@Z$0 0042f696 f i Demo.obj
 0001:0002f16b       __catch$?_Reallocate@?$vector@HV?$allocator@H@std@@@std@@IAEXI@Z$0 0043016b f i DemoContactListener.obj
 0001:00030c57       __catch$?_Buyheadnode@?$_Tree_alloc@$0A@U?$_Tree_base_types@U?$pair@$$CBV?$basic_string@DU?$char_traits@D@std@@V?$allocator@D@2@@std@@N@std@@V?$allocator@U?$pair@$$CBV?$basic_string@DU?$char_traits@D@std@@V?$allocator@D@2@@std@@N@std@@@2@@std@@@std@@QAEPAU?$_Tree_node@U?$pair@$$CBV?$basic_string@DU?$char_traits@D@std@@V?$allocator@D@2@@std@@N@std@@PAX@2@XZ$0 00431c57 f i DemoDebugInfo.obj
 0001:00030ed7       __catch$?_Buynode0@?$_Tree_buy@U?$pair@$$CBV?$basic_string@DU?$char_traits@D@std@@V?$allocator@D@2@@std@@N@std@@V?$allocator@U?$pair@$$CBV?$basic_string@DU?$char_traits@D@std@@V?$allocator@D@2@@std@@N@std@@@2@@std@@QAEPAU?$_Tree_node@U?$pair@$$CBV?$basic_string@DU?$char_traits@D@std@@V?$allocator@D@2@@std@@N@std@@PAX@2@XZ$0 00431ed7 f i DemoDebugInfo.obj
 0001:00033c1b       __catch$??$?6DU?$char_traits@D@std@@V?$allocator@D@1@@std@@YAAAV?$basic_ostream@DU?$char_traits@D@std@@@0@AAV10@ABV?$basic_string@DU?$char_traits@D@std@@V?$allocator@D@2@@0@@Z$0 00434c1b f i DemoDebugInfo.obj
 0001:00033ff3       __catch$??$?6U?$char_traits@D@std@@@std@@YAAAV?$basic_ostream@DU?$char_traits@D@std@@@0@AAV10@PBD@Z$0 00434ff3 f i DemoDebugInfo.obj
 0001:00034b0d       __catch$??$_Buynode@U?$pair@V?$basic_string@DU?$char_traits@D@std@@V?$allocator@D@2@@std@@N@std@@@?$_Tree_buy@U?$pair@$$CBV?$basic_string@DU?$char_traits@D@std@@V?$allocator@D@2@@std@@N@std@@V?$allocator@U?$pair@$$CBV?$basic_string@DU?$char_traits@D@std@@V?$allocator@D@2@@std@@N@std@@@2@@std@@QAEPAU?$_Tree_node@U?$pair@$$CBV?$basic_string@DU?$char_traits@D@std@@V?$allocator@D@2@@std@@N@std@@PAX@1@$$QAU?$pair@V?$basic_string@DU?$char_traits@D@std@@V?$allocator@D@2@@std@@N@1@@Z$0 00435b0d f i DemoDebugInfo.obj
 0001:000357c6       __catch$??$_Insert_hint@AAU?$pair@$$CBV?$basic_string@DU?$char_traits@D@std@@V?$allocator@D@2@@std@@N@std@@PAU?$_Tree_node@U?$pair@$$CBV?$basic_string@DU?$char_traits@D@std@@V?$allocator@D@2@@std@@N@std@@PAX@2@@?$_Tree@V?$_Tmap_traits@V?$basic_string@DU?$char_traits@D@std@@V?$allocator@D@2@@std@@NU?$less@V?$basic_string@DU?$char_traits@D@std@@V?$allocator@D@2@@std@@@2@V?$allocator@U?$pair@$$CBV?$basic_string@DU?$char_traits@D@std@@V?$allocator@D@2@@std@@N@std@@@2@$0A@@std@@@std@@IAE?AV?$_Tree_iterator@V?$_Tree_val@U?$_Tree_simple_types@U?$pair@$$CBV?$basic_string@DU?$char_traits@D@std@@V?$allocator@D@2@@std@@N@std@@@std@@@std@@@1@V?$_Tree_const_iterator@V?$_Tree_val@U?$_Tree_simple_types@U?$pair@$$CBV?$basic_string@DU?$char_traits@D@std@@V?$allocator@D@2@@std@@N@std@@@std@@@std@@@1@AAU?$pair@$$CBV?$basic_string@DU?$char_traits@D@std@@V?$allocator@D@2@@std@@N@1@PAU?$_Tree_node@U?$pair@$$CBV?$basic_string@DU?$char_traits@D@std@@V?$allocator@D@2@@std@@N@std@@PAX@1@@Z$0 004367c6 f i DemoDebugInfo.obj
 0001:00036179       __catch$??$_Insert_nohint@AAU?$pair@$$CBV?$basic_string@DU?$char_traits@D@std@@V?$allocator@D@2@@std@@N@std@@PAU?$_Tree_node@U?$pair@$$CBV?$basic_string@DU?$char_traits@D@std@@V?$allocator@D@2@@std@@N@std@@PAX@2@@?$_Tree@V?$_Tmap_traits@V?$basic_string@DU?$char_traits@D@std@@V?$allocator@D@2@@std@@NU?$less@V?$basic_string@DU?$char_traits@D@std@@V?$allocator@D@2@@std@@@2@V?$allocator@U?$pair@$$CBV?$basic_string@DU?$char_traits@D@std@@V?$allocator@D@2@@std@@N@std@@@2@$0A@@std@@@std@@IAE?AU?$pair@V?$_Tree_iterator@V?$_Tree_val@U?$_Tree_simple_types@U?$pair@$$CBV?$basic_string@DU?$char_traits@D@std@@V?$allocator@D@2@@std@@N@std@@@std@@@std@@@std@@_N@1@_NAAU?$pair@$$CBV?$basic_string@DU?$char_traits@D@std@@V?$allocator@D@2@@std@@N@1@PAU?$_Tree_node@U?$pair@$$CBV?$basic_string@DU?$char_traits@D@std@@V?$allocator@D@2@@std@@N@std@@PAX@1@@Z$0 00437179 f i DemoDebugInfo.obj
 0001:0003972b       __catch$?_Reallocate@?$vector@USprite@SpriteBatch@@V?$allocator@USprite@SpriteBatch@@@std@@@std@@IAEXI@Z$0 0043a72b f i SpriteBatch.obj
 0001:0003a23a       __catch$??$_Insert@V?$move_iterator@V?$_Vector_iterator@V?$_Vector_val@U?$_Simple_types@USprite@SpriteBatch@@@std@@@std@@@std@@@std@@@?$vector@USprite@SpriteBatch@@V?$allocator@USprite@SpriteBatch@@@std@@@std@@QAEXV?$_Vector_const_iterator@V?$_Vector_val@U?$_Simple_types@USprite@SpriteBatch@@@std@@@std@@@1@V?$move_iterator@V?$_Vector_iterator@V?$_Vector_val@U?$_Simple_types@USprite@SpriteBatch@@@std@@@std@@@std@@@1@1Uforward_iterator_tag@1@@Z$0 0043b23a f i SpriteBatch.obj
 0001:0003a4c9       __catch$??$_Uninit_move@PAUSprite@SpriteBatch@@PAU12@V?$allocator@USprite@SpriteBatch@@@std@@U12@@std@@YAPAUSprite@SpriteBatch@@PAU12@00AAU?$_Wrap_alloc@V?$allocator@USprite@SpriteBatch@@@std@@@0@0U_Nonscalar_ptr_iterator_tag@0@@Z$0 0043b4c9 f i SpriteBatch.obj
 0001:0003a936       __catch$??$_Uninit_copy@V?$move_iterator@V?$_Vector_iterator@V?$_Vector_val@U?$_Simple_types@USprite@SpriteBatch@@@std@@@std@@@std@@@std@@PAUSprite@SpriteBatch@@V?$allocator@USprite@SpriteBatch@@@2@@std@@YAPAUSprite@SpriteBatch@@V?$move_iterator@V?$_Vector_iterator@V?$_Vector_val@U?$_Simple_types@USprite@SpriteBatch@@@std@@@std@@@std@@@0@0PAU12@AAU?$_Wrap_alloc@V?$allocator@USprite@SpriteBatch@@@std@@@0@U_Nonscalar_ptr_iterator_tag@0@@Z$0 0043b936 f i SpriteBatch.obj
 0001:0003b138       $LN33                      0043c138     Texture2D.obj
 0001:0003b144       $LN32                      0043c144     Texture2D.obj
 0001:0003beb2       _pre_c_init                0043ceb2 f   MSVCRT:crtexew.obj
 0001:0003bf6b       _pre_cpp_init              0043cf6b f   MSVCRT:crtexew.obj
 0001:0003bfbd       _check_managed_app         0043cfbd f   MSVCRT:crtexew.obj
 0001:0003c003       ___tmainCRTStartup         0043d003 f   MSVCRT:crtexew.obj
 0001:0003c1f0       $$000000                   0043d1f0     MSVCRT:sehprolg4.obj
 0001:0003c65d       ?ArrayUnwindFilter@@YAHPAU_EXCEPTION_POINTERS@@@Z 0043d65d f   MSVCRT:ehvecdtr.obj
 0001:0003ca20       __unwindfunclet$??$Load@VTexture2D@@@ContentManager@@QAE?AV?$SmartHandle@VTexture2D@@@@V?$basic_string@DU?$char_traits@D@std@@V?$allocator@D@2@@std@@@Z$0 0043da20 f   ContentManager.obj
 0001:0003ca28       __unwindfunclet$??$Load@VTexture2D@@@ContentManager@@QAE?AV?$SmartHandle@VTexture2D@@@@V?$basic_string@DU?$char_traits@D@std@@V?$allocator@D@2@@std@@@Z$1 0043da28 f   ContentManager.obj
 0001:0003ca39       __unwindfunclet$??$Load@VTexture2D@@@ContentManager@@QAE?AV?$SmartHandle@VTexture2D@@@@V?$basic_string@DU?$char_traits@D@std@@V?$allocator@D@2@@std@@@Z$2 0043da39 f   ContentManager.obj
 0001:0003ca41       __unwindfunclet$??$Load@VTexture2D@@@ContentManager@@QAE?AV?$SmartHandle@VTexture2D@@@@V?$basic_string@DU?$char_traits@D@std@@V?$allocator@D@2@@std@@@Z$3 0043da41 f   ContentManager.obj
 0001:0003ca5a       __ehhandler$??$Load@VTexture2D@@@ContentManager@@QAE?AV?$SmartHandle@VTexture2D@@@@V?$basic_string@DU?$char_traits@D@std@@V?$allocator@D@2@@std@@@Z 0043da5a f   ContentManager.obj
 0001:0003ca80       __unwindfunclet$??0Demo@@QAE@PAUHDC__@@@Z$0 0043da80 f   Demo.obj
 0001:0003ca88       __unwindfunclet$??0Demo@@QAE@PAUHDC__@@@Z$1 0043da88 f   Demo.obj
 0001:0003ca93       __unwindfunclet$??0Demo@@QAE@PAUHDC__@@@Z$2 0043da93 f   Demo.obj
 0001:0003ca9e       __unwindfunclet$??0Demo@@QAE@PAUHDC__@@@Z$3 0043da9e f   Demo.obj
 0001:0003caa9       __unwindfunclet$??0Demo@@QAE@PAUHDC__@@@Z$4 0043daa9 f   Demo.obj
 0001:0003cab4       __unwindfunclet$??0Demo@@QAE@PAUHDC__@@@Z$5 0043dab4 f   Demo.obj
 0001:0003cabf       __unwindfunclet$??0Demo@@QAE@PAUHDC__@@@Z$6 0043dabf f   Demo.obj
 0001:0003caca       __unwindfunclet$??0Demo@@QAE@PAUHDC__@@@Z$7 0043daca f   Demo.obj
 0001:0003cad8       __unwindfunclet$??0Demo@@QAE@PAUHDC__@@@Z$8 0043dad8 f   Demo.obj
 0001:0003cae6       __unwindfunclet$??0Demo@@QAE@PAUHDC__@@@Z$9 0043dae6 f   Demo.obj
 0001:0003caf4       __unwindfunclet$??0Demo@@QAE@PAUHDC__@@@Z$10 0043daf4 f   Demo.obj
 0001:0003cb02       __unwindfunclet$??0Demo@@QAE@PAUHDC__@@@Z$11 0043db02 f   Demo.obj
 0001:0003cb10       __unwindfunclet$??0Demo@@QAE@PAUHDC__@@@Z$12 0043db10 f   Demo.obj
 0001:0003cb1e       __unwindfunclet$??0Demo@@QAE@PAUHDC__@@@Z$13 0043db1e f   Demo.obj
 0001:0003cb2c       __unwindfunclet$??0Demo@@QAE@PAUHDC__@@@Z$14 0043db2c f   Demo.obj
 0001:0003cb37       __unwindfunclet$??0Demo@@QAE@PAUHDC__@@@Z$15 0043db37 f   Demo.obj
 0001:0003cb3f       __unwindfunclet$??0Demo@@QAE@PAUHDC__@@@Z$16 0043db3f f   Demo.obj
 0001:0003cb47       __ehhandler$??0Demo@@QAE@PAUHDC__@@@Z 0043db47 f   Demo.obj
 0001:0003cb70       __unwindfunclet$??1Demo@@UAE@XZ$0 0043db70 f   Demo.obj
 0001:0003cb78       __unwindfunclet$??1Demo@@UAE@XZ$1 0043db78 f   Demo.obj
 0001:0003cb83       __unwindfunclet$??1Demo@@UAE@XZ$2 0043db83 f   Demo.obj
 0001:0003cb8e       __unwindfunclet$??1Demo@@UAE@XZ$3 0043db8e f   Demo.obj
 0001:0003cb99       __unwindfunclet$??1Demo@@UAE@XZ$4 0043db99 f   Demo.obj
 0001:0003cba4       __unwindfunclet$??1Demo@@UAE@XZ$5 0043dba4 f   Demo.obj
 0001:0003cbaf       __unwindfunclet$??1Demo@@UAE@XZ$6 0043dbaf f   Demo.obj
 0001:0003cbba       __unwindfunclet$??1Demo@@UAE@XZ$7 0043dbba f   Demo.obj
 0001:0003cbc8       __unwindfunclet$??1Demo@@UAE@XZ$8 0043dbc8 f   Demo.obj
 0001:0003cbd6       __unwindfunclet$??1Demo@@UAE@XZ$9 0043dbd6 f   Demo.obj
 0001:0003cbe4       __unwindfunclet$??1Demo@@UAE@XZ$10 0043dbe4 f   Demo.obj
 0001:0003cbf2       __unwindfunclet$??1Demo@@UAE@XZ$11 0043dbf2 f   Demo.obj
 0001:0003cc00       __unwindfunclet$??1Demo@@UAE@XZ$12 0043dc00 f   Demo.obj
 0001:0003cc0e       __unwindfunclet$??1Demo@@UAE@XZ$13 0043dc0e f   Demo.obj
 0001:0003cc1c       __ehhandler$??1Demo@@UAE@XZ 0043dc1c f   Demo.obj
 0001:0003cc40       __unwindfunclet$?Initialize@Demo@@UAEXXZ$0 0043dc40 f   Demo.obj
 0001:0003cc54       __unwindfunclet$?Initialize@Demo@@UAEXXZ$1 0043dc54 f   Demo.obj
 0001:0003cc5f       __unwindfunclet$?Initialize@Demo@@UAEXXZ$2 0043dc5f f   Demo.obj
 0001:0003cc6a       __unwindfunclet$?Initialize@Demo@@UAEXXZ$3 0043dc6a f   Demo.obj
 0001:0003cc7e       __unwindfunclet$?Initialize@Demo@@UAEXXZ$4 0043dc7e f   Demo.obj
 0001:0003cc89       __unwindfunclet$?Initialize@Demo@@UAEXXZ$5 0043dc89 f   Demo.obj
 0001:0003cc9d       __unwindfunclet$?Initialize@Demo@@UAEXXZ$6 0043dc9d f   Demo.obj
 0001:0003cca8       __unwindfunclet$?Initialize@Demo@@UAEXXZ$7 0043dca8 f   Demo.obj
 0001:0003ccb6       __unwindfunclet$?Initialize@Demo@@UAEXXZ$8 0043dcb6 f   Demo.obj
 0001:0003ccc4       __unwindfunclet$?Initialize@Demo@@UAEXXZ$9 0043dcc4 f   Demo.obj
 0001:0003cccf       __unwindfunclet$?Initialize@Demo@@UAEXXZ$10 0043dccf f   Demo.obj
 0001:0003ccda       __unwindfunclet$?Initialize@Demo@@UAEXXZ$11 0043dcda f   Demo.obj
 0001:0003ccee       __unwindfunclet$?Initialize@Demo@@UAEXXZ$12 0043dcee f   Demo.obj
 0001:0003cd10       __unwindfunclet$?Initialize@Demo@@UAEXXZ$13 0043dd10 f   Demo.obj
 0001:0003cd32       __unwindfunclet$?Initialize@Demo@@UAEXXZ$14 0043dd32 f   Demo.obj
 0001:0003cd3d       __unwindfunclet$?Initialize@Demo@@UAEXXZ$15 0043dd3d f   Demo.obj
 0001:0003cd51       __unwindfunclet$?Initialize@Demo@@UAEXXZ$16 0043dd51 f   Demo.obj
 0001:0003cd73       __unwindfunclet$?Initialize@Demo@@UAEXXZ$17 0043dd73 f   Demo.obj
 0001:0003cd95       __unwindfunclet$?Initialize@Demo@@UAEXXZ$18 0043dd95 f   Demo.obj
 0001:0003cda0       __ehhandler$?Initialize@Demo@@UAEXXZ 0043dda0 f   Demo.obj
 0001:0003cdd0       __unwindfunclet$?LoadContent@Demo@@UAEXXZ$0 0043ddd0 f   Demo.obj
 0001:0003cddb       __unwindfunclet$?LoadContent@Demo@@UAEXXZ$1 0043dddb f   Demo.obj
 0001:0003cde6       __unwindfunclet$?LoadContent@Demo@@UAEXXZ$2 0043dde6 f   Demo.obj
 0001:0003cdf1       __unwindfunclet$?LoadContent@Demo@@UAEXXZ$3 0043ddf1 f   Demo.obj
 0001:0003cdfc       __unwindfunclet$?LoadContent@Demo@@UAEXXZ$4 0043ddfc f   Demo.obj
 0001:0003ce07       __unwindfunclet$?LoadContent@Demo@@UAEXXZ$5 0043de07 f   Demo.obj
 0001:0003ce12       __unwindfunclet$?LoadContent@Demo@@UAEXXZ$6 0043de12 f   Demo.obj
 0001:0003ce1d       __unwindfunclet$?LoadContent@Demo@@UAEXXZ$7 0043de1d f   Demo.obj
 0001:0003ce28       __unwindfunclet$?LoadContent@Demo@@UAEXXZ$8 0043de28 f   Demo.obj
 0001:0003ce30       __unwindfunclet$?LoadContent@Demo@@UAEXXZ$9 0043de30 f   Demo.obj
 0001:0003ce38       __unwindfunclet$?LoadContent@Demo@@UAEXXZ$10 0043de38 f   Demo.obj
 0001:0003ce40       __unwindfunclet$?LoadContent@Demo@@UAEXXZ$11 0043de40 f   Demo.obj
 0001:0003ce48       __ehhandler$?LoadContent@Demo@@UAEXXZ 0043de48 f   Demo.obj
 0001:0003ce70       __unwindfunclet$?Update@Demo@@UAEXN@Z$0 0043de70 f   Demo.obj
 0001:0003ce7b       __unwindfunclet$?Update@Demo@@UAEXN@Z$1 0043de7b f   Demo.obj
 0001:0003ce86       __ehhandler$?Update@Demo@@UAEXN@Z 0043de86 f   Demo.obj
 0001:0003ceb0       __unwindfunclet$?Draw@Demo@@UAEXN@Z$0 0043deb0 f   Demo.obj
 0001:0003ceb8       __unwindfunclet$?Draw@Demo@@UAEXN@Z$1 0043deb8 f   Demo.obj
 0001:0003cec3       __unwindfunclet$?Draw@Demo@@UAEXN@Z$2 0043dec3 f   Demo.obj
 0001:0003cece       __unwindfunclet$?Draw@Demo@@UAEXN@Z$3 0043dece f   Demo.obj
 0001:0003ced9       __unwindfunclet$?Draw@Demo@@UAEXN@Z$4 0043ded9 f   Demo.obj
 0001:0003cee1       __unwindfunclet$?Draw@Demo@@UAEXN@Z$5 0043dee1 f   Demo.obj
 0001:0003cee9       __ehhandler$?Draw@Demo@@UAEXN@Z 0043dee9 f   Demo.obj
 0001:0003cf20       __unwindfunclet$?AddGameObject@Demo@@QAE_NV?$SmartHandle@VGameObject@@@@@Z$0 0043df20 f   Demo.obj
 0001:0003cf28       __unwindfunclet$?AddGameObject@Demo@@QAE_NV?$SmartHandle@VGameObject@@@@@Z$1 0043df28 f   Demo.obj
 0001:0003cf30       __ehhandler$?AddGameObject@Demo@@QAE_NV?$SmartHandle@VGameObject@@@@@Z 0043df30 f   Demo.obj
 0001:0003cf50       __unwindfunclet$?SpawnObject@Demo@@QAEXXZ$0 0043df50 f   Demo.obj
 0001:0003cf64       __unwindfunclet$?SpawnObject@Demo@@QAEXXZ$1 0043df64 f   Demo.obj
 0001:0003cf6c       __unwindfunclet$?SpawnObject@Demo@@QAEXXZ$2 0043df6c f   Demo.obj
 0001:0003cf77       __ehhandler$?SpawnObject@Demo@@QAEXXZ 0043df77 f   Demo.obj
 0001:0003cfa0       __unwindfunclet$?MouseDown@Demo@@AAEXABUb2Vec2@@@Z$0 0043dfa0 f   Demo.obj
 0001:0003cfa8       __unwindfunclet$?MouseDown@Demo@@AAEXABUb2Vec2@@@Z$1 0043dfa8 f   Demo.obj
 0001:0003cfb3       __ehhandler$?MouseDown@Demo@@AAEXABUb2Vec2@@@Z 0043dfb3 f   Demo.obj
 0001:0003cfe0       __unwindfunclet$?MouseUp@Demo@@AAEXABUb2Vec2@@@Z$0 0043dfe0 f   Demo.obj
 0001:0003cfe8       __unwindfunclet$?MouseUp@Demo@@AAEXABUb2Vec2@@@Z$1 0043dfe8 f   Demo.obj
 0001:0003cff0       __ehhandler$?MouseUp@Demo@@AAEXABUb2Vec2@@@Z 0043dff0 f   Demo.obj
 0001:0003d010       __unwindfunclet$??0QueryCallback@@QAE@ABUb2Vec2@@@Z$0 0043e010 f   Demo.obj
 0001:0003d018       __ehhandler$??0QueryCallback@@QAE@ABUb2Vec2@@@Z 0043e018 f   Demo.obj
 0001:0003d040       __unwindfunclet$??0?$Unmanaged_Array@V?$SmartHandle@VGameObject@@@@@@QAE@H@Z$0 0043e040 f   Demo.obj
 0001:0003d048       __unwindfunclet$??0?$Unmanaged_Array@V?$SmartHandle@VGameObject@@@@@@QAE@H@Z$1 0043e048 f   Demo.obj
 0001:0003d05c       __unwindfunclet$??0?$Unmanaged_Array@V?$SmartHandle@VGameObject@@@@@@QAE@H@Z$2 0043e05c f   Demo.obj
 0001:0003d06d       __unwindfunclet$??0?$Unmanaged_Array@V?$SmartHandle@VGameObject@@@@@@QAE@H@Z$3 0043e06d f   Demo.obj
 0001:0003d07e       __ehhandler$??0?$Unmanaged_Array@V?$SmartHandle@VGameObject@@@@@@QAE@H@Z 0043e07e f   Demo.obj
 0001:0003d0a0       __unwindfunclet$??0?$Unmanaged_Array@V?$SmartHandle@VDemoButton@@@@@@QAE@H@Z$0 0043e0a0 f   Demo.obj
 0001:0003d0a8       __unwindfunclet$??0?$Unmanaged_Array@V?$SmartHandle@VDemoButton@@@@@@QAE@H@Z$1 0043e0a8 f   Demo.obj
 0001:0003d0bc       __unwindfunclet$??0?$Unmanaged_Array@V?$SmartHandle@VDemoButton@@@@@@QAE@H@Z$2 0043e0bc f   Demo.obj
 0001:0003d0cd       __unwindfunclet$??0?$Unmanaged_Array@V?$SmartHandle@VDemoButton@@@@@@QAE@H@Z$3 0043e0cd f   Demo.obj
 0001:0003d0de       __ehhandler$??0?$Unmanaged_Array@V?$SmartHandle@VDemoButton@@@@@@QAE@H@Z 0043e0de f   Demo.obj
 0001:0003d100       __ehhandler$??$_Insert@V?$move_iterator@V?$_Vector_iterator@V?$_Vector_val@U?$_Simple_types@H@std@@@std@@@std@@@std@@@?$vector@HV?$allocator@H@std@@@std@@QAEXV?$_Vector_const_iterator@V?$_Vector_val@U?$_Simple_types@H@std@@@std@@@1@V?$move_iterator@V?$_Vector_iterator@V?$_Vector_val@U?$_Simple_types@H@std@@@std@@@std@@@1@1Uforward_iterator_tag@1@@Z 0043e100 f   Demo.obj
 0001:0003d120       __ehhandler$??$_Uninit_copy@V?$move_iterator@V?$_Vector_iterator@V?$_Vector_val@U?$_Simple_types@H@std@@@std@@@std@@@std@@PAHV?$allocator@H@2@@std@@YAPAHV?$move_iterator@V?$_Vector_iterator@V?$_Vector_val@U?$_Simple_types@H@std@@@std@@@std@@@0@0PAHAAU?$_Wrap_alloc@V?$allocator@H@std@@@0@U_Nonscalar_ptr_iterator_tag@0@@Z 0043e120 f   Demo.obj
 0001:0003d140       __unwindfunclet$??$construct@HH@?$allocator@H@std@@QAEXPAH$$QAH@Z$0 0043e140 f   Demo.obj
 0001:0003d151       __ehhandler$??$construct@HH@?$allocator@H@std@@QAEXPAH$$QAH@Z 0043e151 f   Demo.obj
 0001:0003d170       __unwindfunclet$??0DemoButton@@QAE@VDemoRectangle@@V?$SmartHandle@VTexture2D@@@@VDemoColour@@@Z$0 0043e170 f   DemoButton.obj
 0001:0003d178       __unwindfunclet$??0DemoButton@@QAE@VDemoRectangle@@V?$SmartHandle@VTexture2D@@@@VDemoColour@@@Z$1 0043e178 f   DemoButton.obj
 0001:0003d180       __unwindfunclet$??0DemoButton@@QAE@VDemoRectangle@@V?$SmartHandle@VTexture2D@@@@VDemoColour@@@Z$2 0043e180 f   DemoButton.obj
 0001:0003d188       __unwindfunclet$??0DemoButton@@QAE@VDemoRectangle@@V?$SmartHandle@VTexture2D@@@@VDemoColour@@@Z$3 0043e188 f   DemoButton.obj
 0001:0003d190       __unwindfunclet$??0DemoButton@@QAE@VDemoRectangle@@V?$SmartHandle@VTexture2D@@@@VDemoColour@@@Z$4 0043e190 f   DemoButton.obj
 0001:0003d19b       __unwindfunclet$??0DemoButton@@QAE@VDemoRectangle@@V?$SmartHandle@VTexture2D@@@@VDemoColour@@@Z$5 0043e19b f   DemoButton.obj
 0001:0003d1a6       __ehhandler$??0DemoButton@@QAE@VDemoRectangle@@V?$SmartHandle@VTexture2D@@@@VDemoColour@@@Z 0043e1a6 f   DemoButton.obj
 0001:0003d1d0       __unwindfunclet$??1DemoButton@@UAE@XZ$0 0043e1d0 f   DemoButton.obj
 0001:0003d1d8       __unwindfunclet$??1DemoButton@@UAE@XZ$1 0043e1d8 f   DemoButton.obj
 0001:0003d1e3       __unwindfunclet$??1DemoButton@@UAE@XZ$2 0043e1e3 f   DemoButton.obj
 0001:0003d1ee       __unwindfunclet$??1DemoButton@@UAE@XZ$3 0043e1ee f   DemoButton.obj
 0001:0003d1f9       __ehhandler$??1DemoButton@@UAE@XZ 0043e1f9 f   DemoButton.obj
 0001:0003d220       __ehhandler$?_Reallocate@?$vector@HV?$allocator@H@std@@@std@@IAEXI@Z 0043e220 f   DemoContactListener.obj
 0001:0003d240       __unwindfunclet$??$construct@HAAH@?$allocator@H@std@@QAEXPAHAAH@Z$0 0043e240 f   DemoContactListener.obj
 0001:0003d251       __ehhandler$??$construct@HAAH@?$allocator@H@std@@QAEXPAHAAH@Z 0043e251 f   DemoContactListener.obj
 0001:0003d270       __unwindfunclet$??0DemoDebugInfo@@QAE@PAUHDC__@@@Z$0 0043e270 f   DemoDebugInfo.obj
 0001:0003d278       __unwindfunclet$??0DemoDebugInfo@@QAE@PAUHDC__@@@Z$1 0043e278 f   DemoDebugInfo.obj
 0001:0003d280       __ehhandler$??0DemoDebugInfo@@QAE@PAUHDC__@@@Z 0043e280 f   DemoDebugInfo.obj
 0001:0003d2b0       __unwindfunclet$?DrawInfoToScreen@DemoDebugInfo@@QAEXXZ$0 0043e2b0 f   DemoDebugInfo.obj
 0001:0003d2bb       __unwindfunclet$?DrawInfoToScreen@DemoDebugInfo@@QAEXXZ$1 0043e2bb f   DemoDebugInfo.obj
 0001:0003d2c6       __unwindfunclet$?DrawInfoToScreen@DemoDebugInfo@@QAEXXZ$2 0043e2c6 f   DemoDebugInfo.obj
 0001:0003d2d1       __unwindfunclet$?DrawInfoToScreen@DemoDebugInfo@@QAEXXZ$3 0043e2d1 f   DemoDebugInfo.obj
 0001:0003d2dc       __ehhandler$?DrawInfoToScreen@DemoDebugInfo@@QAEXXZ 0043e2dc f   DemoDebugInfo.obj
 0001:0003d310       __unwindfunclet$?AddDebugInfo@DemoDebugInfo@@QAEXV?$basic_string@DU?$char_traits@D@std@@V?$allocator@D@2@@std@@N@Z$0 0043e310 f   DemoDebugInfo.obj
 0001:0003d318       __ehhandler$?AddDebugInfo@DemoDebugInfo@@QAEXV?$basic_string@DU?$char_traits@D@std@@V?$allocator@D@2@@std@@N@Z 0043e318 f   DemoDebugInfo.obj
 0001:0003d340       __unwindfunclet$?UpdateFrameRate@DemoDebugInfo@@QAEXN@Z$0 0043e340 f   DemoDebugInfo.obj
 0001:0003d348       __ehhandler$?UpdateFrameRate@DemoDebugInfo@@QAEXN@Z 0043e348 f   DemoDebugInfo.obj
 0001:0003d370       __ehhandler$?_Buyheadnode@?$_Tree_alloc@$0A@U?$_Tree_base_types@U?$pair@$$CBV?$basic_string@DU?$char_traits@D@std@@V?$allocator@D@2@@std@@N@std@@V?$allocator@U?$pair@$$CBV?$basic_string@DU?$char_traits@D@std@@V?$allocator@D@2@@std@@N@std@@@2@@std@@@std@@QAEPAU?$_Tree_node@U?$pair@$$CBV?$basic_string@DU?$char_traits@D@std@@V?$allocator@D@2@@std@@N@std@@PAX@2@XZ 0043e370 f   DemoDebugInfo.obj
 0001:0003d390       __ehhandler$?_Buynode0@?$_Tree_buy@U?$pair@$$CBV?$basic_string@DU?$char_traits@D@std@@V?$allocator@D@2@@std@@N@std@@V?$allocator@U?$pair@$$CBV?$basic_string@DU?$char_traits@D@std@@V?$allocator@D@2@@std@@N@std@@@2@@std@@QAEPAU?$_Tree_node@U?$pair@$$CBV?$basic_string@DU?$char_traits@D@std@@V?$allocator@D@2@@std@@N@std@@PAX@2@XZ 0043e390 f   DemoDebugInfo.obj
 0001:0003d3b0       __unwindfunclet$??1?$_Tree@V?$_Tmap_traits@V?$basic_string@DU?$char_traits@D@std@@V?$allocator@D@2@@std@@NU?$less@V?$basic_string@DU?$char_traits@D@std@@V?$allocator@D@2@@std@@@2@V?$allocator@U?$pair@$$CBV?$basic_string@DU?$char_traits@D@std@@V?$allocator@D@2@@std@@N@std@@@2@$0A@@std@@@std@@QAE@XZ$0 0043e3b0 f   DemoDebugInfo.obj
 0001:0003d3b8       __ehhandler$??1?$_Tree@V?$_Tmap_traits@V?$basic_string@DU?$char_traits@D@std@@V?$allocator@D@2@@std@@NU?$less@V?$basic_string@DU?$char_traits@D@std@@V?$allocator@D@2@@std@@@2@V?$allocator@U?$pair@$$CBV?$basic_string@DU?$char_traits@D@std@@V?$allocator@D@2@@std@@N@std@@@2@$0A@@std@@@std@@QAE@XZ 0043e3b8 f   DemoDebugInfo.obj
 0001:0003d3e0       __unwindfunclet$??A?$map@V?$basic_string@DU?$char_traits@D@std@@V?$allocator@D@2@@std@@NU?$less@V?$basic_string@DU?$char_traits@D@std@@V?$allocator@D@2@@std@@@2@V?$allocator@U?$pair@$$CBV?$basic_string@DU?$char_traits@D@std@@V?$allocator@D@2@@std@@N@std@@@2@@std@@QAEAAN$$QAV?$basic_string@DU?$char_traits@D@std@@V?$allocator@D@2@@1@@Z$0 0043e3e0 f   DemoDebugInfo.obj
 0001:0003d3e8       __ehhandler$??A?$map@V?$basic_string@DU?$char_traits@D@std@@V?$allocator@D@2@@std@@NU?$less@V?$basic_string@DU?$char_traits@D@std@@V?$allocator@D@2@@std@@@2@V?$allocator@U?$pair@$$CBV?$basic_string@DU?$char_traits@D@std@@V?$allocator@D@2@@std@@N@std@@@2@@std@@QAEAAN$$QAV?$basic_string@DU?$char_traits@D@std@@V?$allocator@D@2@@1@@Z 0043e3e8 f   DemoDebugInfo.obj
 0001:0003d410       __unwindfunclet$??A?$map@V?$basic_string@DU?$char_traits@D@std@@V?$allocator@D@2@@std@@NU?$less@V?$basic_string@DU?$char_traits@D@std@@V?$allocator@D@2@@std@@@2@V?$allocator@U?$pair@$$CBV?$basic_string@DU?$char_traits@D@std@@V?$allocator@D@2@@std@@N@std@@@2@@std@@QAEAANABV?$basic_string@DU?$char_traits@D@std@@V?$allocator@D@2@@1@@Z$0 0043e410 f   DemoDebugInfo.obj
 0001:0003d418       __ehhandler$??A?$map@V?$basic_string@DU?$char_traits@D@std@@V?$allocator@D@2@@std@@NU?$less@V?$basic_string@DU?$char_traits@D@std@@V?$allocator@D@2@@std@@@2@V?$allocator@U?$pair@$$CBV?$basic_string@DU?$char_traits@D@std@@V?$allocator@D@2@@std@@N@std@@@2@@std@@QAEAANABV?$basic_string@DU?$char_traits@D@std@@V?$allocator@D@2@@1@@Z 0043e418 f   DemoDebugInfo.obj
 0001:0003d440       __unwindfunclet$??0?$basic_ostringstream@DU?$char_traits@D@std@@V?$allocator@D@2@@std@@QAE@H@Z$0 0043e440 f   DemoDebugInfo.obj
 0001:0003d45d       __unwindfunclet$??0?$basic_ostringstream@DU?$char_traits@D@std@@V?$allocator@D@2@@std@@QAE@H@Z$1 0043e45d f   DemoDebugInfo.obj
 0001:0003d469       __ehhandler$??0?$basic_ostringstream@DU?$char_traits@D@std@@V?$allocator@D@2@@std@@QAE@H@Z 0043e469 f   DemoDebugInfo.obj
 0001:0003d490       __unwindfunclet$??1?$basic_ostringstream@DU?$char_traits@D@std@@V?$allocator@D@2@@std@@UAE@XZ$0 0043e490 f   DemoDebugInfo.obj
 0001:0003d49c       __ehhandler$??1?$basic_ostringstream@DU?$char_traits@D@std@@V?$allocator@D@2@@std@@UAE@XZ 0043e49c f   DemoDebugInfo.obj
 0001:0003d4c0       __unwindfunclet$??0?$basic_stringbuf@DU?$char_traits@D@std@@V?$allocator@D@2@@std@@QAE@H@Z$0 0043e4c0 f   DemoDebugInfo.obj
 0001:0003d4c9       __ehhandler$??0?$basic_stringbuf@DU?$char_traits@D@std@@V?$allocator@D@2@@std@@QAE@H@Z 0043e4c9 f   DemoDebugInfo.obj
 0001:0003d4f0       __unwindfunclet$??1?$basic_stringbuf@DU?$char_traits@D@std@@V?$allocator@D@2@@std@@UAE@XZ$0 0043e4f0 f   DemoDebugInfo.obj
 0001:0003d4f9       __ehhandler$??1?$basic_stringbuf@DU?$char_traits@D@std@@V?$allocator@D@2@@std@@UAE@XZ 0043e4f9 f   DemoDebugInfo.obj
 0001:0003d520       __unwindfunclet$?str@?$basic_stringbuf@DU?$char_traits@D@std@@V?$allocator@D@2@@std@@QBE?AV?$basic_string@DU?$char_traits@D@std@@V?$allocator@D@2@@2@XZ$0 0043e520 f   DemoDebugInfo.obj
 0001:0003d528       __unwindfunclet$?str@?$basic_stringbuf@DU?$char_traits@D@std@@V?$allocator@D@2@@std@@QBE?AV?$basic_string@DU?$char_traits@D@std@@V?$allocator@D@2@@2@XZ$1 0043e528 f   DemoDebugInfo.obj
 0001:0003d547       __unwindfunclet$?str@?$basic_stringbuf@DU?$char_traits@D@std@@V?$allocator@D@2@@std@@QBE?AV?$basic_string@DU?$char_traits@D@std@@V?$allocator@D@2@@2@XZ$2 0043e547 f   DemoDebugInfo.obj
 0001:0003d54f       __unwindfunclet$?str@?$basic_stringbuf@DU?$char_traits@D@std@@V?$allocator@D@2@@std@@QBE?AV?$basic_string@DU?$char_traits@D@std@@V?$allocator@D@2@@2@XZ$3 0043e54f f   DemoDebugInfo.obj
 0001:0003d557       __ehhandler$?str@?$basic_stringbuf@DU?$char_traits@D@std@@V?$allocator@D@2@@std@@QBE?AV?$basic_string@DU?$char_traits@D@std@@V?$allocator@D@2@@2@XZ 0043e557 f   DemoDebugInfo.obj
 0001:0003d580       __unwindfunclet$??$?6DU?$char_traits@D@std@@V?$allocator@D@1@@std@@YAAAV?$basic_ostream@DU?$char_traits@D@std@@@0@AAV10@ABV?$basic_string@DU?$char_traits@D@std@@V?$allocator@D@2@@0@@Z$2 0043e580 f   DemoDebugInfo.obj
 0001:0003d588       __ehhandler$??$?6DU?$char_traits@D@std@@V?$allocator@D@1@@std@@YAAAV?$basic_ostream@DU?$char_traits@D@std@@@0@AAV10@ABV?$basic_string@DU?$char_traits@D@std@@V?$allocator@D@2@@0@@Z 0043e588 f   DemoDebugInfo.obj
 0001:0003d5b0       __unwindfunclet$??$?6U?$char_traits@D@std@@@std@@YAAAV?$basic_ostream@DU?$char_traits@D@std@@@0@AAV10@PBD@Z$2 0043e5b0 f   DemoDebugInfo.obj
 0001:0003d5b8       __ehhandler$??$?6U?$char_traits@D@std@@@std@@YAAAV?$basic_ostream@DU?$char_traits@D@std@@@0@AAV10@PBD@Z 0043e5b8 f   DemoDebugInfo.obj
 0001:0003d5e0       __unwindfunclet$??0sentry@?$basic_ostream@DU?$char_traits@D@std@@@std@@QAE@AAV12@@Z$0 0043e5e0 f   DemoDebugInfo.obj
 0001:0003d5e8       __ehhandler$??0sentry@?$basic_ostream@DU?$char_traits@D@std@@@std@@QAE@AAV12@@Z 0043e5e8 f   DemoDebugInfo.obj
 0001:0003d610       __unwindfunclet$??1sentry@?$basic_ostream@DU?$char_traits@D@std@@@std@@QAE@XZ$0 0043e610 f   DemoDebugInfo.obj
 0001:0003d618       __ehhandler$??1sentry@?$basic_ostream@DU?$char_traits@D@std@@@std@@QAE@XZ 0043e618 f   DemoDebugInfo.obj
 0001:0003d640       __unwindfunclet$??$?0V?$basic_string@DU?$char_traits@D@std@@V?$allocator@D@2@@std@@N@?$pair@V?$basic_string@DU?$char_traits@D@std@@V?$allocator@D@2@@std@@N@std@@QAE@$$QAV?$basic_string@DU?$char_traits@D@std@@V?$allocator@D@2@@1@$$QANPAPAX@Z$0 0043e640 f   DemoDebugInfo.obj
 0001:0003d648       __ehhandler$??$?0V?$basic_string@DU?$char_traits@D@std@@V?$allocator@D@2@@std@@N@?$pair@V?$basic_string@DU?$char_traits@D@std@@V?$allocator@D@2@@std@@N@std@@QAE@$$QAV?$basic_string@DU?$char_traits@D@std@@V?$allocator@D@2@@1@$$QANPAPAX@Z 0043e648 f   DemoDebugInfo.obj
 0001:0003d670       __unwindfunclet$??$?0V?$basic_string@DU?$char_traits@D@std@@V?$allocator@D@2@@std@@N@?$pair@$$CBV?$basic_string@DU?$char_traits@D@std@@V?$allocator@D@2@@std@@N@std@@QAE@$$QAU?$pair@V?$basic_string@DU?$char_traits@D@std@@V?$allocator@D@2@@std@@N@1@@Z$0 0043e670 f   DemoDebugInfo.obj
 0001:0003d678       __ehhandler$??$?0V?$basic_string@DU?$char_traits@D@std@@V?$allocator@D@2@@std@@N@?$pair@$$CBV?$basic_string@DU?$char_traits@D@std@@V?$allocator@D@2@@std@@N@std@@QAE@$$QAU?$pair@V?$basic_string@DU?$char_traits@D@std@@V?$allocator@D@2@@std@@N@1@@Z 0043e678 f   DemoDebugInfo.obj
 0001:0003d6a0       __unwindfunclet$??$?0ABV?$basic_string@DU?$char_traits@D@std@@V?$allocator@D@2@@std@@N@?$pair@V?$basic_string@DU?$char_traits@D@std@@V?$allocator@D@2@@std@@N@std@@QAE@ABV?$basic_string@DU?$char_traits@D@std@@V?$allocator@D@2@@1@$$QANPAPAX@Z$0 0043e6a0 f   DemoDebugInfo.obj
 0001:0003d6a8       __ehhandler$??$?0ABV?$basic_string@DU?$char_traits@D@std@@V?$allocator@D@2@@std@@N@?$pair@V?$basic_string@DU?$char_traits@D@std@@V?$allocator@D@2@@std@@N@std@@QAE@ABV?$basic_string@DU?$char_traits@D@std@@V?$allocator@D@2@@1@$$QANPAPAX@Z 0043e6a8 f   DemoDebugInfo.obj
 0001:0003d6d0       __ehhandler$??$_Buynode@U?$pair@V?$basic_string@DU?$char_traits@D@std@@V?$allocator@D@2@@std@@N@std@@@?$_Tree_buy@U?$pair@$$CBV?$basic_string@DU?$char_traits@D@std@@V?$allocator@D@2@@std@@N@std@@V?$allocator@U?$pair@$$CBV?$basic_string@DU?$char_traits@D@std@@V?$allocator@D@2@@std@@N@std@@@2@@std@@QAEPAU?$_Tree_node@U?$pair@$$CBV?$basic_string@DU?$char_traits@D@std@@V?$allocator@D@2@@std@@N@std@@PAX@1@$$QAU?$pair@V?$basic_string@DU?$char_traits@D@std@@V?$allocator@D@2@@std@@N@1@@Z 0043e6d0 f   DemoDebugInfo.obj
 0001:0003d6f0       __ehhandler$??$_Insert_hint@AAU?$pair@$$CBV?$basic_string@DU?$char_traits@D@std@@V?$allocator@D@2@@std@@N@std@@PAU?$_Tree_node@U?$pair@$$CBV?$basic_string@DU?$char_traits@D@std@@V?$allocator@D@2@@std@@N@std@@PAX@2@@?$_Tree@V?$_Tmap_traits@V?$basic_string@DU?$char_traits@D@std@@V?$allocator@D@2@@std@@NU?$less@V?$basic_string@DU?$char_traits@D@std@@V?$allocator@D@2@@std@@@2@V?$allocator@U?$pair@$$CBV?$basic_string@DU?$char_traits@D@std@@V?$allocator@D@2@@std@@N@std@@@2@$0A@@std@@@std@@IAE?AV?$_Tree_iterator@V?$_Tree_val@U?$_Tree_simple_types@U?$pair@$$CBV?$basic_string@DU?$char_traits@D@std@@V?$allocator@D@2@@std@@N@std@@@std@@@std@@@1@V?$_Tree_const_iterator@V?$_Tree_val@U?$_Tree_simple_types@U?$pair@$$CBV?$basic_string@DU?$char_traits@D@std@@V?$allocator@D@2@@std@@N@std@@@std@@@std@@@1@AAU?$pair@$$CBV?$basic_string@DU?$char_traits@D@std@@V?$allocator@D@2@@std@@N@1@PAU?$_Tree_node@U?$pair@$$CBV?$basic_string@DU?$char_traits@D@std@@V?$allocator@D@2@@std@@N@std@@PAX@1@@Z 0043e6f0 f   DemoDebugInfo.obj
 0001:0003d710       __ehhandler$??$_Insert_nohint@AAU?$pair@$$CBV?$basic_string@DU?$char_traits@D@std@@V?$allocator@D@2@@std@@N@std@@PAU?$_Tree_node@U?$pair@$$CBV?$basic_string@DU?$char_traits@D@std@@V?$allocator@D@2@@std@@N@std@@PAX@2@@?$_Tree@V?$_Tmap_traits@V?$basic_string@DU?$char_traits@D@std@@V?$allocator@D@2@@std@@NU?$less@V?$basic_string@DU?$char_traits@D@std@@V?$allocator@D@2@@std@@@2@V?$allocator@U?$pair@$$CBV?$basic_string@DU?$char_traits@D@std@@V?$allocator@D@2@@std@@N@std@@@2@$0A@@std@@@std@@IAE?AU?$pair@V?$_Tree_iterator@V?$_Tree_val@U?$_Tree_simple_types@U?$pair@$$CBV?$basic_string@DU?$char_traits@D@std@@V?$allocator@D@2@@std@@N@std@@@std@@@std@@@std@@_N@1@_NAAU?$pair@$$CBV?$basic_string@DU?$char_traits@D@std@@V?$allocator@D@2@@std@@N@1@PAU?$_Tree_node@U?$pair@$$CBV?$basic_string@DU?$char_traits@D@std@@V?$allocator@D@2@@std@@N@std@@PAX@1@@Z 0043e710 f   DemoDebugInfo.obj
 0001:0003d730       __unwindfunclet$??$construct@PAU?$_Tree_node@U?$pair@$$CBV?$basic_string@DU?$char_traits@D@std@@V?$allocator@D@2@@std@@N@std@@PAX@std@@AAPAU12@@?$allocator@U?$_Tree_node@U?$pair@$$CBV?$basic_string@DU?$char_traits@D@std@@V?$allocator@D@2@@std@@N@std@@PAX@std@@@std@@QAEXPAPAU?$_Tree_node@U?$pair@$$CBV?$basic_string@DU?$char_traits@D@std@@V?$allocator@D@2@@std@@N@std@@PAX@1@AAPAU21@@Z$0 0043e730 f   DemoDebugInfo.obj
 0001:0003d741       __ehhandler$??$construct@PAU?$_Tree_node@U?$pair@$$CBV?$basic_string@DU?$char_traits@D@std@@V?$allocator@D@2@@std@@N@std@@PAX@std@@AAPAU12@@?$allocator@U?$_Tree_node@U?$pair@$$CBV?$basic_string@DU?$char_traits@D@std@@V?$allocator@D@2@@std@@N@std@@PAX@std@@@std@@QAEXPAPAU?$_Tree_node@U?$pair@$$CBV?$basic_string@DU?$char_traits@D@std@@V?$allocator@D@2@@std@@N@std@@PAX@1@AAPAU21@@Z 0043e741 f   DemoDebugInfo.obj
 0001:0003d760       __unwindfunclet$??$construct@U?$pair@$$CBV?$basic_string@DU?$char_traits@D@std@@V?$allocator@D@2@@std@@N@std@@U?$pair@V?$basic_string@DU?$char_traits@D@std@@V?$allocator@D@2@@std@@N@2@@?$allocator@U?$_Tree_node@U?$pair@$$CBV?$basic_string@DU?$char_traits@D@std@@V?$allocator@D@2@@std@@N@std@@PAX@std@@@std@@QAEXPAU?$pair@$$CBV?$basic_string@DU?$char_traits@D@std@@V?$allocator@D@2@@std@@N@1@$$QAU?$pair@V?$basic_string@DU?$char_traits@D@std@@V?$allocator@D@2@@std@@N@1@@Z$0 0043e760 f   DemoDebugInfo.obj
 0001:0003d771       __ehhandler$??$construct@U?$pair@$$CBV?$basic_string@DU?$char_traits@D@std@@V?$allocator@D@2@@std@@N@std@@U?$pair@V?$basic_string@DU?$char_traits@D@std@@V?$allocator@D@2@@std@@N@2@@?$allocator@U?$_Tree_node@U?$pair@$$CBV?$basic_string@DU?$char_traits@D@std@@V?$allocator@D@2@@std@@N@std@@PAX@std@@@std@@QAEXPAU?$pair@$$CBV?$basic_string@DU?$char_traits@D@std@@V?$allocator@D@2@@std@@N@1@$$QAU?$pair@V?$basic_string@DU?$char_traits@D@std@@V?$allocator@D@2@@std@@N@1@@Z 0043e771 f   DemoDebugInfo.obj
 0001:0003d790       __unwindfunclet$?Run@Game@@QAE_NXZ$0 0043e790 f   Game.obj
 0001:0003d79e       __ehhandler$?Run@Game@@QAE_NXZ 0043e79e f   Game.obj
 0001:0003d7c0       __unwindfunclet$?Initialize@Game@@UAEXXZ$0 0043e7c0 f   Game.obj
 0001:0003d7d1       __unwindfunclet$?Initialize@Game@@UAEXXZ$1 0043e7d1 f   Game.obj
 0001:0003d7d9       __ehhandler$?Initialize@Game@@UAEXXZ 0043e7d9 f   Game.obj
 0001:0003d800       __unwindfunclet$??0GameObject@@QAE@XZ$0 0043e800 f   GameObject.obj
 0001:0003d808       __unwindfunclet$??0GameObject@@QAE@XZ$1 0043e808 f   GameObject.obj
 0001:0003d813       __unwindfunclet$??0GameObject@@QAE@XZ$2 0043e813 f   GameObject.obj
 0001:0003d81e       __unwindfunclet$??0GameObject@@QAE@XZ$3 0043e81e f   GameObject.obj
 0001:0003d829       __unwindfunclet$??0GameObject@@QAE@XZ$4 0043e829 f   GameObject.obj
 0001:0003d834       __ehhandler$??0GameObject@@QAE@XZ 0043e834 f   GameObject.obj
 0001:0003d860       __unwindfunclet$??1GameObject@@UAE@XZ$0 0043e860 f   GameObject.obj
 0001:0003d868       __unwindfunclet$??1GameObject@@UAE@XZ$1 0043e868 f   GameObject.obj
 0001:0003d873       __unwindfunclet$??1GameObject@@UAE@XZ$2 0043e873 f   GameObject.obj
 0001:0003d87e       __ehhandler$??1GameObject@@UAE@XZ 0043e87e f   GameObject.obj
 0001:0003d8a0       __unwindfunclet$??0PushButton@@QAE@VDemoRectangle@@PAVTexture2D@@VDemoColour@@@Z$0 0043e8a0 f   PushButton.obj
 0001:0003d8a8       __unwindfunclet$??0PushButton@@QAE@VDemoRectangle@@PAVTexture2D@@VDemoColour@@@Z$1 0043e8a8 f   PushButton.obj
 0001:0003d8b0       __ehhandler$??0PushButton@@QAE@VDemoRectangle@@PAVTexture2D@@VDemoColour@@@Z 0043e8b0 f   PushButton.obj
 0001:0003d8d0       __unwindfunclet$??0SpriteBatch@@QAE@XZ$0 0043e8d0 f   SpriteBatch.obj
 0001:0003d8d8       __unwindfunclet$??0SpriteBatch@@QAE@XZ$1 0043e8d8 f   SpriteBatch.obj
 0001:0003d8e3       __unwindfunclet$??0SpriteBatch@@QAE@XZ$2 0043e8e3 f   SpriteBatch.obj
 0001:0003d8eb       __ehhandler$??0SpriteBatch@@QAE@XZ 0043e8eb f   SpriteBatch.obj
 0001:0003d910       __unwindfunclet$??1SpriteBatch@@UAE@XZ$0 0043e910 f   SpriteBatch.obj
 0001:0003d918       __ehhandler$??1SpriteBatch@@UAE@XZ 0043e918 f   SpriteBatch.obj
 0001:0003d940       __unwindfunclet$?Draw@SpriteBatch@@QAEXV?$SmartHandle@VTexture2D@@@@VDemoRectangle@@VDemoColour@@@Z$0 0043e940 f   SpriteBatch.obj
 0001:0003d948       __unwindfunclet$?Draw@SpriteBatch@@QAEXV?$SmartHandle@VTexture2D@@@@VDemoRectangle@@VDemoColour@@@Z$1 0043e948 f   SpriteBatch.obj
 0001:0003d950       __unwindfunclet$?Draw@SpriteBatch@@QAEXV?$SmartHandle@VTexture2D@@@@VDemoRectangle@@VDemoColour@@@Z$2 0043e950 f   SpriteBatch.obj
 0001:0003d958       __unwindfunclet$?Draw@SpriteBatch@@QAEXV?$SmartHandle@VTexture2D@@@@VDemoRectangle@@VDemoColour@@@Z$4 0043e958 f   SpriteBatch.obj
 0001:0003d963       __ehhandler$?Draw@SpriteBatch@@QAEXV?$SmartHandle@VTexture2D@@@@VDemoRectangle@@VDemoColour@@@Z 0043e963 f   SpriteBatch.obj
 0001:0003d990       __unwindfunclet$?Draw@SpriteBatch@@QAEXV?$SmartHandle@VTexture2D@@@@PAMPAVDemoRectangle@@VDemoColour@@M11@Z$0 0043e990 f   SpriteBatch.obj
 0001:0003d998       __unwindfunclet$?Draw@SpriteBatch@@QAEXV?$SmartHandle@VTexture2D@@@@PAMPAVDemoRectangle@@VDemoColour@@M11@Z$1 0043e998 f   SpriteBatch.obj
 0001:0003d9a0       __unwindfunclet$?Draw@SpriteBatch@@QAEXV?$SmartHandle@VTexture2D@@@@PAMPAVDemoRectangle@@VDemoColour@@M11@Z$3 0043e9a0 f   SpriteBatch.obj
 0001:0003d9ab       __ehhandler$?Draw@SpriteBatch@@QAEXV?$SmartHandle@VTexture2D@@@@PAMPAVDemoRectangle@@VDemoColour@@M11@Z 0043e9ab f   SpriteBatch.obj
 0001:0003d9e0       __unwindfunclet$??0Sprite@SpriteBatch@@QAE@V?$SmartHandle@VTexture2D@@@@VDemoRectangle@@VDemoColour@@@Z$0 0043e9e0 f   SpriteBatch.obj
 0001:0003d9e8       __unwindfunclet$??0Sprite@SpriteBatch@@QAE@V?$SmartHandle@VTexture2D@@@@VDemoRectangle@@VDemoColour@@@Z$1 0043e9e8 f   SpriteBatch.obj
 0001:0003d9f0       __unwindfunclet$??0Sprite@SpriteBatch@@QAE@V?$SmartHandle@VTexture2D@@@@VDemoRectangle@@VDemoColour@@@Z$2 0043e9f0 f   SpriteBatch.obj
 0001:0003d9f8       __unwindfunclet$??0Sprite@SpriteBatch@@QAE@V?$SmartHandle@VTexture2D@@@@VDemoRectangle@@VDemoColour@@@Z$3 0043e9f8 f   SpriteBatch.obj
 0001:0003da00       __unwindfunclet$??0Sprite@SpriteBatch@@QAE@V?$SmartHandle@VTexture2D@@@@VDemoRectangle@@VDemoColour@@@Z$4 0043ea00 f   SpriteBatch.obj
 0001:0003da0b       __ehhandler$??0Sprite@SpriteBatch@@QAE@V?$SmartHandle@VTexture2D@@@@VDemoRectangle@@VDemoColour@@@Z 0043ea0b f   SpriteBatch.obj
 0001:0003da30       __unwindfunclet$??0Sprite@SpriteBatch@@QAE@V?$SmartHandle@VTexture2D@@@@PAMPAVDemoRectangle@@VDemoColour@@M11@Z$0 0043ea30 f   SpriteBatch.obj
 0001:0003da38       __unwindfunclet$??0Sprite@SpriteBatch@@QAE@V?$SmartHandle@VTexture2D@@@@PAMPAVDemoRectangle@@VDemoColour@@M11@Z$1 0043ea38 f   SpriteBatch.obj
 0001:0003da40       __unwindfunclet$??0Sprite@SpriteBatch@@QAE@V?$SmartHandle@VTexture2D@@@@PAMPAVDemoRectangle@@VDemoColour@@M11@Z$2 0043ea40 f   SpriteBatch.obj
 0001:0003da48       __unwindfunclet$??0Sprite@SpriteBatch@@QAE@V?$SmartHandle@VTexture2D@@@@PAMPAVDemoRectangle@@VDemoColour@@M11@Z$3 0043ea48 f   SpriteBatch.obj
 0001:0003da53       __ehhandler$??0Sprite@SpriteBatch@@QAE@V?$SmartHandle@VTexture2D@@@@PAMPAVDemoRectangle@@VDemoColour@@M11@Z 0043ea53 f   SpriteBatch.obj
 0001:0003da80       __unwindfunclet$??1Sprite@SpriteBatch@@QAE@XZ$0 0043ea80 f   SpriteBatch.obj
 0001:0003da88       __ehhandler$??1Sprite@SpriteBatch@@QAE@XZ 0043ea88 f   SpriteBatch.obj
 0001:0003dab0       __ehhandler$?_Reallocate@?$vector@USprite@SpriteBatch@@V?$allocator@USprite@SpriteBatch@@@std@@@std@@IAEXI@Z 0043eab0 f   SpriteBatch.obj
 0001:0003dad0       __ehhandler$??$_Insert@V?$move_iterator@V?$_Vector_iterator@V?$_Vector_val@U?$_Simple_types@USprite@SpriteBatch@@@std@@@std@@@std@@@std@@@?$vector@USprite@SpriteBatch@@V?$allocator@USprite@SpriteBatch@@@std@@@std@@QAEXV?$_Vector_const_iterator@V?$_Vector_val@U?$_Simple_types@USprite@SpriteBatch@@@std@@@std@@@1@V?$move_iterator@V?$_Vector_iterator@V?$_Vector_val@U?$_Simple_types@USprite@SpriteBatch@@@std@@@std@@@std@@@1@1Uforward_iterator_tag@1@@Z 0043ead0 f   SpriteBatch.obj
 0001:0003daf0       __unwindfunclet$??$construct@USprite@SpriteBatch@@U12@@?$allocator@USprite@SpriteBatch@@@std@@QAEXPAUSprite@SpriteBatch@@$$QAU23@@Z$0 0043eaf0 f   SpriteBatch.obj
 0001:0003db01       __ehhandler$??$construct@USprite@SpriteBatch@@U12@@?$allocator@USprite@SpriteBatch@@@std@@QAEXPAUSprite@SpriteBatch@@$$QAU23@@Z 0043eb01 f   SpriteBatch.obj
 0001:0003db20       __ehhandler$??$_Uninit_move@PAUSprite@SpriteBatch@@PAU12@V?$allocator@USprite@SpriteBatch@@@std@@U12@@std@@YAPAUSprite@SpriteBatch@@PAU12@00AAU?$_Wrap_alloc@V?$allocator@USprite@SpriteBatch@@@std@@@0@0U_Nonscalar_ptr_iterator_tag@0@@Z 0043eb20 f   SpriteBatch.obj
 0001:0003db40       __ehhandler$??$_Uninit_copy@V?$move_iterator@V?$_Vector_iterator@V?$_Vector_val@U?$_Simple_types@USprite@SpriteBatch@@@std@@@std@@@std@@@std@@PAUSprite@SpriteBatch@@V?$allocator@USprite@SpriteBatch@@@2@@std@@YAPAUSprite@SpriteBatch@@V?$move_iterator@V?$_Vector_iterator@V?$_Vector_val@U?$_Simple_types@USprite@SpriteBatch@@@std@@@std@@@std@@@0@0PAU12@AAU?$_Wrap_alloc@V?$allocator@USprite@SpriteBatch@@@std@@@0@U_Nonscalar_ptr_iterator_tag@0@@Z 0043eb40 f   SpriteBatch.obj
 0001:0003db60       __unwindfunclet$??$swap@USprite@SpriteBatch@@@std@@YAXAAUSprite@SpriteBatch@@0@Z$0 0043eb60 f   SpriteBatch.obj
 0001:0003db68       __ehhandler$??$swap@USprite@SpriteBatch@@@std@@YAXAAUSprite@SpriteBatch@@0@Z 0043eb68 f   SpriteBatch.obj
 0001:0003db90       __unwindfunclet$??1Texture2D@@UAE@XZ$0 0043eb90 f   Texture2D.obj
 0001:0003db98       __ehhandler$??1Texture2D@@UAE@XZ 0043eb98 f   Texture2D.obj
 0001:0003dbc0       __unwindfunclet$??0ToggleButton@@QAE@VDemoRectangle@@PAVTexture2D@@VDemoColour@@@Z$0 0043ebc0 f   ToggleButton.obj
 0001:0003dbc8       __unwindfunclet$??0ToggleButton@@QAE@VDemoRectangle@@PAVTexture2D@@VDemoColour@@@Z$1 0043ebc8 f   ToggleButton.obj
 0001:0003dbd0       __ehhandler$??0ToggleButton@@QAE@VDemoRectangle@@PAVTexture2D@@VDemoColour@@@Z 0043ebd0 f   ToggleButton.obj
 0001:0003dbf0       __unwindfunclet$??$RayCast@Ub2WorldRayCastWrapper@@@b2DynamicTree@@QBEXPAUb2WorldRayCastWrapper@@ABUb2RayCastInput@@@Z$0 0043ebf0 f    CIL library: CIL module
 0001:0003dbfb       __ehhandler$??$RayCast@Ub2WorldRayCastWrapper@@@b2DynamicTree@@QBEXPAUb2WorldRayCastWrapper@@ABUb2RayCastInput@@@Z 0043ebfb f    CIL library: CIL module
 0001:0003dc30       __unwindfunclet$??$Query@Ub2WorldQueryWrapper@@@b2DynamicTree@@QBEXPAUb2WorldQueryWrapper@@ABUb2AABB@@@Z$0 0043ec30 f    CIL library: CIL module
 0001:0003dc3b       __ehhandler$??$Query@Ub2WorldQueryWrapper@@@b2DynamicTree@@QBEXPAUb2WorldQueryWrapper@@ABUb2AABB@@@Z 0043ec3b f    CIL library: CIL module
 0001:0003dc70       __unwindfunclet$?SolveTOI@b2World@@AAEXABUb2TimeStep@@@Z$0 0043ec70 f    CIL library: CIL module
 0001:0003dc7b       __ehhandler$?SolveTOI@b2World@@AAEXABUb2TimeStep@@@Z 0043ec7b f    CIL library: CIL module
 0001:0003dcb0       __unwindfunclet$?Solve@b2World@@AAEXABUb2TimeStep@@@Z$0 0043ecb0 f    CIL library: CIL module
 0001:0003dcb8       __ehhandler$?Solve@b2World@@AAEXABUb2TimeStep@@@Z 0043ecb8 f    CIL library: CIL module
 0001:0003dce0       __unwindfunclet$??1b2World@@QAE@XZ$0 0043ece0 f    CIL library: CIL module
 0001:0003dce8       __unwindfunclet$??1b2World@@QAE@XZ$1 0043ece8 f    CIL library: CIL module
 0001:0003dcf6       __ehhandler$??1b2World@@QAE@XZ 0043ecf6 f    CIL library: CIL module
 0001:0003dd20       __unwindfunclet$?SolveTOI@b2Island@@QAEXABUb2TimeStep@@HH@Z$0 0043ed20 f    CIL library: CIL module
 0001:0003dd28       __ehhandler$?SolveTOI@b2Island@@QAEXABUb2TimeStep@@HH@Z 0043ed28 f    CIL library: CIL module
 0001:0003dd50       __unwindfunclet$?Solve@b2Island@@QAEXPAUb2Profile@@ABUb2TimeStep@@ABUb2Vec2@@_N@Z$0 0043ed50 f    CIL library: CIL module
 0001:0003dd58       __ehhandler$?Solve@b2Island@@QAEXPAUb2Profile@@ABUb2TimeStep@@ABUb2Vec2@@_N@Z 0043ed58 f    CIL library: CIL module
 0001:0003dd90       __ehhandler$?_Copy@?$basic_string@DU?$char_traits@D@std@@V?$allocator@D@2@@std@@QAEXII@Z 0043ed90 f    CIL library: CIL module
 0001:0003ddb0       __unwindfunclet$??0Managed_Object@@QAE@XZ$0 0043edb0 f    CIL library: CIL module
 0001:0003ddc1       __ehhandler$??0Managed_Object@@QAE@XZ 0043edc1 f    CIL library: CIL module
 0001:0003dde0       ??__Eb2_defaultFilter@@YAXXZ 0043ede0 f    CIL library: CIL module
 0001:0003ddf0       ??__Eb2_defaultListener@@YAXXZ 0043edf0 f    CIL library: CIL module
 0001:0003de00       ??__E?_Generic_object@?$_Error_objects@H@std@@2V_Generic_error_category@2@A@@YAXXZ 0043ee00 f    CIL library: CIL module
 0001:0003de10       ??__E?_Iostream_object@?$_Error_objects@H@std@@2V_Iostream_error_category@2@A@@YAXXZ 0043ee10 f    CIL library: CIL module
 0001:0003de20       ??__E?_System_object@?$_Error_objects@H@std@@2V_System_error_category@2@A@@YAXXZ 0043ee20 f    CIL library: CIL module
 0001:0003de30       ??__E?nurseryRoots@GC@@0V?$vector@IV?$allocator@I@std@@@std@@A@@YAXXZ 0043ee30 f    CIL library: CIL module
 0001:0003de40       ??__Epiecewise_construct@std@@YAXXZ 0043ee40 f   ContentManager.obj
 0001:0003de60       ??__Eallocator_arg@std@@YAXXZ 0043ee60 f   ContentManager.obj
 0001:0003de80       ??__E?_Generic_object@?$_Error_objects@H@std@@2V_Generic_error_category@2@A@@YAXXZ 0043ee80 f   ContentManager.obj
 0001:0003deb0       ??__E?_Iostream_object@?$_Error_objects@H@std@@2V_Iostream_error_category@2@A@@YAXXZ 0043eeb0 f   ContentManager.obj
 0001:0003dee0       ??__E?_System_object@?$_Error_objects@H@std@@2V_System_error_category@2@A@@YAXXZ 0043eee0 f   ContentManager.obj
 0001:0003df10       ??__E?id@?$num_put@DV?$back_insert_iterator@V?$basic_string@DU?$char_traits@D@std@@V?$allocator@D@2@@std@@@std@@@std@@2V0locale@2@A@@YAXXZ 0043ef10 f   ContentManager.obj
 0001:0003df30       ??__E?id@?$num_put@_WV?$back_insert_iterator@V?$basic_string@_WU?$char_traits@_W@std@@V?$allocator@_W@2@@std@@@std@@@std@@2V0locale@2@A@@YAXXZ 0043ef30 f   ContentManager.obj
 0001:0003df50       ??__E?id@?$numpunct@D@std@@2V0locale@2@A@@YAXXZ 0043ef50 f   ContentManager.obj
 0001:0003df70       ??__E?id@?$numpunct@_W@std@@2V0locale@2@A@@YAXXZ 0043ef70 f   ContentManager.obj
 0001:0003df90       ??__Epiecewise_construct@std@@YAXXZ 0043ef90 f   Demo.obj
 0001:0003dfb0       ??__Eallocator_arg@std@@YAXXZ 0043efb0 f   Demo.obj
 0001:0003dfd0       ??__E?_Generic_object@?$_Error_objects@H@std@@2V_Generic_error_category@2@A@@YAXXZ 0043efd0 f   Demo.obj
 0001:0003e000       ??__E?_Iostream_object@?$_Error_objects@H@std@@2V_Iostream_error_category@2@A@@YAXXZ 0043f000 f   Demo.obj
 0001:0003e030       ??__E?_System_object@?$_Error_objects@H@std@@2V_System_error_category@2@A@@YAXXZ 0043f030 f   Demo.obj
 0001:0003e060       ??__E?id@?$num_put@DV?$back_insert_iterator@V?$basic_string@DU?$char_traits@D@std@@V?$allocator@D@2@@std@@@std@@@std@@2V0locale@2@A@@YAXXZ 0043f060 f   Demo.obj
 0001:0003e080       ??__E?id@?$num_put@_WV?$back_insert_iterator@V?$basic_string@_WU?$char_traits@_W@std@@V?$allocator@_W@2@@std@@@std@@@std@@2V0locale@2@A@@YAXXZ 0043f080 f   Demo.obj
 0001:0003e0a0       ??__E?id@?$numpunct@D@std@@2V0locale@2@A@@YAXXZ 0043f0a0 f   Demo.obj
 0001:0003e0c0       ??__E?id@?$numpunct@_W@std@@2V0locale@2@A@@YAXXZ 0043f0c0 f   Demo.obj
 0001:0003e0e0       ??__Epiecewise_construct@std@@YAXXZ 0043f0e0 f   DemoButton.obj
 0001:0003e100       ??__Eallocator_arg@std@@YAXXZ 0043f100 f   DemoButton.obj
 0001:0003e120       ??__E?_Generic_object@?$_Error_objects@H@std@@2V_Generic_error_category@2@A@@YAXXZ 0043f120 f   DemoButton.obj
 0001:0003e150       ??__E?_Iostream_object@?$_Error_objects@H@std@@2V_Iostream_error_category@2@A@@YAXXZ 0043f150 f   DemoButton.obj
 0001:0003e180       ??__E?_System_object@?$_Error_objects@H@std@@2V_System_error_category@2@A@@YAXXZ 0043f180 f   DemoButton.obj
 0001:0003e1b0       ??__Epiecewise_construct@std@@YAXXZ 0043f1b0 f   DemoContactListener.obj
 0001:0003e1d0       ??__Eallocator_arg@std@@YAXXZ 0043f1d0 f   DemoContactListener.obj
 0001:0003e1f0       ??__E?_Generic_object@?$_Error_objects@H@std@@2V_Generic_error_category@2@A@@YAXXZ 0043f1f0 f   DemoContactListener.obj
 0001:0003e220       ??__E?_Iostream_object@?$_Error_objects@H@std@@2V_Iostream_error_category@2@A@@YAXXZ 0043f220 f   DemoContactListener.obj
 0001:0003e250       ??__E?_System_object@?$_Error_objects@H@std@@2V_System_error_category@2@A@@YAXXZ 0043f250 f   DemoContactListener.obj
 0001:0003e280       ??__E?id@?$num_put@DV?$back_insert_iterator@V?$basic_string@DU?$char_traits@D@std@@V?$allocator@D@2@@std@@@std@@@std@@2V0locale@2@A@@YAXXZ 0043f280 f   DemoContactListener.obj
 0001:0003e2a0       ??__E?id@?$num_put@_WV?$back_insert_iterator@V?$basic_string@_WU?$char_traits@_W@std@@V?$allocator@_W@2@@std@@@std@@@std@@2V0locale@2@A@@YAXXZ 0043f2a0 f   DemoContactListener.obj
 0001:0003e2c0       ??__E?id@?$numpunct@D@std@@2V0locale@2@A@@YAXXZ 0043f2c0 f   DemoContactListener.obj
 0001:0003e2e0       ??__E?id@?$numpunct@_W@std@@2V0locale@2@A@@YAXXZ 0043f2e0 f   DemoContactListener.obj
 0001:0003e300       ??__Epiecewise_construct@std@@YAXXZ 0043f300 f   DemoDebugInfo.obj
 0001:0003e320       ??__Eallocator_arg@std@@YAXXZ 0043f320 f   DemoDebugInfo.obj
 0001:0003e340       ??__E?_Generic_object@?$_Error_objects@H@std@@2V_Generic_error_category@2@A@@YAXXZ 0043f340 f   DemoDebugInfo.obj
 0001:0003e370       ??__E?_Iostream_object@?$_Error_objects@H@std@@2V_Iostream_error_category@2@A@@YAXXZ 0043f370 f   DemoDebugInfo.obj
 0001:0003e3a0       ??__E?_System_object@?$_Error_objects@H@std@@2V_System_error_category@2@A@@YAXXZ 0043f3a0 f   DemoDebugInfo.obj
 0001:0003e3d0       ??__E?id@?$num_put@DV?$back_insert_iterator@V?$basic_string@DU?$char_traits@D@std@@V?$allocator@D@2@@std@@@std@@@std@@2V0locale@2@A@@YAXXZ 0043f3d0 f   DemoDebugInfo.obj
 0001:0003e3f0       ??__E?id@?$num_put@_WV?$back_insert_iterator@V?$basic_string@_WU?$char_traits@_W@std@@V?$allocator@_W@2@@std@@@std@@@std@@2V0locale@2@A@@YAXXZ 0043f3f0 f   DemoDebugInfo.obj
 0001:0003e410       ??__E?id@?$num_put@DV?$ostreambuf_iterator@DU?$char_traits@D@std@@@std@@@std@@2V0locale@2@A@@YAXXZ 0043f410 f   DemoDebugInfo.obj
 0001:0003e430       ??__E?id@?$numpunct@D@std@@2V0locale@2@A@@YAXXZ 0043f430 f   DemoDebugInfo.obj
 0001:0003e450       ??__E?id@?$numpunct@_W@std@@2V0locale@2@A@@YAXXZ 0043f450 f   DemoDebugInfo.obj
 0001:0003e470       ??__Epiecewise_construct@std@@YAXXZ 0043f470 f   Game.obj
 0001:0003e490       ??__Eallocator_arg@std@@YAXXZ 0043f490 f   Game.obj
 0001:0003e4b0       ??__E?_Generic_object@?$_Error_objects@H@std@@2V_Generic_error_category@2@A@@YAXXZ 0043f4b0 f   Game.obj
 0001:0003e4e0       ??__E?_Iostream_object@?$_Error_objects@H@std@@2V_Iostream_error_category@2@A@@YAXXZ 0043f4e0 f   Game.obj
 0001:0003e510       ??__E?_System_object@?$_Error_objects@H@std@@2V_System_error_category@2@A@@YAXXZ 0043f510 f   Game.obj
 0001:0003e540       ??__E?id@?$num_put@DV?$back_insert_iterator@V?$basic_string@DU?$char_traits@D@std@@V?$allocator@D@2@@std@@@std@@@std@@2V0locale@2@A@@YAXXZ 0043f540 f   Game.obj
 0001:0003e560       ??__E?id@?$num_put@_WV?$back_insert_iterator@V?$basic_string@_WU?$char_traits@_W@std@@V?$allocator@_W@2@@std@@@std@@@std@@2V0locale@2@A@@YAXXZ 0043f560 f   Game.obj
 0001:0003e580       ??__E?id@?$numpunct@D@std@@2V0locale@2@A@@YAXXZ 0043f580 f   Game.obj
 0001:0003e5a0       ??__E?id@?$numpunct@_W@std@@2V0locale@2@A@@YAXXZ 0043f5a0 f   Game.obj
 0001:0003e5c0       ??__Epiecewise_construct@std@@YAXXZ 0043f5c0 f   GameObject.obj
 0001:0003e5e0       ??__Eallocator_arg@std@@YAXXZ 0043f5e0 f   GameObject.obj
 0001:0003e600       ??__E?_Generic_object@?$_Error_objects@H@std@@2V_Generic_error_category@2@A@@YAXXZ 0043f600 f   GameObject.obj
 0001:0003e630       ??__E?_Iostream_object@?$_Error_objects@H@std@@2V_Iostream_error_category@2@A@@YAXXZ 0043f630 f   GameObject.obj
 0001:0003e660       ??__E?_System_object@?$_Error_objects@H@std@@2V_System_error_category@2@A@@YAXXZ 0043f660 f   GameObject.obj
 0001:0003e690       ??__Epiecewise_construct@std@@YAXXZ 0043f690 f   ManagedDemo.obj
 0001:0003e6b0       ??__Eallocator_arg@std@@YAXXZ 0043f6b0 f   ManagedDemo.obj
 0001:0003e6d0       ??__E?_Generic_object@?$_Error_objects@H@std@@2V_Generic_error_category@2@A@@YAXXZ 0043f6d0 f   ManagedDemo.obj
 0001:0003e700       ??__E?_Iostream_object@?$_Error_objects@H@std@@2V_Iostream_error_category@2@A@@YAXXZ 0043f700 f   ManagedDemo.obj
 0001:0003e730       ??__E?_System_object@?$_Error_objects@H@std@@2V_System_error_category@2@A@@YAXXZ 0043f730 f   ManagedDemo.obj
 0001:0003e760       ??__E?id@?$num_put@DV?$back_insert_iterator@V?$basic_string@DU?$char_traits@D@std@@V?$allocator@D@2@@std@@@std@@@std@@2V0locale@2@A@@YAXXZ 0043f760 f   ManagedDemo.obj
 0001:0003e780       ??__E?id@?$num_put@_WV?$back_insert_iterator@V?$basic_string@_WU?$char_traits@_W@std@@V?$allocator@_W@2@@std@@@std@@@std@@2V0locale@2@A@@YAXXZ 0043f780 f   ManagedDemo.obj
 0001:0003e7a0       ??__E?id@?$numpunct@D@std@@2V0locale@2@A@@YAXXZ 0043f7a0 f   ManagedDemo.obj
 0001:0003e7c0       ??__E?id@?$numpunct@_W@std@@2V0locale@2@A@@YAXXZ 0043f7c0 f   ManagedDemo.obj
 0001:0003e7e0       ??__Epiecewise_construct@std@@YAXXZ 0043f7e0 f   PushButton.obj
 0001:0003e800       ??__Eallocator_arg@std@@YAXXZ 0043f800 f   PushButton.obj
 0001:0003e820       ??__E?_Generic_object@?$_Error_objects@H@std@@2V_Generic_error_category@2@A@@YAXXZ 0043f820 f   PushButton.obj
 0001:0003e850       ??__E?_Iostream_object@?$_Error_objects@H@std@@2V_Iostream_error_category@2@A@@YAXXZ 0043f850 f   PushButton.obj
 0001:0003e880       ??__E?_System_object@?$_Error_objects@H@std@@2V_System_error_category@2@A@@YAXXZ 0043f880 f   PushButton.obj
 0001:0003e8b0       ??__E?id@?$num_put@DV?$back_insert_iterator@V?$basic_string@DU?$char_traits@D@std@@V?$allocator@D@2@@std@@@std@@@std@@2V0locale@2@A@@YAXXZ 0043f8b0 f   PushButton.obj
 0001:0003e8d0       ??__E?id@?$num_put@_WV?$back_insert_iterator@V?$basic_string@_WU?$char_traits@_W@std@@V?$allocator@_W@2@@std@@@std@@@std@@2V0locale@2@A@@YAXXZ 0043f8d0 f   PushButton.obj
 0001:0003e8f0       ??__E?id@?$numpunct@D@std@@2V0locale@2@A@@YAXXZ 0043f8f0 f   PushButton.obj
 0001:0003e910       ??__E?id@?$numpunct@_W@std@@2V0locale@2@A@@YAXXZ 0043f910 f   PushButton.obj
 0001:0003e930       ??__Epiecewise_construct@std@@YAXXZ 0043f930 f   SpriteBatch.obj
 0001:0003e950       ??__Eallocator_arg@std@@YAXXZ 0043f950 f   SpriteBatch.obj
 0001:0003e970       ??__E?_Generic_object@?$_Error_objects@H@std@@2V_Generic_error_category@2@A@@YAXXZ 0043f970 f   SpriteBatch.obj
 0001:0003e9a0       ??__E?_Iostream_object@?$_Error_objects@H@std@@2V_Iostream_error_category@2@A@@YAXXZ 0043f9a0 f   SpriteBatch.obj
 0001:0003e9d0       ??__E?_System_object@?$_Error_objects@H@std@@2V_System_error_category@2@A@@YAXXZ 0043f9d0 f   SpriteBatch.obj
 0001:0003ea00       ??__Epiecewise_construct@std@@YAXXZ 0043fa00 f   Texture2D.obj
 0001:0003ea20       ??__Eallocator_arg@std@@YAXXZ 0043fa20 f   Texture2D.obj
 0001:0003ea40       ??__E?_Generic_object@?$_Error_objects@H@std@@2V_Generic_error_category@2@A@@YAXXZ 0043fa40 f   Texture2D.obj
 0001:0003ea70       ??__E?_Iostream_object@?$_Error_objects@H@std@@2V_Iostream_error_category@2@A@@YAXXZ 0043fa70 f   Texture2D.obj
 0001:0003eaa0       ??__E?_System_object@?$_Error_objects@H@std@@2V_System_error_category@2@A@@YAXXZ 0043faa0 f   Texture2D.obj
 0001:0003ead0       ??__Epiecewise_construct@std@@YAXXZ 0043fad0 f   ToggleButton.obj
 0001:0003eaf0       ??__Eallocator_arg@std@@YAXXZ 0043faf0 f   ToggleButton.obj
 0001:0003eb10       ??__E?_Generic_object@?$_Error_objects@H@std@@2V_Generic_error_category@2@A@@YAXXZ 0043fb10 f   ToggleButton.obj
 0001:0003eb40       ??__E?_Iostream_object@?$_Error_objects@H@std@@2V_Iostream_error_category@2@A@@YAXXZ 0043fb40 f   ToggleButton.obj
 0001:0003eb70       ??__E?_System_object@?$_Error_objects@H@std@@2V_System_error_category@2@A@@YAXXZ 0043fb70 f   ToggleButton.obj
 0001:0003eba0       ??__E?id@?$num_put@DV?$back_insert_iterator@V?$basic_string@DU?$char_traits@D@std@@V?$allocator@D@2@@std@@@std@@@std@@2V0locale@2@A@@YAXXZ 0043fba0 f   ToggleButton.obj
 0001:0003ebc0       ??__E?id@?$num_put@_WV?$back_insert_iterator@V?$basic_string@_WU?$char_traits@_W@std@@V?$allocator@_W@2@@std@@@std@@@std@@2V0locale@2@A@@YAXXZ 0043fbc0 f   ToggleButton.obj
 0001:0003ebe0       ??__E?id@?$numpunct@D@std@@2V0locale@2@A@@YAXXZ 0043fbe0 f   ToggleButton.obj
 0001:0003ec00       ??__E?id@?$numpunct@_W@std@@2V0locale@2@A@@YAXXZ 0043fc00 f   ToggleButton.obj
 0001:0003ec20       ??__Fb2_defaultFilter@@YAXXZ 0043fc20 f    CIL library: CIL module
 0001:0003ec30       ??__Fb2_defaultListener@@YAXXZ 0043fc30 f    CIL library: CIL module
 0001:0003ec40       ??__F?_System_object@?$_Error_objects@H@std@@2V_System_error_category@2@A@@YAXXZ 0043fc40 f    CIL library: CIL module
 0001:0003ec50       ??__F?_Iostream_object@?$_Error_objects@H@std@@2V_Iostream_error_category@2@A@@YAXXZ 0043fc50 f    CIL library: CIL module
 0001:0003ec60       ??__F?_Generic_object@?$_Error_objects@H@std@@2V_Generic_error_category@2@A@@YAXXZ 0043fc60 f    CIL library: CIL module
 0001:0003ec70       ??__F?nurseryRoots@GC@@0V?$vector@IV?$allocator@I@std@@@std@@A@@YAXXZ 0043fc70 f    CIL library: CIL module
 0001:0003ecc0       ??__F?_Generic_object@?$_Error_objects@H@std@@2V_Generic_error_category@2@A@@YAXXZ 0043fcc0 f   ContentManager.obj
 0001:0003ece0       ??__F?_Iostream_object@?$_Error_objects@H@std@@2V_Iostream_error_category@2@A@@YAXXZ 0043fce0 f   ContentManager.obj
 0001:0003ed00       ??__F?_System_object@?$_Error_objects@H@std@@2V_System_error_category@2@A@@YAXXZ 0043fd00 f   ContentManager.obj
 0001:0003ed20       ??__F?_Generic_object@?$_Error_objects@H@std@@2V_Generic_error_category@2@A@@YAXXZ 0043fd20 f   Demo.obj
 0001:0003ed40       ??__F?_Iostream_object@?$_Error_objects@H@std@@2V_Iostream_error_category@2@A@@YAXXZ 0043fd40 f   Demo.obj
 0001:0003ed60       ??__F?_System_object@?$_Error_objects@H@std@@2V_System_error_category@2@A@@YAXXZ 0043fd60 f   Demo.obj
 0001:0003ed80       ??__F?_Generic_object@?$_Error_objects@H@std@@2V_Generic_error_category@2@A@@YAXXZ 0043fd80 f   DemoButton.obj
 0001:0003eda0       ??__F?_Iostream_object@?$_Error_objects@H@std@@2V_Iostream_error_category@2@A@@YAXXZ 0043fda0 f   DemoButton.obj
 0001:0003edc0       ??__F?_System_object@?$_Error_objects@H@std@@2V_System_error_category@2@A@@YAXXZ 0043fdc0 f   DemoButton.obj
 0001:0003ede0       ??__F?_Generic_object@?$_Error_objects@H@std@@2V_Generic_error_category@2@A@@YAXXZ 0043fde0 f   DemoContactListener.obj
 0001:0003ee00       ??__F?_Iostream_object@?$_Error_objects@H@std@@2V_Iostream_error_category@2@A@@YAXXZ 0043fe00 f   DemoContactListener.obj
 0001:0003ee20       ??__F?_System_object@?$_Error_objects@H@std@@2V_System_error_category@2@A@@YAXXZ 0043fe20 f   DemoContactListener.obj
 0001:0003ee40       ??__F?_Generic_object@?$_Error_objects@H@std@@2V_Generic_error_category@2@A@@YAXXZ 0043fe40 f   DemoDebugInfo.obj
 0001:0003ee60       ??__F?_Iostream_object@?$_Error_objects@H@std@@2V_Iostream_error_category@2@A@@YAXXZ 0043fe60 f   DemoDebugInfo.obj
 0001:0003ee80       ??__F?_System_object@?$_Error_objects@H@std@@2V_System_error_category@2@A@@YAXXZ 0043fe80 f   DemoDebugInfo.obj
 0001:0003eea0       ??__F?_Generic_object@?$_Error_objects@H@std@@2V_Generic_error_category@2@A@@YAXXZ 0043fea0 f   Game.obj
 0001:0003eec0       ??__F?_Iostream_object@?$_Error_objects@H@std@@2V_Iostream_error_category@2@A@@YAXXZ 0043fec0 f   Game.obj
 0001:0003eee0       ??__F?_System_object@?$_Error_objects@H@std@@2V_System_error_category@2@A@@YAXXZ 0043fee0 f   Game.obj
 0001:0003ef00       ??__F?_Generic_object@?$_Error_objects@H@std@@2V_Generic_error_category@2@A@@YAXXZ 0043ff00 f   GameObject.obj
 0001:0003ef20       ??__F?_Iostream_object@?$_Error_objects@H@std@@2V_Iostream_error_category@2@A@@YAXXZ 0043ff20 f   GameObject.obj
 0001:0003ef40       ??__F?_System_object@?$_Error_objects@H@std@@2V_System_error_category@2@A@@YAXXZ 0043ff40 f   GameObject.obj
 0001:0003ef60       ??__F?_Generic_object@?$_Error_objects@H@std@@2V_Generic_error_category@2@A@@YAXXZ 0043ff60 f   ManagedDemo.obj
 0001:0003ef80       ??__F?_Iostream_object@?$_Error_objects@H@std@@2V_Iostream_error_category@2@A@@YAXXZ 0043ff80 f   ManagedDemo.obj
 0001:0003efa0       ??__F?_System_object@?$_Error_objects@H@std@@2V_System_error_category@2@A@@YAXXZ 0043ffa0 f   ManagedDemo.obj
 0001:0003efc0       ??__F?_Generic_object@?$_Error_objects@H@std@@2V_Generic_error_category@2@A@@YAXXZ 0043ffc0 f   PushButton.obj
 0001:0003efe0       ??__F?_Iostream_object@?$_Error_objects@H@std@@2V_Iostream_error_category@2@A@@YAXXZ 0043ffe0 f   PushButton.obj
 0001:0003f000       ??__F?_System_object@?$_Error_objects@H@std@@2V_System_error_category@2@A@@YAXXZ 00440000 f   PushButton.obj
 0001:0003f020       ??__F?_Generic_object@?$_Error_objects@H@std@@2V_Generic_error_category@2@A@@YAXXZ 00440020 f   SpriteBatch.obj
 0001:0003f040       ??__F?_Iostream_object@?$_Error_objects@H@std@@2V_Iostream_error_category@2@A@@YAXXZ 00440040 f   SpriteBatch.obj
 0001:0003f060       ??__F?_System_object@?$_Error_objects@H@std@@2V_System_error_category@2@A@@YAXXZ 00440060 f   SpriteBatch.obj
 0001:0003f080       ??__F?_Generic_object@?$_Error_objects@H@std@@2V_Generic_error_category@2@A@@YAXXZ 00440080 f   Texture2D.obj
 0001:0003f0a0       ??__F?_Iostream_object@?$_Error_objects@H@std@@2V_Iostream_error_category@2@A@@YAXXZ 004400a0 f   Texture2D.obj
 0001:0003f0c0       ??__F?_System_object@?$_Error_objects@H@std@@2V_System_error_category@2@A@@YAXXZ 004400c0 f   Texture2D.obj
 0001:0003f0e0       ??__F?_Generic_object@?$_Error_objects@H@std@@2V_Generic_error_category@2@A@@YAXXZ 004400e0 f   ToggleButton.obj
 0001:0003f100       ??__F?_Iostream_object@?$_Error_objects@H@std@@2V_Iostream_error_category@2@A@@YAXXZ 00440100 f   ToggleButton.obj
 0001:0003f120       ??__F?_System_object@?$_Error_objects@H@std@@2V_System_error_category@2@A@@YAXXZ 00440120 f   ToggleButton.obj
 0002:000002d8       _pcppinit                  004412d8     MSVCRT:crtexew.obj
 0002:000002dc       _piecewise_construct$initializer$ 004412dc     ContentManager.obj
 0002:000002e0       _allocator_arg$initializer$ 004412e0     ContentManager.obj
 0002:000002e4       ?id$initializer$@?$num_put@DV?$back_insert_iterator@V?$basic_string@DU?$char_traits@D@std@@V?$allocator@D@2@@std@@@std@@@std@@2P6AXXZA 004412e4     ContentManager.obj
 0002:000002e8       ?id$initializer$@?$num_put@_WV?$back_insert_iterator@V?$basic_string@_WU?$char_traits@_W@std@@V?$allocator@_W@2@@std@@@std@@@std@@2P6AXXZA 004412e8     ContentManager.obj
 0002:000002ec       ?id$initializer$@?$numpunct@D@std@@2P6AXXZA 004412ec     ContentManager.obj
 0002:000002f0       ?id$initializer$@?$numpunct@_W@std@@2P6AXXZA 004412f0     ContentManager.obj
 0002:000002f4       _piecewise_construct$initializer$ 004412f4     Demo.obj
 0002:000002f8       _allocator_arg$initializer$ 004412f8     Demo.obj
 0002:000002fc       _piecewise_construct$initializer$ 004412fc     DemoButton.obj
 0002:00000300       _allocator_arg$initializer$ 00441300     DemoButton.obj
 0002:00000304       _piecewise_construct$initializer$ 00441304     DemoContactListener.obj
 0002:00000308       _allocator_arg$initializer$ 00441308     DemoContactListener.obj
 0002:0000030c       _piecewise_construct$initializer$ 0044130c     DemoDebugInfo.obj
 0002:00000310       _allocator_arg$initializer$ 00441310     DemoDebugInfo.obj
 0002:00000314       ?id$initializer$@?$num_put@DV?$ostreambuf_iterator@DU?$char_traits@D@std@@@std@@@std@@2P6AXXZA 00441314     DemoDebugInfo.obj
 0002:00000318       _piecewise_construct$initializer$ 00441318     Game.obj
 0002:0000031c       _allocator_arg$initializer$ 0044131c     Game.obj
 0002:00000320       _piecewise_construct$initializer$ 00441320     GameObject.obj
 0002:00000324       _allocator_arg$initializer$ 00441324     GameObject.obj
 0002:00000328       _piecewise_construct$initializer$ 00441328     ManagedDemo.obj
 0002:0000032c       _allocator_arg$initializer$ 0044132c     ManagedDemo.obj
 0002:00000330       _piecewise_construct$initializer$ 00441330     PushButton.obj
 0002:00000334       _allocator_arg$initializer$ 00441334     PushButton.obj
 0002:00000338       _piecewise_construct$initializer$ 00441338     SpriteBatch.obj
 0002:0000033c       _allocator_arg$initializer$ 0044133c     SpriteBatch.obj
 0002:00000340       _piecewise_construct$initializer$ 00441340     Texture2D.obj
 0002:00000344       _allocator_arg$initializer$ 00441344     Texture2D.obj
 0002:00000348       _piecewise_construct$initializer$ 00441348     ToggleButton.obj
 0002:0000034c       _allocator_arg$initializer$ 0044134c     ToggleButton.obj
 0002:00000350       _b2_defaultFilter$initializer$ 00441350      CIL library: CIL module
 0002:00000354       _b2_defaultListener$initializer$ 00441354      CIL library: CIL module
 0002:00000358       ?_Generic_object$initializer$@?$_Error_objects@H@std@@2P6AXXZA 00441358      CIL library: CIL module
 0002:0000035c       ?_Iostream_object$initializer$@?$_Error_objects@H@std@@2P6AXXZA 0044135c      CIL library: CIL module
 0002:00000360       ?_System_object$initializer$@?$_Error_objects@H@std@@2P6AXXZA 00441360      CIL library: CIL module
 0002:00000364       ?nurseryRoots$initializer$@GC@@0P6AXXZA 00441364      CIL library: CIL module
 0002:00000370       _pcinit                    00441370     MSVCRT:crtexew.obj
 0002:00000374       _pinit                     00441374     MSVCRT:atonexit.obj
 0002:00000378       _pinit                     00441378     MSVCRT:crtexew.obj
 0002:00000994       _GS_ExceptionPointers      00441994     MSVCRT:gs_report.obj
 0002:000033e8       __unwindtable$??$Load@VTexture2D@@@ContentManager@@QAE?AV?$SmartHandle@VTexture2D@@@@V?$basic_string@DU?$char_traits@D@std@@V?$allocator@D@2@@std@@@Z 004443e8     ContentManager.obj
 0002:00003408       __ehfuncinfo$??$Load@VTexture2D@@@ContentManager@@QAE?AV?$SmartHandle@VTexture2D@@@@V?$basic_string@DU?$char_traits@D@std@@V?$allocator@D@2@@std@@@Z 00444408     ContentManager.obj
 0002:0000342c       __ehfuncinfo$??0Demo@@QAE@PAUHDC__@@@Z 0044442c     Demo.obj
 0002:00003450       __unwindtable$??0Demo@@QAE@PAUHDC__@@@Z 00444450     Demo.obj
 0002:000034d8       __ehfuncinfo$??1Demo@@UAE@XZ 004444d8     Demo.obj
 0002:000034fc       __unwindtable$??1Demo@@UAE@XZ 004444fc     Demo.obj
 0002:0000356c       __ehfuncinfo$?Initialize@Demo@@UAEXXZ 0044456c     Demo.obj
 0002:00003590       __unwindtable$?Initialize@Demo@@UAEXXZ 00444590     Demo.obj
 0002:00003648       __ehfuncinfo$?LoadContent@Demo@@UAEXXZ 00444648     Demo.obj
 0002:0000366c       __unwindtable$?LoadContent@Demo@@UAEXXZ 0044466c     Demo.obj
 0002:000036cc       __unwindtable$?Update@Demo@@UAEXN@Z 004446cc     Demo.obj
 0002:000036dc       __ehfuncinfo$?Update@Demo@@UAEXN@Z 004446dc     Demo.obj
 0002:00003700       __ehfuncinfo$?Draw@Demo@@UAEXN@Z 00444700     Demo.obj
 0002:00003724       __unwindtable$?Draw@Demo@@UAEXN@Z 00444724     Demo.obj
 0002:00003754       __unwindtable$?AddGameObject@Demo@@QAE_NV?$SmartHandle@VGameObject@@@@@Z 00444754     Demo.obj
 0002:00003764       __ehfuncinfo$?AddGameObject@Demo@@QAE_NV?$SmartHandle@VGameObject@@@@@Z 00444764     Demo.obj
 0002:00003788       __unwindtable$?SpawnObject@Demo@@QAEXXZ 00444788     Demo.obj
 0002:000037a0       __ehfuncinfo$?SpawnObject@Demo@@QAEXXZ 004447a0     Demo.obj
 0002:000037c4       __unwindtable$?MouseDown@Demo@@AAEXABUb2Vec2@@@Z 004447c4     Demo.obj
 0002:000037d4       __ehfuncinfo$?MouseDown@Demo@@AAEXABUb2Vec2@@@Z 004447d4     Demo.obj
 0002:000037f8       __unwindtable$?MouseUp@Demo@@AAEXABUb2Vec2@@@Z 004447f8     Demo.obj
 0002:00003808       __ehfuncinfo$?MouseUp@Demo@@AAEXABUb2Vec2@@@Z 00444808     Demo.obj
 0002:0000382c       __unwindtable$??0QueryCallback@@QAE@ABUb2Vec2@@@Z 0044482c     Demo.obj
 0002:00003834       __ehfuncinfo$??0QueryCallback@@QAE@ABUb2Vec2@@@Z 00444834     Demo.obj
 0002:00003858       __unwindtable$??0?$Unmanaged_Array@V?$SmartHandle@VGameObject@@@@@@QAE@H@Z 00444858     Demo.obj
 0002:00003878       __ehfuncinfo$??0?$Unmanaged_Array@V?$SmartHandle@VGameObject@@@@@@QAE@H@Z 00444878     Demo.obj
 0002:0000389c       __unwindtable$??0?$Unmanaged_Array@V?$SmartHandle@VDemoButton@@@@@@QAE@H@Z 0044489c     Demo.obj
 0002:000038bc       __ehfuncinfo$??0?$Unmanaged_Array@V?$SmartHandle@VDemoButton@@@@@@QAE@H@Z 004448bc     Demo.obj
 0002:000038e0       __catchsym$??$_Insert@V?$move_iterator@V?$_Vector_iterator@V?$_Vector_val@U?$_Simple_types@H@std@@@std@@@std@@@std@@@?$vector@HV?$allocator@H@std@@@std@@QAEXV?$_Vector_const_iterator@V?$_Vector_val@U?$_Simple_types@H@std@@@std@@@1@V?$move_iterator@V?$_Vector_iterator@V?$_Vector_val@U?$_Simple_types@H@std@@@std@@@std@@@1@1Uforward_iterator_tag@1@@Z$2 004448e0     Demo.obj
 0002:000038f0       __unwindtable$??$_Insert@V?$move_iterator@V?$_Vector_iterator@V?$_Vector_val@U?$_Simple_types@H@std@@@std@@@std@@@std@@@?$vector@HV?$allocator@H@std@@@std@@QAEXV?$_Vector_const_iterator@V?$_Vector_val@U?$_Simple_types@H@std@@@std@@@1@V?$move_iterator@V?$_Vector_iterator@V?$_Vector_val@U?$_Simple_types@H@std@@@std@@@std@@@1@1Uforward_iterator_tag@1@@Z 004448f0     Demo.obj
 0002:00003900       __tryblocktable$??$_Insert@V?$move_iterator@V?$_Vector_iterator@V?$_Vector_val@U?$_Simple_types@H@std@@@std@@@std@@@std@@@?$vector@HV?$allocator@H@std@@@std@@QAEXV?$_Vector_const_iterator@V?$_Vector_val@U?$_Simple_types@H@std@@@std@@@1@V?$move_iterator@V?$_Vector_iterator@V?$_Vector_val@U?$_Simple_types@H@std@@@std@@@std@@@1@1Uforward_iterator_tag@1@@Z 00444900     Demo.obj
 0002:00003914       __ehfuncinfo$??$_Insert@V?$move_iterator@V?$_Vector_iterator@V?$_Vector_val@U?$_Simple_types@H@std@@@std@@@std@@@std@@@?$vector@HV?$allocator@H@std@@@std@@QAEXV?$_Vector_const_iterator@V?$_Vector_val@U?$_Simple_types@H@std@@@std@@@1@V?$move_iterator@V?$_Vector_iterator@V?$_Vector_val@U?$_Simple_types@H@std@@@std@@@std@@@1@1Uforward_iterator_tag@1@@Z 00444914     Demo.obj
 0002:00003938       __catchsym$??$_Uninit_copy@V?$move_iterator@V?$_Vector_iterator@V?$_Vector_val@U?$_Simple_types@H@std@@@std@@@std@@@std@@PAHV?$allocator@H@2@@std@@YAPAHV?$move_iterator@V?$_Vector_iterator@V?$_Vector_val@U?$_Simple_types@H@std@@@std@@@std@@@0@0PAHAAU?$_Wrap_alloc@V?$allocator@H@std@@@0@U_Nonscalar_ptr_iterator_tag@0@@Z$2 00444938     Demo.obj
 0002:00003948       __unwindtable$??$_Uninit_copy@V?$move_iterator@V?$_Vector_iterator@V?$_Vector_val@U?$_Simple_types@H@std@@@std@@@std@@@std@@PAHV?$allocator@H@2@@std@@YAPAHV?$move_iterator@V?$_Vector_iterator@V?$_Vector_val@U?$_Simple_types@H@std@@@std@@@std@@@0@0PAHAAU?$_Wrap_alloc@V?$allocator@H@std@@@0@U_Nonscalar_ptr_iterator_tag@0@@Z 00444948     Demo.obj
 0002:00003958       __tryblocktable$??$_Uninit_copy@V?$move_iterator@V?$_Vector_iterator@V?$_Vector_val@U?$_Simple_types@H@std@@@std@@@std@@@std@@PAHV?$allocator@H@2@@std@@YAPAHV?$move_iterator@V?$_Vector_iterator@V?$_Vector_val@U?$_Simple_types@H@std@@@std@@@std@@@0@0PAHAAU?$_Wrap_alloc@V?$allocator@H@std@@@0@U_Nonscalar_ptr_iterator_tag@0@@Z 00444958     Demo.obj
 0002:0000396c       __ehfuncinfo$??$_Uninit_copy@V?$move_iterator@V?$_Vector_iterator@V?$_Vector_val@U?$_Simple_types@H@std@@@std@@@std@@@std@@PAHV?$allocator@H@2@@std@@YAPAHV?$move_iterator@V?$_Vector_iterator@V?$_Vector_val@U?$_Simple_types@H@std@@@std@@@std@@@0@0PAHAAU?$_Wrap_alloc@V?$allocator@H@std@@@0@U_Nonscalar_ptr_iterator_tag@0@@Z 0044496c     Demo.obj
 0002:00003990       __unwindtable$??$construct@HH@?$allocator@H@std@@QAEXPAH$$QAH@Z 00444990     Demo.obj
 0002:00003998       __ehfuncinfo$??$construct@HH@?$allocator@H@std@@QAEXPAH$$QAH@Z 00444998     Demo.obj
 0002:000039bc       __ehfuncinfo$??0DemoButton@@QAE@VDemoRectangle@@V?$SmartHandle@VTexture2D@@@@VDemoColour@@@Z 004449bc     DemoButton.obj
 0002:000039e0       __unwindtable$??0DemoButton@@QAE@VDemoRectangle@@V?$SmartHandle@VTexture2D@@@@VDemoColour@@@Z 004449e0     DemoButton.obj
 0002:00003a10       __unwindtable$??1DemoButton@@UAE@XZ 00444a10     DemoButton.obj
 0002:00003a30       __ehfuncinfo$??1DemoButton@@UAE@XZ 00444a30     DemoButton.obj
 0002:00003a54       __catchsym$?_Reallocate@?$vector@HV?$allocator@H@std@@@std@@IAEXI@Z$2 00444a54     DemoContactListener.obj
 0002:00003a64       __unwindtable$?_Reallocate@?$vector@HV?$allocator@H@std@@@std@@IAEXI@Z 00444a64     DemoContactListener.obj
 0002:00003a74       __tryblocktable$?_Reallocate@?$vector@HV?$allocator@H@std@@@std@@IAEXI@Z 00444a74     DemoContactListener.obj
 0002:00003a88       __ehfuncinfo$?_Reallocate@?$vector@HV?$allocator@H@std@@@std@@IAEXI@Z 00444a88     DemoContactListener.obj
 0002:00003aac       __unwindtable$??$construct@HAAH@?$allocator@H@std@@QAEXPAHAAH@Z 00444aac     DemoContactListener.obj
 0002:00003ab4       __ehfuncinfo$??$construct@HAAH@?$allocator@H@std@@QAEXPAHAAH@Z 00444ab4     DemoContactListener.obj
 0002:00003ad8       __unwindtable$??0DemoDebugInfo@@QAE@PAUHDC__@@@Z 00444ad8     DemoDebugInfo.obj
 0002:00003ae8       __ehfuncinfo$??0DemoDebugInfo@@QAE@PAUHDC__@@@Z 00444ae8     DemoDebugInfo.obj
 0002:00003b0c       __unwindtable$?DrawInfoToScreen@DemoDebugInfo@@QAEXXZ 00444b0c     DemoDebugInfo.obj
 0002:00003b2c       __ehfuncinfo$?DrawInfoToScreen@DemoDebugInfo@@QAEXXZ 00444b2c     DemoDebugInfo.obj
 0002:00003b50       __unwindtable$?AddDebugInfo@DemoDebugInfo@@QAEXV?$basic_string@DU?$char_traits@D@std@@V?$allocator@D@2@@std@@N@Z 00444b50     DemoDebugInfo.obj
 0002:00003b58       __ehfuncinfo$?AddDebugInfo@DemoDebugInfo@@QAEXV?$basic_string@DU?$char_traits@D@std@@V?$allocator@D@2@@std@@N@Z 00444b58     DemoDebugInfo.obj
 0002:00003b7c       __unwindtable$?UpdateFrameRate@DemoDebugInfo@@QAEXN@Z 00444b7c     DemoDebugInfo.obj
 0002:00003b84       __ehfuncinfo$?UpdateFrameRate@DemoDebugInfo@@QAEXN@Z 00444b84     DemoDebugInfo.obj
 0002:00003ba8       __catchsym$?_Buyheadnode@?$_Tree_alloc@$0A@U?$_Tree_base_types@U?$pair@$$CBV?$basic_string@DU?$char_traits@D@std@@V?$allocator@D@2@@std@@N@std@@V?$allocator@U?$pair@$$CBV?$basic_string@DU?$char_traits@D@std@@V?$allocator@D@2@@std@@N@std@@@2@@std@@@std@@QAEPAU?$_Tree_node@U?$pair@$$CBV?$basic_string@DU?$char_traits@D@std@@V?$allocator@D@2@@std@@N@std@@PAX@2@XZ$2 00444ba8     DemoDebugInfo.obj
 0002:00003bb8       __unwindtable$?_Buyheadnode@?$_Tree_alloc@$0A@U?$_Tree_base_types@U?$pair@$$CBV?$basic_string@DU?$char_traits@D@std@@V?$allocator@D@2@@std@@N@std@@V?$allocator@U?$pair@$$CBV?$basic_string@DU?$char_traits@D@std@@V?$allocator@D@2@@std@@N@std@@@2@@std@@@std@@QAEPAU?$_Tree_node@U?$pair@$$CBV?$basic_string@DU?$char_traits@D@std@@V?$allocator@D@2@@std@@N@std@@PAX@2@XZ 00444bb8     DemoDebugInfo.obj
 0002:00003bc8       __tryblocktable$?_Buyheadnode@?$_Tree_alloc@$0A@U?$_Tree_base_types@U?$pair@$$CBV?$basic_string@DU?$char_traits@D@std@@V?$allocator@D@2@@std@@N@std@@V?$allocator@U?$pair@$$CBV?$basic_string@DU?$char_traits@D@std@@V?$allocator@D@2@@std@@N@std@@@2@@std@@@std@@QAEPAU?$_Tree_node@U?$pair@$$CBV?$basic_string@DU?$char_traits@D@std@@V?$allocator@D@2@@std@@N@std@@PAX@2@XZ 00444bc8     DemoDebugInfo.obj
 0002:00003bdc       __ehfuncinfo$?_Buyheadnode@?$_Tree_alloc@$0A@U?$_Tree_base_types@U?$pair@$$CBV?$basic_string@DU?$char_traits@D@std@@V?$allocator@D@2@@std@@N@std@@V?$allocator@U?$pair@$$CBV?$basic_string@DU?$char_traits@D@std@@V?$allocator@D@2@@std@@N@std@@@2@@std@@@std@@QAEPAU?$_Tree_node@U?$pair@$$CBV?$basic_string@DU?$char_traits@D@std@@V?$allocator@D@2@@std@@N@std@@PAX@2@XZ 00444bdc     DemoDebugInfo.obj
 0002:00003c00       __catchsym$?_Buynode0@?$_Tree_buy@U?$pair@$$CBV?$basic_string@DU?$char_traits@D@std@@V?$allocator@D@2@@std@@N@std@@V?$allocator@U?$pair@$$CBV?$basic_string@DU?$char_traits@D@std@@V?$allocator@D@2@@std@@N@std@@@2@@std@@QAEPAU?$_Tree_node@U?$pair@$$CBV?$basic_string@DU?$char_traits@D@std@@V?$allocator@D@2@@std@@N@std@@PAX@2@XZ$2 00444c00     DemoDebugInfo.obj
 0002:00003c10       __unwindtable$?_Buynode0@?$_Tree_buy@U?$pair@$$CBV?$basic_string@DU?$char_traits@D@std@@V?$allocator@D@2@@std@@N@std@@V?$allocator@U?$pair@$$CBV?$basic_string@DU?$char_traits@D@std@@V?$allocator@D@2@@std@@N@std@@@2@@std@@QAEPAU?$_Tree_node@U?$pair@$$CBV?$basic_string@DU?$char_traits@D@std@@V?$allocator@D@2@@std@@N@std@@PAX@2@XZ 00444c10     DemoDebugInfo.obj
 0002:00003c20       __tryblocktable$?_Buynode0@?$_Tree_buy@U?$pair@$$CBV?$basic_string@DU?$char_traits@D@std@@V?$allocator@D@2@@std@@N@std@@V?$allocator@U?$pair@$$CBV?$basic_string@DU?$char_traits@D@std@@V?$allocator@D@2@@std@@N@std@@@2@@std@@QAEPAU?$_Tree_node@U?$pair@$$CBV?$basic_string@DU?$char_traits@D@std@@V?$allocator@D@2@@std@@N@std@@PAX@2@XZ 00444c20     DemoDebugInfo.obj
 0002:00003c34       __ehfuncinfo$?_Buynode0@?$_Tree_buy@U?$pair@$$CBV?$basic_string@DU?$char_traits@D@std@@V?$allocator@D@2@@std@@N@std@@V?$allocator@U?$pair@$$CBV?$basic_string@DU?$char_traits@D@std@@V?$allocator@D@2@@std@@N@std@@@2@@std@@QAEPAU?$_Tree_node@U?$pair@$$CBV?$basic_string@DU?$char_traits@D@std@@V?$allocator@D@2@@std@@N@std@@PAX@2@XZ 00444c34     DemoDebugInfo.obj
 0002:00003c58       __unwindtable$??1?$_Tree@V?$_Tmap_traits@V?$basic_string@DU?$char_traits@D@std@@V?$allocator@D@2@@std@@NU?$less@V?$basic_string@DU?$char_traits@D@std@@V?$allocator@D@2@@std@@@2@V?$allocator@U?$pair@$$CBV?$basic_string@DU?$char_traits@D@std@@V?$allocator@D@2@@std@@N@std@@@2@$0A@@std@@@std@@QAE@XZ 00444c58     DemoDebugInfo.obj
 0002:00003c60       __ehfuncinfo$??1?$_Tree@V?$_Tmap_traits@V?$basic_string@DU?$char_traits@D@std@@V?$allocator@D@2@@std@@NU?$less@V?$basic_string@DU?$char_traits@D@std@@V?$allocator@D@2@@std@@@2@V?$allocator@U?$pair@$$CBV?$basic_string@DU?$char_traits@D@std@@V?$allocator@D@2@@std@@N@std@@@2@$0A@@std@@@std@@QAE@XZ 00444c60     DemoDebugInfo.obj
 0002:00003c84       __unwindtable$??A?$map@V?$basic_string@DU?$char_traits@D@std@@V?$allocator@D@2@@std@@NU?$less@V?$basic_string@DU?$char_traits@D@std@@V?$allocator@D@2@@std@@@2@V?$allocator@U?$pair@$$CBV?$basic_string@DU?$char_traits@D@std@@V?$allocator@D@2@@std@@N@std@@@2@@std@@QAEAAN$$QAV?$basic_string@DU?$char_traits@D@std@@V?$allocator@D@2@@1@@Z 00444c84     DemoDebugInfo.obj
 0002:00003c8c       __ehfuncinfo$??A?$map@V?$basic_string@DU?$char_traits@D@std@@V?$allocator@D@2@@std@@NU?$less@V?$basic_string@DU?$char_traits@D@std@@V?$allocator@D@2@@std@@@2@V?$allocator@U?$pair@$$CBV?$basic_string@DU?$char_traits@D@std@@V?$allocator@D@2@@std@@N@std@@@2@@std@@QAEAAN$$QAV?$basic_string@DU?$char_traits@D@std@@V?$allocator@D@2@@1@@Z 00444c8c     DemoDebugInfo.obj
 0002:00003cb0       __unwindtable$??A?$map@V?$basic_string@DU?$char_traits@D@std@@V?$allocator@D@2@@std@@NU?$less@V?$basic_string@DU?$char_traits@D@std@@V?$allocator@D@2@@std@@@2@V?$allocator@U?$pair@$$CBV?$basic_string@DU?$char_traits@D@std@@V?$allocator@D@2@@std@@N@std@@@2@@std@@QAEAANABV?$basic_string@DU?$char_traits@D@std@@V?$allocator@D@2@@1@@Z 00444cb0     DemoDebugInfo.obj
 0002:00003cb8       __ehfuncinfo$??A?$map@V?$basic_string@DU?$char_traits@D@std@@V?$allocator@D@2@@std@@NU?$less@V?$basic_string@DU?$char_traits@D@std@@V?$allocator@D@2@@std@@@2@V?$allocator@U?$pair@$$CBV?$basic_string@DU?$char_traits@D@std@@V?$allocator@D@2@@std@@N@std@@@2@@std@@QAEAANABV?$basic_string@DU?$char_traits@D@std@@V?$allocator@D@2@@1@@Z 00444cb8     DemoDebugInfo.obj
 0002:00003cdc       __unwindtable$??0?$basic_ostringstream@DU?$char_traits@D@std@@V?$allocator@D@2@@std@@QAE@H@Z 00444cdc     DemoDebugInfo.obj
 0002:00003cec       __ehfuncinfo$??0?$basic_ostringstream@DU?$char_traits@D@std@@V?$allocator@D@2@@std@@QAE@H@Z 00444cec     DemoDebugInfo.obj
 0002:00003d10       __unwindtable$??1?$basic_ostringstream@DU?$char_traits@D@std@@V?$allocator@D@2@@std@@UAE@XZ 00444d10     DemoDebugInfo.obj
 0002:00003d18       __ehfuncinfo$??1?$basic_ostringstream@DU?$char_traits@D@std@@V?$allocator@D@2@@std@@UAE@XZ 00444d18     DemoDebugInfo.obj
 0002:00003d3c       __unwindtable$??0?$basic_stringbuf@DU?$char_traits@D@std@@V?$allocator@D@2@@std@@QAE@H@Z 00444d3c     DemoDebugInfo.obj
 0002:00003d44       __ehfuncinfo$??0?$basic_stringbuf@DU?$char_traits@D@std@@V?$allocator@D@2@@std@@QAE@H@Z 00444d44     DemoDebugInfo.obj
 0002:00003d68       __unwindtable$??1?$basic_stringbuf@DU?$char_traits@D@std@@V?$allocator@D@2@@std@@UAE@XZ 00444d68     DemoDebugInfo.obj
 0002:00003d70       __ehfuncinfo$??1?$basic_stringbuf@DU?$char_traits@D@std@@V?$allocator@D@2@@std@@UAE@XZ 00444d70     DemoDebugInfo.obj
 0002:00003d94       __unwindtable$?str@?$basic_stringbuf@DU?$char_traits@D@std@@V?$allocator@D@2@@std@@QBE?AV?$basic_string@DU?$char_traits@D@std@@V?$allocator@D@2@@2@XZ 00444d94     DemoDebugInfo.obj
 0002:00003db4       __ehfuncinfo$?str@?$basic_stringbuf@DU?$char_traits@D@std@@V?$allocator@D@2@@std@@QBE?AV?$basic_string@DU?$char_traits@D@std@@V?$allocator@D@2@@2@XZ 00444db4     DemoDebugInfo.obj
 0002:00003dd8       __catchsym$??$?6DU?$char_traits@D@std@@V?$allocator@D@1@@std@@YAAAV?$basic_ostream@DU?$char_traits@D@std@@@0@AAV10@ABV?$basic_string@DU?$char_traits@D@std@@V?$allocator@D@2@@0@@Z$3 00444dd8     DemoDebugInfo.obj
 0002:00003de8       __tryblocktable$??$?6DU?$char_traits@D@std@@V?$allocator@D@1@@std@@YAAAV?$basic_ostream@DU?$char_traits@D@std@@@0@AAV10@ABV?$basic_string@DU?$char_traits@D@std@@V?$allocator@D@2@@0@@Z 00444de8     DemoDebugInfo.obj
 0002:00003dfc       __unwindtable$??$?6DU?$char_traits@D@std@@V?$allocator@D@1@@std@@YAAAV?$basic_ostream@DU?$char_traits@D@std@@@0@AAV10@ABV?$basic_string@DU?$char_traits@D@std@@V?$allocator@D@2@@0@@Z 00444dfc     DemoDebugInfo.obj
 0002:00003e14       __ehfuncinfo$??$?6DU?$char_traits@D@std@@V?$allocator@D@1@@std@@YAAAV?$basic_ostream@DU?$char_traits@D@std@@@0@AAV10@ABV?$basic_string@DU?$char_traits@D@std@@V?$allocator@D@2@@0@@Z 00444e14     DemoDebugInfo.obj
 0002:00003e38       __catchsym$??$?6U?$char_traits@D@std@@@std@@YAAAV?$basic_ostream@DU?$char_traits@D@std@@@0@AAV10@PBD@Z$3 00444e38     DemoDebugInfo.obj
 0002:00003e48       __tryblocktable$??$?6U?$char_traits@D@std@@@std@@YAAAV?$basic_ostream@DU?$char_traits@D@std@@@0@AAV10@PBD@Z 00444e48     DemoDebugInfo.obj
 0002:00003e5c       __unwindtable$??$?6U?$char_traits@D@std@@@std@@YAAAV?$basic_ostream@DU?$char_traits@D@std@@@0@AAV10@PBD@Z 00444e5c     DemoDebugInfo.obj
 0002:00003e74       __ehfuncinfo$??$?6U?$char_traits@D@std@@@std@@YAAAV?$basic_ostream@DU?$char_traits@D@std@@@0@AAV10@PBD@Z 00444e74     DemoDebugInfo.obj
 0002:00003e98       __unwindtable$??0sentry@?$basic_ostream@DU?$char_traits@D@std@@@std@@QAE@AAV12@@Z 00444e98     DemoDebugInfo.obj
 0002:00003ea0       __ehfuncinfo$??0sentry@?$basic_ostream@DU?$char_traits@D@std@@@std@@QAE@AAV12@@Z 00444ea0     DemoDebugInfo.obj
 0002:00003ec4       __unwindtable$??1sentry@?$basic_ostream@DU?$char_traits@D@std@@@std@@QAE@XZ 00444ec4     DemoDebugInfo.obj
 0002:00003ecc       __ehfuncinfo$??1sentry@?$basic_ostream@DU?$char_traits@D@std@@@std@@QAE@XZ 00444ecc     DemoDebugInfo.obj
 0002:00003ef0       __unwindtable$??$?0V?$basic_string@DU?$char_traits@D@std@@V?$allocator@D@2@@std@@N@?$pair@V?$basic_string@DU?$char_traits@D@std@@V?$allocator@D@2@@std@@N@std@@QAE@$$QAV?$basic_string@DU?$char_traits@D@std@@V?$allocator@D@2@@1@$$QANPAPAX@Z 00444ef0     DemoDebugInfo.obj
 0002:00003ef8       __ehfuncinfo$??$?0V?$basic_string@DU?$char_traits@D@std@@V?$allocator@D@2@@std@@N@?$pair@V?$basic_string@DU?$char_traits@D@std@@V?$allocator@D@2@@std@@N@std@@QAE@$$QAV?$basic_string@DU?$char_traits@D@std@@V?$allocator@D@2@@1@$$QANPAPAX@Z 00444ef8     DemoDebugInfo.obj
 0002:00003f1c       __unwindtable$??$?0V?$basic_string@DU?$char_traits@D@std@@V?$allocator@D@2@@std@@N@?$pair@$$CBV?$basic_string@DU?$char_traits@D@std@@V?$allocator@D@2@@std@@N@std@@QAE@$$QAU?$pair@V?$basic_string@DU?$char_traits@D@std@@V?$allocator@D@2@@std@@N@1@@Z 00444f1c     DemoDebugInfo.obj
 0002:00003f24       __ehfuncinfo$??$?0V?$basic_string@DU?$char_traits@D@std@@V?$allocator@D@2@@std@@N@?$pair@$$CBV?$basic_string@DU?$char_traits@D@std@@V?$allocator@D@2@@std@@N@std@@QAE@$$QAU?$pair@V?$basic_string@DU?$char_traits@D@std@@V?$allocator@D@2@@std@@N@1@@Z 00444f24     DemoDebugInfo.obj
 0002:00003f48       __unwindtable$??$?0ABV?$basic_string@DU?$char_traits@D@std@@V?$allocator@D@2@@std@@N@?$pair@V?$basic_string@DU?$char_traits@D@std@@V?$allocator@D@2@@std@@N@std@@QAE@ABV?$basic_string@DU?$char_traits@D@std@@V?$allocator@D@2@@1@$$QANPAPAX@Z 00444f48     DemoDebugInfo.obj
 0002:00003f50       __ehfuncinfo$??$?0ABV?$basic_string@DU?$char_traits@D@std@@V?$allocator@D@2@@std@@N@?$pair@V?$basic_string@DU?$char_traits@D@std@@V?$allocator@D@2@@std@@N@std@@QAE@ABV?$basic_string@DU?$char_traits@D@std@@V?$allocator@D@2@@1@$$QANPAPAX@Z 00444f50     DemoDebugInfo.obj
 0002:00003f74       __catchsym$??$_Buynode@U?$pair@V?$basic_string@DU?$char_traits@D@std@@V?$allocator@D@2@@std@@N@std@@@?$_Tree_buy@U?$pair@$$CBV?$basic_string@DU?$char_traits@D@std@@V?$allocator@D@2@@std@@N@std@@V?$allocator@U?$pair@$$CBV?$basic_string@DU?$char_traits@D@std@@V?$allocator@D@2@@std@@N@std@@@2@@std@@QAEPAU?$_Tree_node@U?$pair@$$CBV?$basic_string@DU?$char_traits@D@std@@V?$allocator@D@2@@std@@N@std@@PAX@1@$$QAU?$pair@V?$basic_string@DU?$char_traits@D@std@@V?$allocator@D@2@@std@@N@1@@Z$2 00444f74     DemoDebugInfo.obj
 0002:00003f84       __unwindtable$??$_Buynode@U?$pair@V?$basic_string@DU?$char_traits@D@std@@V?$allocator@D@2@@std@@N@std@@@?$_Tree_buy@U?$pair@$$CBV?$basic_string@DU?$char_traits@D@std@@V?$allocator@D@2@@std@@N@std@@V?$allocator@U?$pair@$$CBV?$basic_string@DU?$char_traits@D@std@@V?$allocator@D@2@@std@@N@std@@@2@@std@@QAEPAU?$_Tree_node@U?$pair@$$CBV?$basic_string@DU?$char_traits@D@std@@V?$allocator@D@2@@std@@N@std@@PAX@1@$$QAU?$pair@V?$basic_string@DU?$char_traits@D@std@@V?$allocator@D@2@@std@@N@1@@Z 00444f84     DemoDebugInfo.obj
 0002:00003f94       __tryblocktable$??$_Buynode@U?$pair@V?$basic_string@DU?$char_traits@D@std@@V?$allocator@D@2@@std@@N@std@@@?$_Tree_buy@U?$pair@$$CBV?$basic_string@DU?$char_traits@D@std@@V?$allocator@D@2@@std@@N@std@@V?$allocator@U?$pair@$$CBV?$basic_string@DU?$char_traits@D@std@@V?$allocator@D@2@@std@@N@std@@@2@@std@@QAEPAU?$_Tree_node@U?$pair@$$CBV?$basic_string@DU?$char_traits@D@std@@V?$allocator@D@2@@std@@N@std@@PAX@1@$$QAU?$pair@V?$basic_string@DU?$char_traits@D@std@@V?$allocator@D@2@@std@@N@1@@Z 00444f94     DemoDebugInfo.obj
 0002:00003fa8       __ehfuncinfo$??$_Buynode@U?$pair@V?$basic_string@DU?$char_traits@D@std@@V?$allocator@D@2@@std@@N@std@@@?$_Tree_buy@U?$pair@$$CBV?$basic_string@DU?$char_traits@D@std@@V?$allocator@D@2@@std@@N@std@@V?$allocator@U?$pair@$$CBV?$basic_string@DU?$char_traits@D@std@@V?$allocator@D@2@@std@@N@std@@@2@@std@@QAEPAU?$_Tree_node@U?$pair@$$CBV?$basic_string@DU?$char_traits@D@std@@V?$allocator@D@2@@std@@N@std@@PAX@1@$$QAU?$pair@V?$basic_string@DU?$char_traits@D@std@@V?$allocator@D@2@@std@@N@1@@Z 00444fa8     DemoDebugInfo.obj
 0002:00003fcc       __catchsym$??$_Insert_hint@AAU?$pair@$$CBV?$basic_string@DU?$char_traits@D@std@@V?$allocator@D@2@@std@@N@std@@PAU?$_Tree_node@U?$pair@$$CBV?$basic_string@DU?$char_traits@D@std@@V?$allocator@D@2@@std@@N@std@@PAX@2@@?$_Tree@V?$_Tmap_traits@V?$basic_string@DU?$char_traits@D@std@@V?$allocator@D@2@@std@@NU?$less@V?$basic_string@DU?$char_traits@D@std@@V?$allocator@D@2@@std@@@2@V?$allocator@U?$pair@$$CBV?$basic_string@DU?$char_traits@D@std@@V?$allocator@D@2@@std@@N@std@@@2@$0A@@std@@@std@@IAE?AV?$_Tree_iterator@V?$_Tree_val@U?$_Tree_simple_types@U?$pair@$$CBV?$basic_string@DU?$char_traits@D@std@@V?$allocator@D@2@@std@@N@std@@@std@@@std@@@1@V?$_Tree_const_iterator@V?$_Tree_val@U?$_Tree_simple_types@U?$pair@$$CBV?$basic_string@DU?$char_traits@D@std@@V?$allocator@D@2@@std@@N@std@@@std@@@std@@@1@AAU?$pair@$$CBV?$basic_string@DU?$char_traits@D@std@@V?$allocator@D@2@@std@@N@1@PAU?$_Tree_node@U?$pair@$$CBV?$basic_string@DU?$char_traits@D@std@@V?$allocator@D@2@@std@@N@std@@PAX@1@@Z$2 00444fcc     DemoDebugInfo.obj
 0002:00003fdc       __unwindtable$??$_Insert_hint@AAU?$pair@$$CBV?$basic_string@DU?$char_traits@D@std@@V?$allocator@D@2@@std@@N@std@@PAU?$_Tree_node@U?$pair@$$CBV?$basic_string@DU?$char_traits@D@std@@V?$allocator@D@2@@std@@N@std@@PAX@2@@?$_Tree@V?$_Tmap_traits@V?$basic_string@DU?$char_traits@D@std@@V?$allocator@D@2@@std@@NU?$less@V?$basic_string@DU?$char_traits@D@std@@V?$allocator@D@2@@std@@@2@V?$allocator@U?$pair@$$CBV?$basic_string@DU?$char_traits@D@std@@V?$allocator@D@2@@std@@N@std@@@2@$0A@@std@@@std@@IAE?AV?$_Tree_iterator@V?$_Tree_val@U?$_Tree_simple_types@U?$pair@$$CBV?$basic_string@DU?$char_traits@D@std@@V?$allocator@D@2@@std@@N@std@@@std@@@std@@@1@V?$_Tree_const_iterator@V?$_Tree_val@U?$_Tree_simple_types@U?$pair@$$CBV?$basic_string@DU?$char_traits@D@std@@V?$allocator@D@2@@std@@N@std@@@std@@@std@@@1@AAU?$pair@$$CBV?$basic_string@DU?$char_traits@D@std@@V?$allocator@D@2@@std@@N@1@PAU?$_Tree_node@U?$pair@$$CBV?$basic_string@DU?$char_traits@D@std@@V?$allocator@D@2@@std@@N@std@@PAX@1@@Z 00444fdc     DemoDebugInfo.obj
 0002:00003fec       __tryblocktable$??$_Insert_hint@AAU?$pair@$$CBV?$basic_string@DU?$char_traits@D@std@@V?$allocator@D@2@@std@@N@std@@PAU?$_Tree_node@U?$pair@$$CBV?$basic_string@DU?$char_traits@D@std@@V?$allocator@D@2@@std@@N@std@@PAX@2@@?$_Tree@V?$_Tmap_traits@V?$basic_string@DU?$char_traits@D@std@@V?$allocator@D@2@@std@@NU?$less@V?$basic_string@DU?$char_traits@D@std@@V?$allocator@D@2@@std@@@2@V?$allocator@U?$pair@$$CBV?$basic_string@DU?$char_traits@D@std@@V?$allocator@D@2@@std@@N@std@@@2@$0A@@std@@@std@@IAE?AV?$_Tree_iterator@V?$_Tree_val@U?$_Tree_simple_types@U?$pair@$$CBV?$basic_string@DU?$char_traits@D@std@@V?$allocator@D@2@@std@@N@std@@@std@@@std@@@1@V?$_Tree_const_iterator@V?$_Tree_val@U?$_Tree_simple_types@U?$pair@$$CBV?$basic_string@DU?$char_traits@D@std@@V?$allocator@D@2@@std@@N@std@@@std@@@std@@@1@AAU?$pair@$$CBV?$basic_string@DU?$char_traits@D@std@@V?$allocator@D@2@@std@@N@1@PAU?$_Tree_node@U?$pair@$$CBV?$basic_string@DU?$char_traits@D@std@@V?$allocator@D@2@@std@@N@std@@PAX@1@@Z 00444fec     DemoDebugInfo.obj
 0002:00004000       __ehfuncinfo$??$_Insert_hint@AAU?$pair@$$CBV?$basic_string@DU?$char_traits@D@std@@V?$allocator@D@2@@std@@N@std@@PAU?$_Tree_node@U?$pair@$$CBV?$basic_string@DU?$char_traits@D@std@@V?$allocator@D@2@@std@@N@std@@PAX@2@@?$_Tree@V?$_Tmap_traits@V?$basic_string@DU?$char_traits@D@std@@V?$allocator@D@2@@std@@NU?$less@V?$basic_string@DU?$char_traits@D@std@@V?$allocator@D@2@@std@@@2@V?$allocator@U?$pair@$$CBV?$basic_string@DU?$char_traits@D@std@@V?$allocator@D@2@@std@@N@std@@@2@$0A@@std@@@std@@IAE?AV?$_Tree_iterator@V?$_Tree_val@U?$_Tree_simple_types@U?$pair@$$CBV?$basic_string@DU?$char_traits@D@std@@V?$allocator@D@2@@std@@N@std@@@std@@@std@@@1@V?$_Tree_const_iterator@V?$_Tree_val@U?$_Tree_simple_types@U?$pair@$$CBV?$basic_string@DU?$char_traits@D@std@@V?$allocator@D@2@@std@@N@std@@@std@@@std@@@1@AAU?$pair@$$CBV?$basic_string@DU?$char_traits@D@std@@V?$allocator@D@2@@std@@N@1@PAU?$_Tree_node@U?$pair@$$CBV?$basic_string@DU?$char_traits@D@std@@V?$allocator@D@2@@std@@N@std@@PAX@1@@Z 00445000     DemoDebugInfo.obj
 0002:00004024       __catchsym$??$_Insert_nohint@AAU?$pair@$$CBV?$basic_string@DU?$char_traits@D@std@@V?$allocator@D@2@@std@@N@std@@PAU?$_Tree_node@U?$pair@$$CBV?$basic_string@DU?$char_traits@D@std@@V?$allocator@D@2@@std@@N@std@@PAX@2@@?$_Tree@V?$_Tmap_traits@V?$basic_string@DU?$char_traits@D@std@@V?$allocator@D@2@@std@@NU?$less@V?$basic_string@DU?$char_traits@D@std@@V?$allocator@D@2@@std@@@2@V?$allocator@U?$pair@$$CBV?$basic_string@DU?$char_traits@D@std@@V?$allocator@D@2@@std@@N@std@@@2@$0A@@std@@@std@@IAE?AU?$pair@V?$_Tree_iterator@V?$_Tree_val@U?$_Tree_simple_types@U?$pair@$$CBV?$basic_string@DU?$char_traits@D@std@@V?$allocator@D@2@@std@@N@std@@@std@@@std@@@std@@_N@1@_NAAU?$pair@$$CBV?$basic_string@DU?$char_traits@D@std@@V?$allocator@D@2@@std@@N@1@PAU?$_Tree_node@U?$pair@$$CBV?$basic_string@DU?$char_traits@D@std@@V?$allocator@D@2@@std@@N@std@@PAX@1@@Z$2 00445024     DemoDebugInfo.obj
 0002:00004034       __unwindtable$??$_Insert_nohint@AAU?$pair@$$CBV?$basic_string@DU?$char_traits@D@std@@V?$allocator@D@2@@std@@N@std@@PAU?$_Tree_node@U?$pair@$$CBV?$basic_string@DU?$char_traits@D@std@@V?$allocator@D@2@@std@@N@std@@PAX@2@@?$_Tree@V?$_Tmap_traits@V?$basic_string@DU?$char_traits@D@std@@V?$allocator@D@2@@std@@NU?$less@V?$basic_string@DU?$char_traits@D@std@@V?$allocator@D@2@@std@@@2@V?$allocator@U?$pair@$$CBV?$basic_string@DU?$char_traits@D@std@@V?$allocator@D@2@@std@@N@std@@@2@$0A@@std@@@std@@IAE?AU?$pair@V?$_Tree_iterator@V?$_Tree_val@U?$_Tree_simple_types@U?$pair@$$CBV?$basic_string@DU?$char_traits@D@std@@V?$allocator@D@2@@std@@N@std@@@std@@@std@@@std@@_N@1@_NAAU?$pair@$$CBV?$basic_string@DU?$char_traits@D@std@@V?$allocator@D@2@@std@@N@1@PAU?$_Tree_node@U?$pair@$$CBV?$basic_string@DU?$char_traits@D@std@@V?$allocator@D@2@@std@@N@std@@PAX@1@@Z 00445034     DemoDebugInfo.obj
 0002:00004044       __tryblocktable$??$_Insert_nohint@AAU?$pair@$$CBV?$basic_string@DU?$char_traits@D@std@@V?$allocator@D@2@@std@@N@std@@PAU?$_Tree_node@U?$pair@$$CBV?$basic_string@DU?$char_traits@D@std@@V?$allocator@D@2@@std@@N@std@@PAX@2@@?$_Tree@V?$_Tmap_traits@V?$basic_string@DU?$char_traits@D@std@@V?$allocator@D@2@@std@@NU?$less@V?$basic_string@DU?$char_traits@D@std@@V?$allocator@D@2@@std@@@2@V?$allocator@U?$pair@$$CBV?$basic_string@DU?$char_traits@D@std@@V?$allocator@D@2@@std@@N@std@@@2@$0A@@std@@@std@@IAE?AU?$pair@V?$_Tree_iterator@V?$_Tree_val@U?$_Tree_simple_types@U?$pair@$$CBV?$basic_string@DU?$char_traits@D@std@@V?$allocator@D@2@@std@@N@std@@@std@@@std@@@std@@_N@1@_NAAU?$pair@$$CBV?$basic_string@DU?$char_traits@D@std@@V?$allocator@D@2@@std@@N@1@PAU?$_Tree_node@U?$pair@$$CBV?$basic_string@DU?$char_traits@D@std@@V?$allocator@D@2@@std@@N@std@@PAX@1@@Z 00445044     DemoDebugInfo.obj
 0002:00004058       __ehfuncinfo$??$_Insert_nohint@AAU?$pair@$$CBV?$basic_string@DU?$char_traits@D@std@@V?$allocator@D@2@@std@@N@std@@PAU?$_Tree_node@U?$pair@$$CBV?$basic_string@DU?$char_traits@D@std@@V?$allocator@D@2@@std@@N@std@@PAX@2@@?$_Tree@V?$_Tmap_traits@V?$basic_string@DU?$char_traits@D@std@@V?$allocator@D@2@@std@@NU?$less@V?$basic_string@DU?$char_traits@D@std@@V?$allocator@D@2@@std@@@2@V?$allocator@U?$pair@$$CBV?$basic_string@DU?$char_traits@D@std@@V?$allocator@D@2@@std@@N@std@@@2@$0A@@std@@@std@@IAE?AU?$pair@V?$_Tree_iterator@V?$_Tree_val@U?$_Tree_simple_types@U?$pair@$$CBV?$basic_string@DU?$char_traits@D@std@@V?$allocator@D@2@@std@@N@std@@@std@@@std@@@std@@_N@1@_NAAU?$pair@$$CBV?$basic_string@DU?$char_traits@D@std@@V?$allocator@D@2@@std@@N@1@PAU?$_Tree_node@U?$pair@$$CBV?$basic_string@DU?$char_traits@D@std@@V?$allocator@D@2@@std@@N@std@@PAX@1@@Z 00445058     DemoDebugInfo.obj
 0002:0000407c       __unwindtable$??$construct@PAU?$_Tree_node@U?$pair@$$CBV?$basic_string@DU?$char_traits@D@std@@V?$allocator@D@2@@std@@N@std@@PAX@std@@AAPAU12@@?$allocator@U?$_Tree_node@U?$pair@$$CBV?$basic_string@DU?$char_traits@D@std@@V?$allocator@D@2@@std@@N@std@@PAX@std@@@std@@QAEXPAPAU?$_Tree_node@U?$pair@$$CBV?$basic_string@DU?$char_traits@D@std@@V?$allocator@D@2@@std@@N@std@@PAX@1@AAPAU21@@Z 0044507c     DemoDebugInfo.obj
 0002:00004084       __ehfuncinfo$??$construct@PAU?$_Tree_node@U?$pair@$$CBV?$basic_string@DU?$char_traits@D@std@@V?$allocator@D@2@@std@@N@std@@PAX@std@@AAPAU12@@?$allocator@U?$_Tree_node@U?$pair@$$CBV?$basic_string@DU?$char_traits@D@std@@V?$allocator@D@2@@std@@N@std@@PAX@std@@@std@@QAEXPAPAU?$_Tree_node@U?$pair@$$CBV?$basic_string@DU?$char_traits@D@std@@V?$allocator@D@2@@std@@N@std@@PAX@1@AAPAU21@@Z 00445084     DemoDebugInfo.obj
 0002:000040a8       __unwindtable$??$construct@U?$pair@$$CBV?$basic_string@DU?$char_traits@D@std@@V?$allocator@D@2@@std@@N@std@@U?$pair@V?$basic_string@DU?$char_traits@D@std@@V?$allocator@D@2@@std@@N@2@@?$allocator@U?$_Tree_node@U?$pair@$$CBV?$basic_string@DU?$char_traits@D@std@@V?$allocator@D@2@@std@@N@std@@PAX@std@@@std@@QAEXPAU?$pair@$$CBV?$basic_string@DU?$char_traits@D@std@@V?$allocator@D@2@@std@@N@1@$$QAU?$pair@V?$basic_string@DU?$char_traits@D@std@@V?$allocator@D@2@@std@@N@1@@Z 004450a8     DemoDebugInfo.obj
 0002:000040b0       __ehfuncinfo$??$construct@U?$pair@$$CBV?$basic_string@DU?$char_traits@D@std@@V?$allocator@D@2@@std@@N@std@@U?$pair@V?$basic_string@DU?$char_traits@D@std@@V?$allocator@D@2@@std@@N@2@@?$allocator@U?$_Tree_node@U?$pair@$$CBV?$basic_string@DU?$char_traits@D@std@@V?$allocator@D@2@@std@@N@std@@PAX@std@@@std@@QAEXPAU?$pair@$$CBV?$basic_string@DU?$char_traits@D@std@@V?$allocator@D@2@@std@@N@1@$$QAU?$pair@V?$basic_string@DU?$char_traits@D@std@@V?$allocator@D@2@@std@@N@1@@Z 004450b0     DemoDebugInfo.obj
 0002:000040d4       __unwindtable$?Run@Game@@QAE_NXZ 004450d4     Game.obj
 0002:000040dc       __ehfuncinfo$?Run@Game@@QAE_NXZ 004450dc     Game.obj
 0002:00004100       __unwindtable$?Initialize@Game@@UAEXXZ 00445100     Game.obj
 0002:00004110       __ehfuncinfo$?Initialize@Game@@UAEXXZ 00445110     Game.obj
 0002:00004134       __ehfuncinfo$??0GameObject@@QAE@XZ 00445134     GameObject.obj
 0002:00004158       __unwindtable$??0GameObject@@QAE@XZ 00445158     GameObject.obj
 0002:00004180       __unwindtable$??1GameObject@@UAE@XZ 00445180     GameObject.obj
 0002:00004198       __ehfuncinfo$??1GameObject@@UAE@XZ 00445198     GameObject.obj
 0002:000041bc       __unwindtable$??0PushButton@@QAE@VDemoRectangle@@PAVTexture2D@@VDemoColour@@@Z 004451bc     PushButton.obj
 0002:000041cc       __ehfuncinfo$??0PushButton@@QAE@VDemoRectangle@@PAVTexture2D@@VDemoColour@@@Z 004451cc     PushButton.obj
 0002:000041f0       __unwindtable$??0SpriteBatch@@QAE@XZ 004451f0     SpriteBatch.obj
 0002:00004208       __ehfuncinfo$??0SpriteBatch@@QAE@XZ 00445208     SpriteBatch.obj
 0002:0000422c       __unwindtable$??1SpriteBatch@@UAE@XZ 0044522c     SpriteBatch.obj
 0002:00004234       __ehfuncinfo$??1SpriteBatch@@UAE@XZ 00445234     SpriteBatch.obj
 0002:00004258       __unwindtable$?Draw@SpriteBatch@@QAEXV?$SmartHandle@VTexture2D@@@@VDemoRectangle@@VDemoColour@@@Z 00445258     SpriteBatch.obj
 0002:00004278       __ehfuncinfo$?Draw@SpriteBatch@@QAEXV?$SmartHandle@VTexture2D@@@@VDemoRectangle@@VDemoColour@@@Z 00445278     SpriteBatch.obj
 0002:0000429c       __unwindtable$?Draw@SpriteBatch@@QAEXV?$SmartHandle@VTexture2D@@@@PAMPAVDemoRectangle@@VDemoColour@@M11@Z 0044529c     SpriteBatch.obj
 0002:000042b4       __ehfuncinfo$?Draw@SpriteBatch@@QAEXV?$SmartHandle@VTexture2D@@@@PAMPAVDemoRectangle@@VDemoColour@@M11@Z 004452b4     SpriteBatch.obj
 0002:000042d8       __ehfuncinfo$??0Sprite@SpriteBatch@@QAE@V?$SmartHandle@VTexture2D@@@@VDemoRectangle@@VDemoColour@@@Z 004452d8     SpriteBatch.obj
 0002:000042fc       __unwindtable$??0Sprite@SpriteBatch@@QAE@V?$SmartHandle@VTexture2D@@@@VDemoRectangle@@VDemoColour@@@Z 004452fc     SpriteBatch.obj
 0002:00004324       __unwindtable$??0Sprite@SpriteBatch@@QAE@V?$SmartHandle@VTexture2D@@@@PAMPAVDemoRectangle@@VDemoColour@@M11@Z 00445324     SpriteBatch.obj
 0002:00004344       __ehfuncinfo$??0Sprite@SpriteBatch@@QAE@V?$SmartHandle@VTexture2D@@@@PAMPAVDemoRectangle@@VDemoColour@@M11@Z 00445344     SpriteBatch.obj
 0002:00004368       __unwindtable$??1Sprite@SpriteBatch@@QAE@XZ 00445368     SpriteBatch.obj
 0002:00004370       __ehfuncinfo$??1Sprite@SpriteBatch@@QAE@XZ 00445370     SpriteBatch.obj
 0002:00004394       __catchsym$?_Reallocate@?$vector@USprite@SpriteBatch@@V?$allocator@USprite@SpriteBatch@@@std@@@std@@IAEXI@Z$2 00445394     SpriteBatch.obj
 0002:000043a4       __unwindtable$?_Reallocate@?$vector@USprite@SpriteBatch@@V?$allocator@USprite@SpriteBatch@@@std@@@std@@IAEXI@Z 004453a4     SpriteBatch.obj
 0002:000043b4       __tryblocktable$?_Reallocate@?$vector@USprite@SpriteBatch@@V?$allocator@USprite@SpriteBatch@@@std@@@std@@IAEXI@Z 004453b4     SpriteBatch.obj
 0002:000043c8       __ehfuncinfo$?_Reallocate@?$vector@USprite@SpriteBatch@@V?$allocator@USprite@SpriteBatch@@@std@@@std@@IAEXI@Z 004453c8     SpriteBatch.obj
 0002:000043ec       __catchsym$??$_Insert@V?$move_iterator@V?$_Vector_iterator@V?$_Vector_val@U?$_Simple_types@USprite@SpriteBatch@@@std@@@std@@@std@@@std@@@?$vector@USprite@SpriteBatch@@V?$allocator@USprite@SpriteBatch@@@std@@@std@@QAEXV?$_Vector_const_iterator@V?$_Vector_val@U?$_Simple_types@USprite@SpriteBatch@@@std@@@std@@@1@V?$move_iterator@V?$_Vector_iterator@V?$_Vector_val@U?$_Simple_types@USprite@SpriteBatch@@@std@@@std@@@std@@@1@1Uforward_iterator_tag@1@@Z$2 004453ec     SpriteBatch.obj
 0002:000043fc       __unwindtable$??$_Insert@V?$move_iterator@V?$_Vector_iterator@V?$_Vector_val@U?$_Simple_types@USprite@SpriteBatch@@@std@@@std@@@std@@@std@@@?$vector@USprite@SpriteBatch@@V?$allocator@USprite@SpriteBatch@@@std@@@std@@QAEXV?$_Vector_const_iterator@V?$_Vector_val@U?$_Simple_types@USprite@SpriteBatch@@@std@@@std@@@1@V?$move_iterator@V?$_Vector_iterator@V?$_Vector_val@U?$_Simple_types@USprite@SpriteBatch@@@std@@@std@@@std@@@1@1Uforward_iterator_tag@1@@Z 004453fc     SpriteBatch.obj
 0002:0000440c       __tryblocktable$??$_Insert@V?$move_iterator@V?$_Vector_iterator@V?$_Vector_val@U?$_Simple_types@USprite@SpriteBatch@@@std@@@std@@@std@@@std@@@?$vector@USprite@SpriteBatch@@V?$allocator@USprite@SpriteBatch@@@std@@@std@@QAEXV?$_Vector_const_iterator@V?$_Vector_val@U?$_Simple_types@USprite@SpriteBatch@@@std@@@std@@@1@V?$move_iterator@V?$_Vector_iterator@V?$_Vector_val@U?$_Simple_types@USprite@SpriteBatch@@@std@@@std@@@std@@@1@1Uforward_iterator_tag@1@@Z 0044540c     SpriteBatch.obj
 0002:00004420       __ehfuncinfo$??$_Insert@V?$move_iterator@V?$_Vector_iterator@V?$_Vector_val@U?$_Simple_types@USprite@SpriteBatch@@@std@@@std@@@std@@@std@@@?$vector@USprite@SpriteBatch@@V?$allocator@USprite@SpriteBatch@@@std@@@std@@QAEXV?$_Vector_const_iterator@V?$_Vector_val@U?$_Simple_types@USprite@SpriteBatch@@@std@@@std@@@1@V?$move_iterator@V?$_Vector_iterator@V?$_Vector_val@U?$_Simple_types@USprite@SpriteBatch@@@std@@@std@@@std@@@1@1Uforward_iterator_tag@1@@Z 00445420     SpriteBatch.obj
 0002:00004444       __unwindtable$??$construct@USprite@SpriteBatch@@U12@@?$allocator@USprite@SpriteBatch@@@std@@QAEXPAUSprite@SpriteBatch@@$$QAU23@@Z 00445444     SpriteBatch.obj
 0002:0000444c       __ehfuncinfo$??$construct@USprite@SpriteBatch@@U12@@?$allocator@USprite@SpriteBatch@@@std@@QAEXPAUSprite@SpriteBatch@@$$QAU23@@Z 0044544c     SpriteBatch.obj
 0002:00004470       __catchsym$??$_Uninit_move@PAUSprite@SpriteBatch@@PAU12@V?$allocator@USprite@SpriteBatch@@@std@@U12@@std@@YAPAUSprite@SpriteBatch@@PAU12@00AAU?$_Wrap_alloc@V?$allocator@USprite@SpriteBatch@@@std@@@0@0U_Nonscalar_ptr_iterator_tag@0@@Z$2 00445470     SpriteBatch.obj
 0002:00004480       __unwindtable$??$_Uninit_move@PAUSprite@SpriteBatch@@PAU12@V?$allocator@USprite@SpriteBatch@@@std@@U12@@std@@YAPAUSprite@SpriteBatch@@PAU12@00AAU?$_Wrap_alloc@V?$allocator@USprite@SpriteBatch@@@std@@@0@0U_Nonscalar_ptr_iterator_tag@0@@Z 00445480     SpriteBatch.obj
 0002:00004490       __tryblocktable$??$_Uninit_move@PAUSprite@SpriteBatch@@PAU12@V?$allocator@USprite@SpriteBatch@@@std@@U12@@std@@YAPAUSprite@SpriteBatch@@PAU12@00AAU?$_Wrap_alloc@V?$allocator@USprite@SpriteBatch@@@std@@@0@0U_Nonscalar_ptr_iterator_tag@0@@Z 00445490     SpriteBatch.obj
 0002:000044a4       __ehfuncinfo$??$_Uninit_move@PAUSprite@SpriteBatch@@PAU12@V?$allocator@USprite@SpriteBatch@@@std@@U12@@std@@YAPAUSprite@SpriteBatch@@PAU12@00AAU?$_Wrap_alloc@V?$allocator@USprite@SpriteBatch@@@std@@@0@0U_Nonscalar_ptr_iterator_tag@0@@Z 004454a4     SpriteBatch.obj
 0002:000044c8       __catchsym$??$_Uninit_copy@V?$move_iterator@V?$_Vector_iterator@V?$_Vector_val@U?$_Simple_types@USprite@SpriteBatch@@@std@@@std@@@std@@@std@@PAUSprite@SpriteBatch@@V?$allocator@USprite@SpriteBatch@@@2@@std@@YAPAUSprite@SpriteBatch@@V?$move_iterator@V?$_Vector_iterator@V?$_Vector_val@U?$_Simple_types@USprite@SpriteBatch@@@std@@@std@@@std@@@0@0PAU12@AAU?$_Wrap_alloc@V?$allocator@USprite@SpriteBatch@@@std@@@0@U_Nonscalar_ptr_iterator_tag@0@@Z$2 004454c8     SpriteBatch.obj
 0002:000044d8       __unwindtable$??$_Uninit_copy@V?$move_iterator@V?$_Vector_iterator@V?$_Vector_val@U?$_Simple_types@USprite@SpriteBatch@@@std@@@std@@@std@@@std@@PAUSprite@SpriteBatch@@V?$allocator@USprite@SpriteBatch@@@2@@std@@YAPAUSprite@SpriteBatch@@V?$move_iterator@V?$_Vector_iterator@V?$_Vector_val@U?$_Simple_types@USprite@SpriteBatch@@@std@@@std@@@std@@@0@0PAU12@AAU?$_Wrap_alloc@V?$allocator@USprite@SpriteBatch@@@std@@@0@U_Nonscalar_ptr_iterator_tag@0@@Z 004454d8     SpriteBatch.obj
 0002:000044e8       __tryblocktable$??$_Uninit_copy@V?$move_iterator@V?$_Vector_iterator@V?$_Vector_val@U?$_Simple_types@USprite@SpriteBatch@@@std@@@std@@@std@@@std@@PAUSprite@SpriteBatch@@V?$allocator@USprite@SpriteBatch@@@2@@std@@YAPAUSprite@SpriteBatch@@V?$move_iterator@V?$_Vector_iterator@V?$_Vector_val@U?$_Simple_types@USprite@SpriteBatch@@@std@@@std@@@std@@@0@0PAU12@AAU?$_Wrap_alloc@V?$allocator@USprite@SpriteBatch@@@std@@@0@U_Nonscalar_ptr_iterator_tag@0@@Z 004454e8     SpriteBatch.obj
 0002:000044fc       __ehfuncinfo$??$_Uninit_copy@V?$move_iterator@V?$_Vector_iterator@V?$_Vector_val@U?$_Simple_types@USprite@SpriteBatch@@@std@@@std@@@std@@@std@@PAUSprite@SpriteBatch@@V?$allocator@USprite@SpriteBatch@@@2@@std@@YAPAUSprite@SpriteBatch@@V?$move_iterator@V?$_Vector_iterator@V?$_Vector_val@U?$_Simple_types@USprite@SpriteBatch@@@std@@@std@@@std@@@0@0PAU12@AAU?$_Wrap_alloc@V?$allocator@USprite@SpriteBatch@@@std@@@0@U_Nonscalar_ptr_iterator_tag@0@@Z 004454fc     SpriteBatch.obj
 0002:00004520       __unwindtable$??$swap@USprite@SpriteBatch@@@std@@YAXAAUSprite@SpriteBatch@@0@Z 00445520     SpriteBatch.obj
 0002:00004528       __ehfuncinfo$??$swap@USprite@SpriteBatch@@@std@@YAXAAUSprite@SpriteBatch@@0@Z 00445528     SpriteBatch.obj
 0002:0000454c       __unwindtable$??1Texture2D@@UAE@XZ 0044554c     Texture2D.obj
 0002:00004554       __ehfuncinfo$??1Texture2D@@UAE@XZ 00445554     Texture2D.obj
 0002:00004578       __unwindtable$??0ToggleButton@@QAE@VDemoRectangle@@PAVTexture2D@@VDemoColour@@@Z 00445578     ToggleButton.obj
 0002:00004588       __ehfuncinfo$??0ToggleButton@@QAE@VDemoRectangle@@PAVTexture2D@@VDemoColour@@@Z 00445588     ToggleButton.obj
 0002:000045b0       __sehtable$__onexit        004455b0     MSVCRT:atonexit.obj
 0002:000045d0       __sehtable$___tmainCRTStartup 004455d0     MSVCRT:crtexew.obj
 0002:000045f0       __sehtable$??_M@YGXPAXIHP6EX0@Z@Z 004455f0     MSVCRT:ehvecdtr.obj
 0002:00004610       __sehtable$?__ArrayUnwind@@YGXPAXIHP6EX0@Z@Z 00445610     MSVCRT:ehvecdtr.obj
 0002:00004630       __sehtable$__IsNonwritableInCurrentImage 00445630     MSVCRT:pesect.obj
 0002:000046b8       __ehfuncinfo$??$RayCast@Ub2WorldRayCastWrapper@@@b2DynamicTree@@QBEXPAUb2WorldRayCastWrapper@@ABUb2RayCastInput@@@Z 004456b8      CIL library: CIL module
 0002:000046dc       __unwindtable$??$RayCast@Ub2WorldRayCastWrapper@@@b2DynamicTree@@QBEXPAUb2WorldRayCastWrapper@@ABUb2RayCastInput@@@Z 004456dc      CIL library: CIL module
 0002:000046e4       __ehfuncinfo$??$Query@Ub2WorldQueryWrapper@@@b2DynamicTree@@QBEXPAUb2WorldQueryWrapper@@ABUb2AABB@@@Z 004456e4      CIL library: CIL module
 0002:00004708       __unwindtable$??$Query@Ub2WorldQueryWrapper@@@b2DynamicTree@@QBEXPAUb2WorldQueryWrapper@@ABUb2AABB@@@Z 00445708      CIL library: CIL module
 0002:00004710       __ehfuncinfo$?SolveTOI@b2World@@AAEXABUb2TimeStep@@@Z 00445710      CIL library: CIL module
 0002:00004734       __unwindtable$?SolveTOI@b2World@@AAEXABUb2TimeStep@@@Z 00445734      CIL library: CIL module
 0002:0000473c       __ehfuncinfo$?Solve@b2World@@AAEXABUb2TimeStep@@@Z 0044573c      CIL library: CIL module
 0002:00004760       __unwindtable$?Solve@b2World@@AAEXABUb2TimeStep@@@Z 00445760      CIL library: CIL module
 0002:00004768       __ehfuncinfo$??1b2World@@QAE@XZ 00445768      CIL library: CIL module
 0002:0000478c       __unwindtable$??1b2World@@QAE@XZ 0044578c      CIL library: CIL module
 0002:0000479c       __ehfuncinfo$?SolveTOI@b2Island@@QAEXABUb2TimeStep@@HH@Z 0044579c      CIL library: CIL module
 0002:000047c0       __unwindtable$?SolveTOI@b2Island@@QAEXABUb2TimeStep@@HH@Z 004457c0      CIL library: CIL module
 0002:000047c8       __ehfuncinfo$?Solve@b2Island@@QAEXPAUb2Profile@@ABUb2TimeStep@@ABUb2Vec2@@_N@Z 004457c8      CIL library: CIL module
 0002:000047ec       __unwindtable$?Solve@b2Island@@QAEXPAUb2Profile@@ABUb2TimeStep@@ABUb2Vec2@@_N@Z 004457ec      CIL library: CIL module
 0002:000047f4       __ehfuncinfo$?_Copy@?$basic_string@DU?$char_traits@D@std@@V?$allocator@D@2@@std@@QAEXII@Z 004457f4      CIL library: CIL module
 0002:00004818       __unwindtable$?_Copy@?$basic_string@DU?$char_traits@D@std@@V?$allocator@D@2@@std@@QAEXII@Z 00445818      CIL library: CIL module
 0002:00004838       __tryblocktable$?_Copy@?$basic_string@DU?$char_traits@D@std@@V?$allocator@D@2@@std@@QAEXII@Z 00445838      CIL library: CIL module
 0002:00004860       __catchsym$?_Copy@?$basic_string@DU?$char_traits@D@std@@V?$allocator@D@2@@std@@QAEXII@Z$4 00445860      CIL library: CIL module
 0002:00004870       __catchsym$?_Copy@?$basic_string@DU?$char_traits@D@std@@V?$allocator@D@2@@std@@QAEXII@Z$5 00445870      CIL library: CIL module
 0002:00004880       __ehfuncinfo$??0Managed_Object@@QAE@XZ 00445880      CIL library: CIL module
 0002:000048a4       __unwindtable$??0Managed_Object@@QAE@XZ 004458a4      CIL library: CIL module
 0002:00004dcc       .idata$6                   00445dcc     OpenGL32:OPENGL32.dll
 0002:00004dee       .idata$6                   00445dee     GLU32:GLU32.dll
 0002:00004f1e       .idata$6                   00445f1e     user32:USER32.dll
 0002:00004f5e       .idata$6                   00445f5e     gdi32:GDI32.dll
 0002:00005bea       .idata$6                   00446bea     msvcprt:MSVCP110.dll
 0002:00005d8a       .idata$6                   00446d8a     MSVCRT:MSVCR110.dll
 0002:00006050       .idata$6                   00447050     kernel32:KERNEL32.dll
 0003:000008d8       _piecewise_construct       004488d8     ContentManager.obj
 0003:000008d9       _allocator_arg             004488d9     ContentManager.obj
 0003:000008f0       _piecewise_construct       004488f0     Demo.obj
 0003:000008f1       _allocator_arg             004488f1     Demo.obj
 0003:000008f2       _piecewise_construct       004488f2     DemoButton.obj
 0003:000008f3       _allocator_arg             004488f3     DemoButton.obj
 0003:000008f4       _piecewise_construct       004488f4     DemoContactListener.obj
 0003:000008f5       _allocator_arg             004488f5     DemoContactListener.obj
 0003:000008f6       _piecewise_construct       004488f6     DemoDebugInfo.obj
 0003:000008f7       _allocator_arg             004488f7     DemoDebugInfo.obj
 0003:00000900       _piecewise_construct       00448900     Game.obj
 0003:00000901       _allocator_arg             00448901     Game.obj
 0003:00000908       ?prevTime@?4??Run@Game@@QAE_NXZ@4NA 00448908     Game.obj
 0003:00000910       ?$S1@?4??Run@Game@@QAE_NXZ@4IA 00448910     Game.obj
 0003:00000914       _piecewise_construct       00448914     GameObject.obj
 0003:00000915       _allocator_arg             00448915     GameObject.obj
 0003:00000924       _piecewise_construct       00448924     ManagedDemo.obj
 0003:00000925       _allocator_arg             00448925     ManagedDemo.obj
 0003:00000928       ?hDC@?1??MainWindowProc@@YGJPAUHWND__@@IIJ@Z@4PAUHDC__@@A 00448928     ManagedDemo.obj
 0003:0000092c       ?hRC@?1??MainWindowProc@@YGJPAUHWND__@@IIJ@Z@4PAUHGLRC__@@A 0044892c     ManagedDemo.obj
 0003:00000930       _piecewise_construct       00448930     PushButton.obj
 0003:00000931       _allocator_arg             00448931     PushButton.obj
 0003:00000932       _piecewise_construct       00448932     SpriteBatch.obj
 0003:00000933       _allocator_arg             00448933     SpriteBatch.obj
 0003:00000938       _piecewise_construct       00448938     Texture2D.obj
 0003:00000939       _allocator_arg             00448939     Texture2D.obj
 0003:0000093a       _piecewise_construct       0044893a     ToggleButton.obj
 0003:0000093b       _allocator_arg             0044893b     ToggleButton.obj
 0003:0000093c       _mainret                   0044893c     MSVCRT:crtexew.obj
 0003:00000940       _has_cctor                 00448940     MSVCRT:crtexew.obj
 0003:00000944       _argc                      00448944     MSVCRT:crtexew.obj
 0003:00000948       _argv                      00448948     MSVCRT:crtexew.obj
 0003:0000094c       _envp                      0044894c     MSVCRT:crtexew.obj
 0003:00000950       _argret                    00448950     MSVCRT:crtexew.obj
 0003:00000954       _managedapp                00448954     MSVCRT:crtexew.obj
 0003:00000958       _startinfo                 00448958     MSVCRT:crtexew.obj
 0003:00000960       _GS_ExceptionRecord        00448960     MSVCRT:gs_report.obj
 0003:000009b0       _GS_ContextRecord          004489b0     MSVCRT:gs_report.obj
 0003:00000c7c       _DebuggerWasPresent        00448c7c     MSVCRT:gs_report.obj
 0003:0000103c       _allocator_arg             0044903c      CIL library: CIL module
 0003:0000103d       _piecewise_construct       0044903d      CIL library: CIL module
 0003:0000103e       _allocator_arg             0044903e      CIL library: CIL module
 0003:0000103f       _piecewise_construct       0044903f      CIL library: CIL module
 0003:00001040       _allocator_arg             00449040      CIL library: CIL module
 0003:00001041       _piecewise_construct       00449041      CIL library: CIL module
 0003:00001042       _allocator_arg             00449042      CIL library: CIL module
 0003:00001043       _piecewise_construct       00449043      CIL library: CIL module
 0003:00001044       _allocator_arg             00449044      CIL library: CIL module
 0003:00001045       _piecewise_construct       00449045      CIL library: CIL module
 0003:00001046       _allocator_arg             00449046      CIL library: CIL module
 0003:00001047       _piecewise_construct       00449047      CIL library: CIL module
 0003:00001048       _allocator_arg             00449048      CIL library: CIL module
 0003:00001049       _piecewise_construct       00449049      CIL library: CIL module
 0003:0000104a       _allocator_arg             0044904a      CIL library: CIL module
 0003:0000104b       _piecewise_construct       0044904b      CIL library: CIL module
 0003:0000104c       _allocator_arg             0044904c      CIL library: CIL module
 0003:0000104d       _piecewise_construct       0044904d      CIL library: CIL module
 0003:0000104e       _allocator_arg             0044904e      CIL library: CIL module
 0003:0000104f       _piecewise_construct       0044904f      CIL library: CIL module
 0003:00001050       _allocator_arg             00449050      CIL library: CIL module
 0003:00001051       _piecewise_construct       00449051      CIL library: CIL module
 0003:00001052       _allocator_arg             00449052      CIL library: CIL module
 0003:00001053       _piecewise_construct       00449053      CIL library: CIL module
 0003:00001054       _allocator_arg             00449054      CIL library: CIL module
 0003:00001055       _piecewise_construct       00449055      CIL library: CIL module
 0003:00001056       _allocator_arg             00449056      CIL library: CIL module
 0003:00001057       _piecewise_construct       00449057      CIL library: CIL module
 0003:00001058       _allocator_arg             00449058      CIL library: CIL module
 0003:00001059       _piecewise_construct       00449059      CIL library: CIL module
 0003:0000105a       _allocator_arg             0044905a      CIL library: CIL module
 0003:0000105b       _piecewise_construct       0044905b      CIL library: CIL module
 0003:0000105c       _allocator_arg             0044905c      CIL library: CIL module
 0003:0000105d       _piecewise_construct       0044905d      CIL library: CIL module
 0003:0000105e       _allocator_arg             0044905e      CIL library: CIL module
 0003:0000105f       _piecewise_construct       0044905f      CIL library: CIL module
 0003:00001060       _allocator_arg             00449060      CIL library: CIL module
 0003:00001061       _piecewise_construct       00449061      CIL library: CIL module
 0003:00001062       _allocator_arg             00449062      CIL library: CIL module
 0003:00001063       _piecewise_construct       00449063      CIL library: CIL module
 0003:00001064       _allocator_arg             00449064      CIL library: CIL module
 0003:00001065       _piecewise_construct       00449065      CIL library: CIL module
 0003:00001066       _allocator_arg             00449066      CIL library: CIL module
 0003:00001067       _piecewise_construct       00449067      CIL library: CIL module
 0003:00001068       _allocator_arg             00449068      CIL library: CIL module
 0003:00001069       _piecewise_construct       00449069      CIL library: CIL module
 0003:0000106a       _allocator_arg             0044906a      CIL library: CIL module
 0003:0000106b       _piecewise_construct       0044906b      CIL library: CIL module
 0003:0000106c       _allocator_arg             0044906c      CIL library: CIL module
 0003:0000106d       _piecewise_construct       0044906d      CIL library: CIL module
 0003:0000106e       _allocator_arg             0044906e      CIL library: CIL module
 0003:0000106f       _piecewise_construct       0044906f      CIL library: CIL module
 0003:00001070       _allocator_arg             00449070      CIL library: CIL module
 0003:00001071       _piecewise_construct       00449071      CIL library: CIL module
 0003:00001072       _allocator_arg             00449072      CIL library: CIL module
 0003:00001073       _piecewise_construct       00449073      CIL library: CIL module
 0003:00001074       _piecewise_construct       00449074      CIL library: CIL module
 0003:00001075       _allocator_arg             00449075      CIL library: CIL module
 0003:00001076       _piecewise_construct       00449076      CIL library: CIL module
 0003:00001077       _allocator_arg             00449077      CIL library: CIL module
 0003:00001084       _piecewise_construct       00449084      CIL library: CIL module
 0003:00001085       _allocator_arg             00449085      CIL library: CIL module
 0003:00001086       _piecewise_construct       00449086      CIL library: CIL module
 0003:00001087       _allocator_arg             00449087      CIL library: CIL module
 0004:000002e0       $R000000                   0044a2e0     ManagedDemo.res
 0004:000005c8       $R0002E8                   0044a5c8     ManagedDemo.res
 0004:00000e70       $R000B90                   0044ae70     ManagedDemo.res
 0004:00001f18       $R001C38                   0044bf18     ManagedDemo.res
 0004:00001f48       $R001C68                   0044bf48     ManagedDemo.res
 0004:00002230       $R001F50                   0044c230     ManagedDemo.res
 0004:00002ad8       $R0027F8                   0044cad8     ManagedDemo.res
 0004:00003b80       $R0038A0                   0044db80     ManagedDemo.res
 0004:00003bb0       $R0038D0                   0044dbb0     ManagedDemo.res
 0004:00003c00       $R003920                   0044dc00     ManagedDemo.res
 0004:00003c10       $R003930                   0044dc10     ManagedDemo.res
 0004:00003d50       $R003A70                   0044dd50     ManagedDemo.res
